	.text
	.section	.note.gnu.property,"a",@note
	.p2align	3
	.word	4
	.word	16
	.word	5
	.asciz	"GNU"
	.word	3221225472
	.word	4
	.word	3
	.word	0
.Lsec_end0:
	.text
	.file	"pagecache_manage.c"
                                        // Start of file scope inline assembly
	.section	.initcall6.init,"a",@progbits
__initcall__kmod_pagecache_manage__458_1684___cfi_hisi_page_cache_manage_init6:
.Ltmp0:
	.word	__cfi_hisi_page_cache_manage_init-.Ltmp0
	.text


                                        // End of file scope inline assembly
	.file	1 "/mnt/disk/jenkins/ci/workspace/chipset_pipeline_release/opensource/component_code/vendor/huawei/extra/build/build_script/kirin_kernel_release" "kernel/platform_source/basicplatform/fs/filemap_manager/pagecache_manage.c"
	.file	2 "/mnt/disk/jenkins/ci/workspace/chipset_pipeline_release/opensource/component_code/vendor/huawei/extra/build/build_script/kirin_kernel_release" "kernel/include/linux/init.h"
	.file	3 "/mnt/disk/jenkins/ci/workspace/chipset_pipeline_release/opensource/component_code/vendor/huawei/extra/build/build_script/kirin_kernel_release" "kernel/include/linux/blkdev.h"
	.file	4 "/mnt/disk/jenkins/ci/workspace/chipset_pipeline_release/opensource/component_code/vendor/huawei/extra/build/build_script/kirin_kernel_release" "kernel/include/linux/types.h"
	.file	5 "/mnt/disk/jenkins/ci/workspace/chipset_pipeline_release/opensource/component_code/vendor/huawei/extra/build/build_script/kirin_kernel_release" "kernel/include/uapi/asm-generic/int-ll64.h"
	.file	6 "/mnt/disk/jenkins/ci/workspace/chipset_pipeline_release/opensource/component_code/vendor/huawei/extra/build/build_script/kirin_kernel_release" "kernel/include/asm-generic/int-ll64.h"
	.file	7 "/mnt/disk/jenkins/ci/workspace/chipset_pipeline_release/opensource/component_code/vendor/huawei/extra/build/build_script/kirin_kernel_release" "kernel/include/linux/blk_types.h"
	.file	8 "/mnt/disk/jenkins/ci/workspace/chipset_pipeline_release/opensource/component_code/vendor/huawei/extra/build/build_script/kirin_kernel_release" "kernel/include/linux/genhd.h"
	.file	9 "/mnt/disk/jenkins/ci/workspace/chipset_pipeline_release/opensource/component_code/vendor/huawei/extra/build/build_script/kirin_kernel_release" "kernel/include/linux/percpu-refcount.h"
	.file	10 "/mnt/disk/jenkins/ci/workspace/chipset_pipeline_release/opensource/component_code/vendor/huawei/extra/build/build_script/kirin_kernel_release" "kernel/include/asm-generic/atomic-long.h"
	.file	11 "/mnt/disk/jenkins/ci/workspace/chipset_pipeline_release/opensource/component_code/vendor/huawei/extra/build/build_script/kirin_kernel_release" "kernel/include/linux/kobject.h"
	.file	12 "/mnt/disk/jenkins/ci/workspace/chipset_pipeline_release/opensource/component_code/vendor/huawei/extra/build/build_script/kirin_kernel_release" "kernel/include/asm-generic/qspinlock_types.h"
	.file	13 "/mnt/disk/jenkins/ci/workspace/chipset_pipeline_release/opensource/component_code/vendor/huawei/extra/build/build_script/kirin_kernel_release" "kernel/include/linux/spinlock_types.h"
	.file	14 "/mnt/disk/jenkins/ci/workspace/chipset_pipeline_release/opensource/component_code/vendor/huawei/extra/build/build_script/kirin_kernel_release" "kernel/include/uapi/asm-generic/posix_types.h"
	.file	15 "/mnt/disk/jenkins/ci/workspace/chipset_pipeline_release/opensource/component_code/vendor/huawei/extra/build/build_script/kirin_kernel_release" "kernel/include/linux/sysfs.h"
	.file	16 "/mnt/disk/jenkins/ci/workspace/chipset_pipeline_release/opensource/component_code/vendor/huawei/extra/build/build_script/kirin_kernel_release" "kernel/include/linux/llist.h"
	.file	17 "/mnt/disk/jenkins/ci/workspace/chipset_pipeline_release/opensource/component_code/vendor/huawei/extra/build/build_script/kirin_kernel_release" "kernel/include/linux/fs.h"
	.file	18 "/mnt/disk/jenkins/ci/workspace/chipset_pipeline_release/opensource/component_code/vendor/huawei/extra/build/build_script/kirin_kernel_release" "kernel/include/linux/dcache.h"
	.file	19 "/mnt/disk/jenkins/ci/workspace/chipset_pipeline_release/opensource/component_code/vendor/huawei/extra/build/build_script/kirin_kernel_release" "kernel/include/linux/seqlock.h"
	.file	20 "/mnt/disk/jenkins/ci/workspace/chipset_pipeline_release/opensource/component_code/vendor/huawei/extra/build/build_script/kirin_kernel_release" "kernel/include/linux/list_bl.h"
	.file	21 "/mnt/disk/jenkins/ci/workspace/chipset_pipeline_release/opensource/component_code/vendor/huawei/extra/build/build_script/kirin_kernel_release" "kernel/include/linux/uidgid.h"
	.file	22 "/mnt/disk/jenkins/ci/workspace/chipset_pipeline_release/opensource/component_code/vendor/huawei/extra/build/build_script/kirin_kernel_release" "kernel/include/linux/delayed_call.h"
	.file	23 "/mnt/disk/jenkins/ci/workspace/chipset_pipeline_release/opensource/component_code/vendor/huawei/extra/build/build_script/kirin_kernel_release" "kernel/include/linux/time64.h"
	.file	24 "/mnt/disk/jenkins/ci/workspace/chipset_pipeline_release/opensource/component_code/vendor/huawei/extra/build/build_script/kirin_kernel_release" "kernel/include/linux/stat.h"
	.file	25 "/mnt/disk/jenkins/ci/workspace/chipset_pipeline_release/opensource/component_code/vendor/huawei/extra/build/build_script/kirin_kernel_release" "kernel/include/linux/fiemap.h"
	.file	26 "/mnt/disk/jenkins/ci/workspace/chipset_pipeline_release/opensource/component_code/vendor/huawei/extra/build/build_script/kirin_kernel_release" "kernel/include/uapi/linux/fiemap.h"
	.file	27 "/mnt/disk/jenkins/ci/workspace/chipset_pipeline_release/opensource/component_code/vendor/huawei/extra/build/build_script/kirin_kernel_release" "kernel/include/linux/module.h"
	.file	28 "/mnt/disk/jenkins/ci/workspace/chipset_pipeline_release/opensource/component_code/vendor/huawei/extra/build/build_script/kirin_kernel_release" "kernel/include/linux/completion.h"
	.file	29 "/mnt/disk/jenkins/ci/workspace/chipset_pipeline_release/opensource/component_code/vendor/huawei/extra/build/build_script/kirin_kernel_release" "kernel/include/linux/swait.h"
	.file	30 "/mnt/disk/jenkins/ci/workspace/chipset_pipeline_release/opensource/component_code/vendor/huawei/extra/build/build_script/kirin_kernel_release" "kernel/include/linux/export.h"
	.file	31 "/mnt/disk/jenkins/ci/workspace/chipset_pipeline_release/opensource/component_code/vendor/huawei/extra/build/build_script/kirin_kernel_release" "kernel/include/linux/mutex.h"
	.file	32 "/mnt/disk/jenkins/ci/workspace/chipset_pipeline_release/opensource/component_code/vendor/huawei/extra/build/build_script/kirin_kernel_release" "kernel/include/linux/osq_lock.h"
	.file	33 "/mnt/disk/jenkins/ci/workspace/chipset_pipeline_release/opensource/component_code/vendor/huawei/extra/build/build_script/kirin_kernel_release" "kernel/include/linux/moduleparam.h"
	.file	34 "/mnt/disk/jenkins/ci/workspace/chipset_pipeline_release/opensource/component_code/vendor/huawei/extra/build/build_script/kirin_kernel_release" "kernel/arch/arm64/include/asm/extable.h"
	.file	35 "/mnt/disk/jenkins/ci/workspace/chipset_pipeline_release/opensource/component_code/vendor/huawei/extra/build/build_script/kirin_kernel_release" "kernel/include/linux/rbtree.h"
	.file	36 "/mnt/disk/jenkins/ci/workspace/chipset_pipeline_release/opensource/component_code/vendor/huawei/extra/build/build_script/kirin_kernel_release" "kernel/include/linux/rbtree_latch.h"
	.file	37 "/mnt/disk/jenkins/ci/workspace/chipset_pipeline_release/opensource/component_code/vendor/huawei/extra/build/build_script/kirin_kernel_release" "kernel/arch/arm64/include/asm/module.h"
	.file	38 "/mnt/disk/jenkins/ci/workspace/chipset_pipeline_release/opensource/component_code/vendor/huawei/extra/build/build_script/kirin_kernel_release" "kernel/include/uapi/linux/types.h"
	.file	39 "/mnt/disk/jenkins/ci/workspace/chipset_pipeline_release/opensource/component_code/vendor/huawei/extra/build/build_script/kirin_kernel_release" "kernel/include/uapi/linux/elf.h"
	.file	40 "/mnt/disk/jenkins/ci/workspace/chipset_pipeline_release/opensource/component_code/vendor/huawei/extra/build/build_script/kirin_kernel_release" "kernel/include/asm-generic/bug.h"
	.file	41 "/mnt/disk/jenkins/ci/workspace/chipset_pipeline_release/opensource/component_code/vendor/huawei/extra/build/build_script/kirin_kernel_release" "kernel/include/linux/tracepoint-defs.h"
	.file	42 "/mnt/disk/jenkins/ci/workspace/chipset_pipeline_release/opensource/component_code/vendor/huawei/extra/build/build_script/kirin_kernel_release" "kernel/include/linux/srcutree.h"
	.file	43 "/mnt/disk/jenkins/ci/workspace/chipset_pipeline_release/opensource/component_code/vendor/huawei/extra/build/build_script/kirin_kernel_release" "kernel/include/linux/rcu_segcblist.h"
	.file	44 "/mnt/disk/jenkins/ci/workspace/chipset_pipeline_release/opensource/component_code/vendor/huawei/extra/build/build_script/kirin_kernel_release" "kernel/include/linux/timer.h"
	.file	45 "/mnt/disk/jenkins/ci/workspace/chipset_pipeline_release/opensource/component_code/vendor/huawei/extra/build/build_script/kirin_kernel_release" "kernel/include/linux/workqueue.h"
	.file	46 "/mnt/disk/jenkins/ci/workspace/chipset_pipeline_release/opensource/component_code/vendor/huawei/extra/build/build_script/kirin_kernel_release" "kernel/include/linux/lockdep_types.h"
	.file	47 "/mnt/disk/jenkins/ci/workspace/chipset_pipeline_release/opensource/component_code/vendor/huawei/extra/build/build_script/kirin_kernel_release" "kernel/include/linux/writeback.h"
	.file	48 "/mnt/disk/jenkins/ci/workspace/chipset_pipeline_release/opensource/component_code/vendor/huawei/extra/build/build_script/kirin_kernel_release" "kernel/include/linux/backing-dev-defs.h"
	.file	49 "/mnt/disk/jenkins/ci/workspace/chipset_pipeline_release/opensource/component_code/vendor/huawei/extra/build/build_script/kirin_kernel_release" "kernel/include/linux/refcount.h"
	.file	50 "/mnt/disk/jenkins/ci/workspace/chipset_pipeline_release/opensource/component_code/vendor/huawei/extra/build/build_script/kirin_kernel_release" "kernel/include/linux/kref.h"
	.file	51 "/mnt/disk/jenkins/ci/workspace/chipset_pipeline_release/opensource/component_code/vendor/huawei/extra/build/build_script/kirin_kernel_release" "kernel/include/linux/xarray.h"
	.file	52 "/mnt/disk/jenkins/ci/workspace/chipset_pipeline_release/opensource/component_code/vendor/huawei/extra/build/build_script/kirin_kernel_release" "kernel/include/linux/rwsem.h"
	.file	53 "/mnt/disk/jenkins/ci/workspace/chipset_pipeline_release/opensource/component_code/vendor/huawei/extra/build/build_script/kirin_kernel_release" "kernel/arch/arm64/include/asm/thread_info.h"
	.file	54 "/mnt/disk/jenkins/ci/workspace/chipset_pipeline_release/opensource/component_code/vendor/huawei/extra/build/build_script/kirin_kernel_release" "kernel/include/linux/sched.h"
	.file	55 "/mnt/disk/jenkins/ci/workspace/chipset_pipeline_release/opensource/component_code/vendor/huawei/extra/build/build_script/kirin_kernel_release" "kernel/include/linux/smp_types.h"
	.file	56 "/mnt/disk/jenkins/ci/workspace/chipset_pipeline_release/opensource/component_code/vendor/huawei/extra/build/build_script/kirin_kernel_release" "kernel/include/linux/timerqueue.h"
	.file	57 "/mnt/disk/jenkins/ci/workspace/chipset_pipeline_release/opensource/component_code/vendor/huawei/extra/build/build_script/kirin_kernel_release" "kernel/include/linux/ktime.h"
	.file	58 "/mnt/disk/jenkins/ci/workspace/chipset_pipeline_release/opensource/component_code/vendor/huawei/extra/build/build_script/kirin_kernel_release" "kernel/include/linux/hrtimer.h"
	.file	59 "/mnt/disk/jenkins/ci/workspace/chipset_pipeline_release/opensource/component_code/vendor/huawei/extra/build/build_script/kirin_kernel_release" "kernel/include/linux/cpumask.h"
	.file	60 "/mnt/disk/jenkins/ci/workspace/chipset_pipeline_release/opensource/component_code/vendor/huawei/extra/build/build_script/kirin_kernel_release" "kernel/include/linux/plist.h"
	.file	61 "/mnt/disk/jenkins/ci/workspace/chipset_pipeline_release/opensource/component_code/vendor/huawei/extra/build/build_script/kirin_kernel_release" "kernel/include/linux/mm_types.h"
	.file	62 "/mnt/disk/jenkins/ci/workspace/chipset_pipeline_release/opensource/component_code/vendor/huawei/extra/build/build_script/kirin_kernel_release" "kernel/arch/arm64/include/asm/pgtable-types.h"
	.file	63 "/mnt/disk/jenkins/ci/workspace/chipset_pipeline_release/opensource/component_code/vendor/huawei/extra/build/build_script/kirin_kernel_release" "kernel/include/linux/rmap.h"
	.file	64 "/mnt/disk/jenkins/ci/workspace/chipset_pipeline_release/opensource/component_code/vendor/huawei/extra/build/build_script/kirin_kernel_release" "kernel/include/linux/mm.h"
	.file	65 "/mnt/disk/jenkins/ci/workspace/chipset_pipeline_release/opensource/component_code/vendor/huawei/extra/build/build_script/kirin_kernel_release" "kernel/include/asm-generic/pgtable-nop4d.h"
	.file	66 "/mnt/disk/jenkins/ci/workspace/chipset_pipeline_release/opensource/component_code/vendor/huawei/extra/build/build_script/kirin_kernel_release" "kernel/include/asm-generic/pgtable-nopud.h"
	.file	67 "/mnt/disk/jenkins/ci/workspace/chipset_pipeline_release/opensource/component_code/vendor/huawei/extra/build/build_script/kirin_kernel_release" "kernel/include/linux/pagemap.h"
	.file	68 "/mnt/disk/jenkins/ci/workspace/chipset_pipeline_release/opensource/component_code/vendor/huawei/extra/build/build_script/kirin_kernel_release" "kernel/include/linux/wait.h"
	.file	69 "/mnt/disk/jenkins/ci/workspace/chipset_pipeline_release/opensource/component_code/vendor/huawei/extra/build/build_script/kirin_kernel_release" "kernel/include/linux/uio.h"
	.file	70 "/mnt/disk/jenkins/ci/workspace/chipset_pipeline_release/opensource/component_code/vendor/huawei/extra/build/build_script/kirin_kernel_release" "kernel/include/uapi/linux/uio.h"
	.file	71 "/mnt/disk/jenkins/ci/workspace/chipset_pipeline_release/opensource/component_code/vendor/huawei/extra/build/build_script/kirin_kernel_release" "kernel/include/linux/bvec.h"
	.file	72 "/mnt/disk/jenkins/ci/workspace/chipset_pipeline_release/opensource/component_code/vendor/huawei/extra/build/build_script/kirin_kernel_release" "kernel/include/linux/migrate_mode.h"
	.file	73 "/mnt/disk/jenkins/ci/workspace/chipset_pipeline_release/opensource/component_code/vendor/huawei/extra/build/build_script/kirin_kernel_release" "kernel/include/linux/mmzone.h"
	.file	74 "/mnt/disk/jenkins/ci/workspace/chipset_pipeline_release/opensource/component_code/vendor/huawei/extra/build/build_script/kirin_kernel_release" "kernel/include/linux/swap.h"
	.file	75 "/mnt/disk/jenkins/ci/workspace/chipset_pipeline_release/opensource/component_code/vendor/huawei/extra/build/build_script/kirin_kernel_release" "kernel/include/linux/errseq.h"
	.file	76 "/mnt/disk/jenkins/ci/workspace/chipset_pipeline_release/opensource/component_code/vendor/huawei/extra/build/build_script/kirin_kernel_release" "kernel/arch/arm64/include/asm/page.h"
	.file	77 "/mnt/disk/jenkins/ci/workspace/chipset_pipeline_release/opensource/component_code/vendor/huawei/extra/build/build_script/kirin_kernel_release" "kernel/include/linux/memremap.h"
	.file	78 "/mnt/disk/jenkins/ci/workspace/chipset_pipeline_release/opensource/component_code/vendor/huawei/extra/build/build_script/kirin_kernel_release" "kernel/include/linux/range.h"
	.file	79 "/mnt/disk/jenkins/ci/workspace/chipset_pipeline_release/opensource/component_code/vendor/huawei/extra/build/build_script/kirin_kernel_release" "kernel/include/linux/cgroup-defs.h"
	.file	80 "/mnt/disk/jenkins/ci/workspace/chipset_pipeline_release/opensource/component_code/vendor/huawei/extra/build/build_script/kirin_kernel_release" "kernel/include/linux/kernfs.h"
	.file	81 "/mnt/disk/jenkins/ci/workspace/chipset_pipeline_release/opensource/component_code/vendor/huawei/extra/build/build_script/kirin_kernel_release" "kernel/include/linux/idr.h"
	.file	82 "/mnt/disk/jenkins/ci/workspace/chipset_pipeline_release/opensource/component_code/vendor/huawei/extra/build/build_script/kirin_kernel_release" "kernel/include/linux/seq_file.h"
	.file	83 "/mnt/disk/jenkins/ci/workspace/chipset_pipeline_release/opensource/component_code/vendor/huawei/extra/build/build_script/kirin_kernel_release" "kernel/include/linux/u64_stats_sync.h"
	.file	84 "/mnt/disk/jenkins/ci/workspace/chipset_pipeline_release/opensource/component_code/vendor/huawei/extra/build/build_script/kirin_kernel_release" "kernel/include/linux/sched/types.h"
	.file	85 "/mnt/disk/jenkins/ci/workspace/chipset_pipeline_release/opensource/component_code/vendor/huawei/extra/build/build_script/kirin_kernel_release" "kernel/include/linux/psi_types.h"
	.file	86 "/mnt/disk/jenkins/ci/workspace/chipset_pipeline_release/opensource/component_code/vendor/huawei/extra/build/build_script/kirin_kernel_release" "kernel/include/linux/bpf.h"
	.file	87 "/mnt/disk/jenkins/ci/workspace/chipset_pipeline_release/opensource/component_code/vendor/huawei/extra/build/build_script/kirin_kernel_release" "kernel/include/linux/bpf-cgroup.h"
	.file	88 "/mnt/disk/jenkins/ci/workspace/chipset_pipeline_release/opensource/component_code/vendor/huawei/extra/build/build_script/kirin_kernel_release" "kernel/include/uapi/linux/bpf.h"
	.file	89 "/mnt/disk/jenkins/ci/workspace/chipset_pipeline_release/opensource/component_code/vendor/huawei/extra/build/build_script/kirin_kernel_release" "kernel/include/linux/memcontrol.h"
	.file	90 "/mnt/disk/jenkins/ci/workspace/chipset_pipeline_release/opensource/component_code/vendor/huawei/extra/build/build_script/kirin_kernel_release" "kernel/include/linux/page_counter.h"
	.file	91 "/mnt/disk/jenkins/ci/workspace/chipset_pipeline_release/opensource/component_code/vendor/huawei/extra/build/build_script/kirin_kernel_release" "kernel/include/platform_include/basicplatform/linux/mm/parallel_swapd.h"
	.file	92 "/mnt/disk/jenkins/ci/workspace/chipset_pipeline_release/opensource/component_code/vendor/huawei/extra/build/build_script/kirin_kernel_release" "kernel/mm/internal.h"
	.file	93 "/mnt/disk/jenkins/ci/workspace/chipset_pipeline_release/opensource/component_code/vendor/huawei/extra/build/build_script/kirin_kernel_release" "kernel/include/linux/nodemask.h"
	.file	94 "/mnt/disk/jenkins/ci/workspace/chipset_pipeline_release/opensource/component_code/vendor/huawei/extra/build/build_script/kirin_kernel_release" "kernel/include/linux/vmpressure.h"
	.file	95 "/mnt/disk/jenkins/ci/workspace/chipset_pipeline_release/opensource/component_code/vendor/huawei/extra/build/build_script/kirin_kernel_release" "kernel/include/platform_include/basicplatform/linux/hp/memcg_policy.h"
	.file	96 "/mnt/disk/jenkins/ci/workspace/chipset_pipeline_release/opensource/component_code/vendor/huawei/extra/build/build_script/kirin_kernel_release" "kernel/include/linux/percpu_counter.h"
	.file	97 "/mnt/disk/jenkins/ci/workspace/chipset_pipeline_release/opensource/component_code/vendor/huawei/extra/build/build_script/kirin_kernel_release" "kernel/include/linux/flex_proportions.h"
	.file	98 "/mnt/disk/jenkins/ci/workspace/chipset_pipeline_release/opensource/component_code/vendor/huawei/extra/build/build_script/kirin_kernel_release" "kernel/include/asm-generic/qrwlock_types.h"
	.file	99 "/mnt/disk/jenkins/ci/workspace/chipset_pipeline_release/opensource/component_code/vendor/huawei/extra/build/build_script/kirin_kernel_release" "kernel/include/linux/rwlock_types.h"
	.file	100 "/mnt/disk/jenkins/ci/workspace/chipset_pipeline_release/opensource/component_code/vendor/huawei/extra/build/build_script/kirin_kernel_release" "kernel/include/linux/mm_types_task.h"
	.file	101 "/mnt/disk/jenkins/ci/workspace/chipset_pipeline_release/opensource/component_code/vendor/huawei/extra/build/build_script/kirin_kernel_release" "kernel/arch/arm64/include/asm/mmu.h"
	.file	102 "/mnt/disk/jenkins/ci/workspace/chipset_pipeline_release/opensource/component_code/vendor/huawei/extra/build/build_script/kirin_kernel_release" "kernel/include/linux/user_namespace.h"
	.file	103 "/mnt/disk/jenkins/ci/workspace/chipset_pipeline_release/opensource/component_code/vendor/huawei/extra/build/build_script/kirin_kernel_release" "kernel/include/linux/ns_common.h"
	.file	104 "/mnt/disk/jenkins/ci/workspace/chipset_pipeline_release/opensource/component_code/vendor/huawei/extra/build/build_script/kirin_kernel_release" "kernel/include/linux/key.h"
	.file	105 "/mnt/disk/jenkins/ci/workspace/chipset_pipeline_release/opensource/component_code/vendor/huawei/extra/build/build_script/kirin_kernel_release" "kernel/include/linux/assoc_array.h"
	.file	106 "/mnt/disk/jenkins/ci/workspace/chipset_pipeline_release/opensource/component_code/vendor/huawei/extra/build/build_script/kirin_kernel_release" "kernel/include/linux/sysctl.h"
	.file	107 "/mnt/disk/jenkins/ci/workspace/chipset_pipeline_release/opensource/component_code/vendor/huawei/extra/build/build_script/kirin_kernel_release" "kernel/include/linux/uprobes.h"
	.file	108 "/mnt/disk/jenkins/ci/workspace/chipset_pipeline_release/opensource/component_code/vendor/huawei/extra/build/build_script/kirin_kernel_release" "kernel/include/linux/xreclaimer_types.h"
	.file	109 "/mnt/disk/jenkins/ci/workspace/chipset_pipeline_release/opensource/component_code/vendor/huawei/extra/build/build_script/kirin_kernel_release" "kernel/include/linux/restart_block.h"
	.file	110 "/mnt/disk/jenkins/ci/workspace/chipset_pipeline_release/opensource/component_code/vendor/huawei/extra/build/build_script/kirin_kernel_release" "kernel/include/uapi/linux/time_types.h"
	.file	111 "/mnt/disk/jenkins/ci/workspace/chipset_pipeline_release/opensource/component_code/vendor/huawei/extra/build/build_script/kirin_kernel_release" "kernel/include/vdso/time32.h"
	.file	112 "/mnt/disk/jenkins/ci/workspace/chipset_pipeline_release/opensource/component_code/vendor/huawei/extra/build/build_script/kirin_kernel_release" "kernel/include/linux/pid.h"
	.file	113 "/mnt/disk/jenkins/ci/workspace/chipset_pipeline_release/opensource/component_code/vendor/huawei/extra/build/build_script/kirin_kernel_release" "kernel/include/linux/pid_namespace.h"
	.file	114 "/mnt/disk/jenkins/ci/workspace/chipset_pipeline_release/opensource/component_code/vendor/huawei/extra/build/build_script/kirin_kernel_release" "kernel/include/linux/posix-timers.h"
	.file	115 "/mnt/disk/jenkins/ci/workspace/chipset_pipeline_release/opensource/component_code/vendor/huawei/extra/build/build_script/kirin_kernel_release" "kernel/include/linux/cred.h"
	.file	116 "/mnt/disk/jenkins/ci/workspace/chipset_pipeline_release/opensource/component_code/vendor/huawei/extra/build/build_script/kirin_kernel_release" "kernel/include/linux/capability.h"
	.file	117 "/mnt/disk/jenkins/ci/workspace/chipset_pipeline_release/opensource/component_code/vendor/huawei/extra/build/build_script/kirin_kernel_release" "kernel/include/linux/sched/user.h"
	.file	118 "/mnt/disk/jenkins/ci/workspace/chipset_pipeline_release/opensource/component_code/vendor/huawei/extra/build/build_script/kirin_kernel_release" "kernel/include/linux/ratelimit_types.h"
	.file	119 "/mnt/disk/jenkins/ci/workspace/chipset_pipeline_release/opensource/component_code/vendor/huawei/extra/build/build_script/kirin_kernel_release" "kernel/include/linux/nsproxy.h"
	.file	120 "/mnt/disk/jenkins/ci/workspace/chipset_pipeline_release/opensource/component_code/vendor/huawei/extra/build/build_script/kirin_kernel_release" "kernel/include/linux/cgroup.h"
	.file	121 "/mnt/disk/jenkins/ci/workspace/chipset_pipeline_release/opensource/component_code/vendor/huawei/extra/build/build_script/kirin_kernel_release" "kernel/include/linux/sched/signal.h"
	.file	122 "/mnt/disk/jenkins/ci/workspace/chipset_pipeline_release/opensource/component_code/vendor/huawei/extra/build/build_script/kirin_kernel_release" "kernel/include/linux/signal_types.h"
	.file	123 "/mnt/disk/jenkins/ci/workspace/chipset_pipeline_release/opensource/component_code/vendor/huawei/extra/build/build_script/kirin_kernel_release" "kernel/include/uapi/asm-generic/signal.h"
	.file	124 "/mnt/disk/jenkins/ci/workspace/chipset_pipeline_release/opensource/component_code/vendor/huawei/extra/build/build_script/kirin_kernel_release" "kernel/include/linux/task_io_accounting.h"
	.file	125 "/mnt/disk/jenkins/ci/workspace/chipset_pipeline_release/opensource/component_code/vendor/huawei/extra/build/build_script/kirin_kernel_release" "kernel/include/uapi/linux/resource.h"
	.file	126 "/mnt/disk/jenkins/ci/workspace/chipset_pipeline_release/opensource/component_code/vendor/huawei/extra/build/build_script/kirin_kernel_release" "kernel/include/uapi/linux/taskstats.h"
	.file	127 "/mnt/disk/jenkins/ci/workspace/chipset_pipeline_release/opensource/component_code/vendor/huawei/extra/build/build_script/kirin_kernel_release" "kernel/include/uapi/asm-generic/signal-defs.h"
	.file	128 "/mnt/disk/jenkins/ci/workspace/chipset_pipeline_release/opensource/component_code/vendor/huawei/extra/build/build_script/kirin_kernel_release" "kernel/include/linux/seccomp.h"
	.file	129 "/mnt/disk/jenkins/ci/workspace/chipset_pipeline_release/opensource/component_code/vendor/huawei/extra/build/build_script/kirin_kernel_release" "kernel/include/linux/bio.h"
	.file	130 "/mnt/disk/jenkins/ci/workspace/chipset_pipeline_release/opensource/component_code/vendor/huawei/extra/build/build_script/kirin_kernel_release" "kernel/include/linux/iocontext.h"
	.file	131 "/mnt/disk/jenkins/ci/workspace/chipset_pipeline_release/opensource/component_code/vendor/huawei/extra/build/build_script/kirin_kernel_release" "kernel/include/uapi/asm-generic/siginfo.h"
	.file	132 "/mnt/disk/jenkins/ci/workspace/chipset_pipeline_release/opensource/component_code/vendor/huawei/extra/build/build_script/kirin_kernel_release" "kernel/include/asm-generic/compat.h"
	.file	133 "/mnt/disk/jenkins/ci/workspace/chipset_pipeline_release/opensource/component_code/vendor/huawei/extra/build/build_script/kirin_kernel_release" "kernel/include/linux/compat.h"
	.file	134 "/mnt/disk/jenkins/ci/workspace/chipset_pipeline_release/opensource/component_code/vendor/huawei/extra/build/build_script/kirin_kernel_release" "kernel/arch/arm64/include/asm/tlbbatch.h"
	.file	135 "/mnt/disk/jenkins/ci/workspace/chipset_pipeline_release/opensource/component_code/vendor/huawei/extra/build/build_script/kirin_kernel_release" "kernel/arch/arm64/include/asm/processor.h"
	.file	136 "/mnt/disk/jenkins/ci/workspace/chipset_pipeline_release/opensource/component_code/vendor/huawei/extra/build/build_script/kirin_kernel_release" "kernel/arch/arm64/include/uapi/asm/ptrace.h"
	.file	137 "/mnt/disk/jenkins/ci/workspace/chipset_pipeline_release/opensource/component_code/vendor/huawei/extra/build/build_script/kirin_kernel_release" "kernel/arch/arm64/include/asm/pointer_auth.h"
	.file	138 "/mnt/disk/jenkins/ci/workspace/chipset_pipeline_release/opensource/component_code/vendor/huawei/extra/build/build_script/kirin_kernel_release" "kernel/include/linux/statfs.h"
	.file	139 "/mnt/disk/jenkins/ci/workspace/chipset_pipeline_release/opensource/component_code/vendor/huawei/extra/build/build_script/kirin_kernel_release" "kernel/include/linux/quota.h"
	.file	140 "/mnt/disk/jenkins/ci/workspace/chipset_pipeline_release/opensource/component_code/vendor/huawei/extra/build/build_script/kirin_kernel_release" "kernel/include/linux/projid.h"
	.file	141 "/mnt/disk/jenkins/ci/workspace/chipset_pipeline_release/opensource/component_code/vendor/huawei/extra/build/build_script/kirin_kernel_release" "kernel/include/linux/shrinker.h"
	.file	142 "/mnt/disk/jenkins/ci/workspace/chipset_pipeline_release/opensource/component_code/vendor/huawei/extra/build/build_script/kirin_kernel_release" "kernel/include/linux/exportfs.h"
	.file	143 "/mnt/disk/jenkins/ci/workspace/chipset_pipeline_release/opensource/component_code/vendor/huawei/extra/build/build_script/kirin_kernel_release" "kernel/include/linux/fscrypt.h"
	.file	144 "/mnt/disk/jenkins/ci/workspace/chipset_pipeline_release/opensource/component_code/vendor/huawei/extra/build/build_script/kirin_kernel_release" "kernel/include/linux/fsverity.h"
	.file	145 "/mnt/disk/jenkins/ci/workspace/chipset_pipeline_release/opensource/component_code/vendor/huawei/extra/build/build_script/kirin_kernel_release" "kernel/include/linux/rcu_sync.h"
	.file	146 "/mnt/disk/jenkins/ci/workspace/chipset_pipeline_release/opensource/component_code/vendor/huawei/extra/build/build_script/kirin_kernel_release" "kernel/include/linux/percpu-rwsem.h"
	.file	147 "/mnt/disk/jenkins/ci/workspace/chipset_pipeline_release/opensource/component_code/vendor/huawei/extra/build/build_script/kirin_kernel_release" "kernel/include/linux/rcuwait.h"
	.file	148 "/mnt/disk/jenkins/ci/workspace/chipset_pipeline_release/opensource/component_code/vendor/huawei/extra/build/build_script/kirin_kernel_release" "kernel/include/linux/uuid.h"
	.file	149 "/mnt/disk/jenkins/ci/workspace/chipset_pipeline_release/opensource/component_code/vendor/huawei/extra/build/build_script/kirin_kernel_release" "kernel/include/linux/list_lru.h"
	.file	150 "/mnt/disk/jenkins/ci/workspace/chipset_pipeline_release/opensource/component_code/vendor/huawei/extra/build/build_script/kirin_kernel_release" "kernel/include/linux/nfs_fs_i.h"
	.file	151 "/mnt/disk/jenkins/ci/workspace/chipset_pipeline_release/opensource/component_code/vendor/huawei/extra/build/build_script/kirin_kernel_release" "kernel/include/linux/lockref.h"
	.file	152 "/mnt/disk/jenkins/ci/workspace/chipset_pipeline_release/opensource/component_code/vendor/huawei/extra/build/build_script/kirin_kernel_release" "kernel/include/linux/mount.h"
	.file	153 "/mnt/disk/jenkins/ci/workspace/chipset_pipeline_release/opensource/component_code/vendor/huawei/extra/build/build_script/kirin_kernel_release" "kernel/include/linux/path.h"
	.file	154 "/mnt/disk/jenkins/ci/workspace/chipset_pipeline_release/opensource/component_code/vendor/huawei/extra/build/build_script/kirin_kernel_release" "kernel/include/linux/kobject_ns.h"
	.file	155 "/mnt/disk/jenkins/ci/workspace/chipset_pipeline_release/opensource/component_code/vendor/huawei/extra/build/build_script/kirin_kernel_release" "kernel/include/linux/device.h"
	.file	156 "/mnt/disk/jenkins/ci/workspace/chipset_pipeline_release/opensource/component_code/vendor/huawei/extra/build/build_script/kirin_kernel_release" "kernel/include/linux/pm.h"
	.file	157 "/mnt/disk/jenkins/ci/workspace/chipset_pipeline_release/opensource/component_code/vendor/huawei/extra/build/build_script/kirin_kernel_release" "kernel/include/linux/device/bus.h"
	.file	158 "/mnt/disk/jenkins/ci/workspace/chipset_pipeline_release/opensource/component_code/vendor/huawei/extra/build/build_script/kirin_kernel_release" "kernel/include/linux/device/driver.h"
	.file	159 "/mnt/disk/jenkins/ci/workspace/chipset_pipeline_release/opensource/component_code/vendor/huawei/extra/build/build_script/kirin_kernel_release" "kernel/include/linux/pm_wakeup.h"
	.file	160 "/mnt/disk/jenkins/ci/workspace/chipset_pipeline_release/opensource/component_code/vendor/huawei/extra/build/build_script/kirin_kernel_release" "kernel/include/linux/energy_model.h"
	.file	161 "/mnt/disk/jenkins/ci/workspace/chipset_pipeline_release/opensource/component_code/vendor/huawei/extra/build/build_script/kirin_kernel_release" "kernel/arch/arm64/include/asm/device.h"
	.file	162 "/mnt/disk/jenkins/ci/workspace/chipset_pipeline_release/opensource/component_code/vendor/huawei/extra/build/build_script/kirin_kernel_release" "kernel/include/linux/fwnode.h"
	.file	163 "/mnt/disk/jenkins/ci/workspace/chipset_pipeline_release/opensource/component_code/vendor/huawei/extra/build/build_script/kirin_kernel_release" "kernel/include/linux/device/class.h"
	.file	164 "/mnt/disk/jenkins/ci/workspace/chipset_pipeline_release/opensource/component_code/vendor/huawei/extra/build/build_script/kirin_kernel_release" "kernel/include/uapi/linux/blkzoned.h"
	.file	165 "/mnt/disk/jenkins/ci/workspace/chipset_pipeline_release/opensource/component_code/vendor/huawei/extra/build/build_script/kirin_kernel_release" "kernel/include/linux/blk-cgroup.h"
	.file	166 "/mnt/disk/jenkins/ci/workspace/chipset_pipeline_release/opensource/component_code/vendor/huawei/extra/build/build_script/kirin_kernel_release" "kernel/include/linux/mempool.h"
	.file	167 "/mnt/disk/jenkins/ci/workspace/chipset_pipeline_release/opensource/component_code/vendor/huawei/extra/build/build_script/kirin_kernel_release" "kernel/include/linux/smp.h"
	.file	168 "/mnt/disk/jenkins/ci/workspace/chipset_pipeline_release/opensource/component_code/vendor/huawei/extra/build/build_script/kirin_kernel_release" "kernel/include/linux/elevator.h"
	.file	169 "/mnt/disk/jenkins/ci/workspace/chipset_pipeline_release/opensource/component_code/vendor/huawei/extra/build/build_script/kirin_kernel_release" "kernel/include/linux/bsg.h"
	.file	170 "/mnt/disk/jenkins/ci/workspace/chipset_pipeline_release/opensource/component_code/vendor/huawei/extra/build/build_script/kirin_kernel_release" "kernel/include/uapi/linux/bsg.h"
	.file	171 "/mnt/disk/jenkins/ci/workspace/chipset_pipeline_release/opensource/component_code/vendor/huawei/extra/build/build_script/kirin_kernel_release" "kernel/include/linux/notifier.h"
	.file	172 "/mnt/disk/jenkins/ci/workspace/chipset_pipeline_release/opensource/component_code/vendor/huawei/extra/build/build_script/kirin_kernel_release" "kernel/include/linux/semaphore.h"
	.file	173 "/mnt/disk/jenkins/ci/workspace/chipset_pipeline_release/opensource/component_code/vendor/huawei/extra/build/build_script/kirin_kernel_release" "kernel/include/linux/proc_fs.h"
	.file	174 "/mnt/disk/jenkins/ci/workspace/chipset_pipeline_release/opensource/component_code/vendor/huawei/extra/build/build_script/kirin_kernel_release" "kernel/include/linux/buffer_head.h"
	.file	175 "/mnt/disk/jenkins/ci/workspace/chipset_pipeline_release/opensource/component_code/vendor/huawei/extra/build/build_script/kirin_kernel_release" "kernel/include/linux/stddef.h"
	.file	176 "/mnt/disk/jenkins/ci/workspace/chipset_pipeline_release/opensource/component_code/vendor/huawei/extra/build/build_script/kirin_kernel_release" "kernel/include/linux/jbd2.h"
	.file	177 "/mnt/disk/jenkins/ci/workspace/chipset_pipeline_release/opensource/component_code/vendor/huawei/extra/build/build_script/kirin_kernel_release" "kernel/include/linux/journal-head.h"
	.file	178 "/mnt/disk/jenkins/ci/workspace/chipset_pipeline_release/opensource/component_code/vendor/huawei/extra/build/build_script/kirin_kernel_release" "kernel/include/crypto/hash.h"
	.file	179 "/mnt/disk/jenkins/ci/workspace/chipset_pipeline_release/opensource/component_code/vendor/huawei/extra/build/build_script/kirin_kernel_release" "kernel/include/linux/crypto.h"
	.file	180 "/mnt/disk/jenkins/ci/workspace/chipset_pipeline_release/opensource/component_code/vendor/huawei/extra/build/build_script/kirin_kernel_release" "kernel/include/platform_include/basicplatform/linux/bootdevice/bootdevice.h"
	.file	181 "/mnt/disk/jenkins/ci/workspace/chipset_pipeline_release/opensource/component_code/vendor/huawei/extra/build/build_script/kirin_kernel_release" "kernel/include/linux/page-flags.h"
	.file	182 "/mnt/disk/jenkins/ci/workspace/chipset_pipeline_release/opensource/component_code/vendor/huawei/extra/build/build_script/kirin_kernel_release" "kernel/include/linux/slab.h"
	.globl	pch_map_block_first             // -- Begin function pch_map_block_first
	.p2align	2
	.type	pch_map_block_first,@function
pch_map_block_first:                    // @pch_map_block_first
.Lfunc_begin0:
	.loc	1 245 0                         // kernel/platform_source/basicplatform/fs/filemap_manager/pagecache_manage.c:245:0
	.cfi_sections .debug_frame
	.cfi_startproc
// %bb.0:
	.loc	1 248 12 prologue_end           // kernel/platform_source/basicplatform/fs/filemap_manager/pagecache_manage.c:248:12
	hint	#34
.Ltmp1:
	//DEBUG_VALUE: pch_map_block_first:map <- $x0
	//DEBUG_VALUE: pch_map_block_first:map <- $x0
	//DEBUG_VALUE: pch_map_block_first:block_in_file <- $x1
	//DEBUG_VALUE: pch_map_block_first:page_block <- $x2
	//DEBUG_VALUE: pch_map_block_first:page_block <- $x2
	//DEBUG_VALUE: pch_map_block_first:blocks_per_page <- $w3
	//DEBUG_VALUE: pch_map_block_first:blocks_per_page <- $w3
	//DEBUG_VALUE: pch_map_block_first:blocks <- $x4
	//DEBUG_VALUE: pch_map_block_first:blocks <- $x4
	ldr	w8, [x0, #16]
	//DEBUG_VALUE: pch_map_block_first:block_in_file <- $x1
	.loc	1 248 39 is_stmt 0              // kernel/platform_source/basicplatform/fs/filemap_manager/pagecache_manage.c:248:39
	tbz	w8, #4, .LBB0_9
.Ltmp2:
// %bb.1:
	//DEBUG_VALUE: pch_map_block_first:blocks <- $x4
	//DEBUG_VALUE: pch_map_block_first:page_block <- $x2
	//DEBUG_VALUE: pch_map_block_first:block_in_file <- $x1
	//DEBUG_VALUE: pch_map_block_first:map <- $x0
	//DEBUG_VALUE: pch_map_block_first:blocks_per_page <- $w3
	.loc	1 249 3 is_stmt 1               // kernel/platform_source/basicplatform/fs/filemap_manager/pagecache_manage.c:249:3
	ldr	x9, [x1]
	.loc	1 249 25 is_stmt 0              // kernel/platform_source/basicplatform/fs/filemap_manager/pagecache_manage.c:249:25
	ldr	w10, [x0, #8]
	.loc	1 249 32                        // kernel/platform_source/basicplatform/fs/filemap_manager/pagecache_manage.c:249:32
	cmp	x9, x10
	b.ls	.LBB0_9
.Ltmp3:
// %bb.2:
	//DEBUG_VALUE: pch_map_block_first:blocks <- $x4
	//DEBUG_VALUE: pch_map_block_first:page_block <- $x2
	//DEBUG_VALUE: pch_map_block_first:block_in_file <- $x1
	//DEBUG_VALUE: pch_map_block_first:map <- $x0
	//DEBUG_VALUE: pch_map_block_first:blocks_per_page <- $w3
	.loc	1 250 40 is_stmt 1              // kernel/platform_source/basicplatform/fs/filemap_manager/pagecache_manage.c:250:40
	ldr	w11, [x0, #12]
	.loc	1 250 33 is_stmt 0              // kernel/platform_source/basicplatform/fs/filemap_manager/pagecache_manage.c:250:33
	add	w12, w11, w10
.Ltmp4:
	.loc	1 248 6 is_stmt 1               // kernel/platform_source/basicplatform/fs/filemap_manager/pagecache_manage.c:248:6
	cmp	x9, x12
	b.hs	.LBB0_9
.Ltmp5:
// %bb.3:
	//DEBUG_VALUE: pch_map_block_first:blocks <- $x4
	//DEBUG_VALUE: pch_map_block_first:page_block <- $x2
	//DEBUG_VALUE: pch_map_block_first:block_in_file <- $x1
	//DEBUG_VALUE: pch_map_block_first:map <- $x0
	//DEBUG_VALUE: pch_map_block_first:blocks_per_page <- $w3
	.loc	1 251 25                        // kernel/platform_source/basicplatform/fs/filemap_manager/pagecache_manage.c:251:25
	sub	w10, w9, w10
.Ltmp6:
	//DEBUG_VALUE: map_offset <- $w10
	.loc	1 252 30                        // kernel/platform_source/basicplatform/fs/filemap_manager/pagecache_manage.c:252:30
	subs	w9, w11, w10
.Ltmp7:
	//DEBUG_VALUE: pch_map_block_first:relative_block <- 0
	//DEBUG_VALUE: last <- $w9
	.loc	1 255 8                         // kernel/platform_source/basicplatform/fs/filemap_manager/pagecache_manage.c:255:8
	b.eq	.LBB0_8
.Ltmp8:
// %bb.4:
	//DEBUG_VALUE: pch_map_block_first:blocks <- $x4
	//DEBUG_VALUE: pch_map_block_first:page_block <- $x2
	//DEBUG_VALUE: pch_map_block_first:block_in_file <- $x1
	//DEBUG_VALUE: pch_map_block_first:map <- $x0
	//DEBUG_VALUE: map_offset <- $w10
	//DEBUG_VALUE: last <- $w9
	//DEBUG_VALUE: pch_map_block_first:blocks_per_page <- $w3
	//DEBUG_VALUE: pch_map_block_first:relative_block <- 0
	.loc	1 0 8 is_stmt 0                 // kernel/platform_source/basicplatform/fs/filemap_manager/pagecache_manage.c:0:8
	mov	w8, w10
	.loc	1 255 8                         // kernel/platform_source/basicplatform/fs/filemap_manager/pagecache_manage.c:255:8
	mov	w9, w9
.Ltmp9:
.LBB0_5:                                // =>This Inner Loop Header: Depth=1
	//DEBUG_VALUE: pch_map_block_first:blocks <- $x4
	//DEBUG_VALUE: pch_map_block_first:page_block <- $x2
	//DEBUG_VALUE: pch_map_block_first:block_in_file <- $x1
	//DEBUG_VALUE: pch_map_block_first:map <- $x0
	//DEBUG_VALUE: pch_map_block_first:blocks_per_page <- $w3
	//DEBUG_VALUE: pch_map_block_first:relative_block <- undef
	.loc	1 260 8 is_stmt 1               // kernel/platform_source/basicplatform/fs/filemap_manager/pagecache_manage.c:260:8
	ldr	w10, [x2]
.Ltmp10:
	.loc	1 260 8 is_stmt 0               // kernel/platform_source/basicplatform/fs/filemap_manager/pagecache_manage.c:260:8
	cmp	w10, w3
	b.eq	.LBB0_9
.Ltmp11:
// %bb.6:                               //   in Loop: Header=BB0_5 Depth=1
	//DEBUG_VALUE: pch_map_block_first:blocks <- $x4
	//DEBUG_VALUE: pch_map_block_first:page_block <- $x2
	//DEBUG_VALUE: pch_map_block_first:block_in_file <- $x1
	//DEBUG_VALUE: pch_map_block_first:map <- $x0
	//DEBUG_VALUE: pch_map_block_first:blocks_per_page <- $w3
	.loc	1 262 31 is_stmt 1              // kernel/platform_source/basicplatform/fs/filemap_manager/pagecache_manage.c:262:31
	ldr	x11, [x0]
.Ltmp12:
	.loc	1 255 23                        // kernel/platform_source/basicplatform/fs/filemap_manager/pagecache_manage.c:255:23
	subs	x9, x9, #1                      // =1
.Ltmp13:
	.loc	1 262 4                         // kernel/platform_source/basicplatform/fs/filemap_manager/pagecache_manage.c:262:4
	add	x11, x8, x11
	.loc	1 262 24 is_stmt 0              // kernel/platform_source/basicplatform/fs/filemap_manager/pagecache_manage.c:262:24
	str	x11, [x4, x10, lsl #3]
	.loc	1 264 17 is_stmt 1              // kernel/platform_source/basicplatform/fs/filemap_manager/pagecache_manage.c:264:17
	ldr	w10, [x2]
.Ltmp14:
	.loc	1 255 23                        // kernel/platform_source/basicplatform/fs/filemap_manager/pagecache_manage.c:255:23
	add	x8, x8, #1                      // =1
.Ltmp15:
	.loc	1 264 17                        // kernel/platform_source/basicplatform/fs/filemap_manager/pagecache_manage.c:264:17
	add	w10, w10, #1                    // =1
	str	w10, [x2]
	.loc	1 265 20                        // kernel/platform_source/basicplatform/fs/filemap_manager/pagecache_manage.c:265:20
	ldr	x10, [x1]
	add	x10, x10, #1                    // =1
	str	x10, [x1]
.Ltmp16:
	//DEBUG_VALUE: pch_map_block_first:relative_block <- [DW_OP_plus_uconst 1, DW_OP_stack_value] undef
	.loc	1 255 8                         // kernel/platform_source/basicplatform/fs/filemap_manager/pagecache_manage.c:255:8
	b.ne	.LBB0_5
.Ltmp17:
// %bb.7:
	//DEBUG_VALUE: pch_map_block_first:blocks <- $x4
	//DEBUG_VALUE: pch_map_block_first:page_block <- $x2
	//DEBUG_VALUE: pch_map_block_first:block_in_file <- $x1
	//DEBUG_VALUE: pch_map_block_first:map <- $x0
	//DEBUG_VALUE: pch_map_block_first:blocks_per_page <- $w3
	.loc	1 257 18                        // kernel/platform_source/basicplatform/fs/filemap_manager/pagecache_manage.c:257:18
	ldr	w8, [x0, #16]
.Ltmp18:
.LBB0_8:
	//DEBUG_VALUE: pch_map_block_first:blocks <- $x4
	//DEBUG_VALUE: pch_map_block_first:page_block <- $x2
	//DEBUG_VALUE: pch_map_block_first:block_in_file <- $x1
	//DEBUG_VALUE: pch_map_block_first:map <- $x0
	//DEBUG_VALUE: pch_map_block_first:blocks_per_page <- $w3
	and	w8, w8, #0xffffffef
	str	w8, [x0, #16]
.Ltmp19:
.LBB0_9:
	//DEBUG_VALUE: pch_map_block_first:blocks <- $x4
	//DEBUG_VALUE: pch_map_block_first:page_block <- $x2
	//DEBUG_VALUE: pch_map_block_first:block_in_file <- $x1
	//DEBUG_VALUE: pch_map_block_first:map <- $x0
	//DEBUG_VALUE: pch_map_block_first:blocks_per_page <- $w3
	.loc	1 268 1                         // kernel/platform_source/basicplatform/fs/filemap_manager/pagecache_manage.c:268:1
	ret
.Ltmp20:
.Lfunc_end0:
	.size	pch_map_block_first, .Lfunc_end0-pch_map_block_first
	.cfi_endproc
                                        // -- End function
	.globl	pch_map_more_blocks             // -- Begin function pch_map_more_blocks
	.p2align	2
	.type	pch_map_more_blocks,@function
pch_map_more_blocks:                    // @pch_map_more_blocks
.Lfunc_begin1:
	.loc	1 271 0                         // kernel/platform_source/basicplatform/fs/filemap_manager/pagecache_manage.c:271:0
	.cfi_startproc
// %bb.0:
	//DEBUG_VALUE: pch_map_more_blocks:first_hole <- $w0
	//DEBUG_VALUE: pch_map_more_blocks:blocks_per_page <- $w1
	//DEBUG_VALUE: pch_map_more_blocks:page <- $x2
	//DEBUG_VALUE: pch_map_more_blocks:fully_mapped <- $w3
	//DEBUG_VALUE: pch_map_more_blocks:inode <- $x4
	//DEBUG_VALUE: pch_map_more_blocks:blkbits <- $w5
	//DEBUG_VALUE: pch_map_more_blocks:blkbits <- $w5
	//DEBUG_VALUE: pch_map_more_blocks:inode <- $x4
	//DEBUG_VALUE: pch_map_more_blocks:fully_mapped <- $w3
	//DEBUG_VALUE: pch_map_more_blocks:blocks_per_page <- $w1
	//DEBUG_VALUE: pch_map_more_blocks:first_hole <- $w0
	hint	#25
	.cfi_negate_ra_state
	stp	x29, x30, [sp, #-64]!           // 16-byte Folded Spill
	str	x23, [sp, #16]                  // 8-byte Folded Spill
	stp	x22, x21, [sp, #32]             // 16-byte Folded Spill
	stp	x20, x19, [sp, #48]             // 16-byte Folded Spill
	mov	x29, sp
	.cfi_def_cfa w29, 64
	.cfi_offset w19, -8
	.cfi_offset w20, -16
	.cfi_offset w21, -24
	.cfi_offset w22, -32
	.cfi_offset w23, -48
	.cfi_offset w30, -56
	.cfi_offset w29, -64
.Ltmp21:
	.loc	1 272 6 prologue_end            // kernel/platform_source/basicplatform/fs/filemap_manager/pagecache_manage.c:272:6
	cmp	w0, w1
	mov	x19, x2
.Ltmp22:
	//DEBUG_VALUE: pch_map_more_blocks:page <- $x19
	//DEBUG_VALUE: pch_map_more_blocks:page <- $x19
	b.ne	.LBB1_3
.Ltmp23:
// %bb.1:
	//DEBUG_VALUE: pch_map_more_blocks:page <- $x19
	//DEBUG_VALUE: pch_map_more_blocks:inode <- $x4
	//DEBUG_VALUE: pch_map_more_blocks:blkbits <- $w5
	//DEBUG_VALUE: pch_map_more_blocks:fully_mapped <- $w3
	//DEBUG_VALUE: pch_map_more_blocks:blocks_per_page <- $w1
	//DEBUG_VALUE: pch_map_more_blocks:first_hole <- $w0
	.loc	1 283 13                        // kernel/platform_source/basicplatform/fs/filemap_manager/pagecache_manage.c:283:13
	cbz	w3, .LBB1_10
.Ltmp24:
// %bb.2:
	//DEBUG_VALUE: pch_map_more_blocks:page <- $x19
	//DEBUG_VALUE: pch_map_more_blocks:inode <- $x4
	//DEBUG_VALUE: pch_map_more_blocks:blkbits <- $w5
	//DEBUG_VALUE: pch_map_more_blocks:fully_mapped <- $w3
	//DEBUG_VALUE: pch_map_more_blocks:blocks_per_page <- $w1
	//DEBUG_VALUE: pch_map_more_blocks:first_hole <- $w0
	//DEBUG_VALUE: SetPageMappedToDisk:page <- $x19
	//DEBUG_VALUE: compound_head:page <- $x19
	.loc	181 228 23                      // kernel/include/linux/page-flags.h:228:23
	ldr	x8, [x19, #8]
.Ltmp25:
	//DEBUG_VALUE: compound_head:head <- $x8
	.loc	181 230 6                       // kernel/include/linux/page-flags.h:230:6
	sub	x9, x8, #1                      // =1
	tst	x8, #0x1
	csel	x8, x19, x9, eq
.Ltmp26:
	//DEBUG_VALUE: __ll_sc_atomic64_or:i <- 262144
	//DEBUG_VALUE: arch_atomic64_or:i <- 262144
	//DEBUG_VALUE: atomic64_or:i <- 262144
	//DEBUG_VALUE: atomic_long_or:i <- 262144
	//DEBUG_VALUE: set_bit:nr <- 18
	//DEBUG_VALUE: __ll_sc_atomic64_or:v <- $x8
	//DEBUG_VALUE: arch_atomic64_or:v <- $x8
	//DEBUG_VALUE: atomic64_or:v <- $x8
	//DEBUG_VALUE: atomic_long_or:v <- $x8
	//DEBUG_VALUE: set_bit:p <- $x8
	.file	183 "/mnt/disk/jenkins/ci/workspace/chipset_pipeline_release/opensource/component_code/vendor/huawei/extra/build/build_script/kirin_kernel_release" "kernel/arch/arm64/include/asm/atomic_ll_sc.h"
	.loc	183 222 1                       // kernel/arch/arm64/include/asm/atomic_ll_sc.h:222:1
	//APP
	// atomic64_or
	prfm	pstl1strm, [x8]
.Ltmp27:
	ldxr	x9, [x8]
	orr	x9, x9, #0x40000
	stxr	w10, x9, [x8]
	cbnz	w10, .Ltmp27
	//NO_APP
.Ltmp28:
	//DEBUG_VALUE: __ll_sc_atomic64_or:tmp <- undef
	//DEBUG_VALUE: __ll_sc_atomic64_or:result <- undef
	.loc	183 0 1 is_stmt 0               // kernel/arch/arm64/include/asm/atomic_ll_sc.h:0:1
	b	.LBB1_10
.Ltmp29:
.LBB1_3:
	//DEBUG_VALUE: pch_map_more_blocks:page <- $x19
	//DEBUG_VALUE: pch_map_more_blocks:inode <- $x4
	//DEBUG_VALUE: pch_map_more_blocks:blkbits <- $w5
	//DEBUG_VALUE: pch_map_more_blocks:fully_mapped <- $w3
	//DEBUG_VALUE: pch_map_more_blocks:blocks_per_page <- $w1
	//DEBUG_VALUE: pch_map_more_blocks:first_hole <- $w0
	.file	184 "/mnt/disk/jenkins/ci/workspace/chipset_pipeline_release/opensource/component_code/vendor/huawei/extra/build/build_script/kirin_kernel_release" "kernel/arch/arm64/include/asm/current.h"
	.loc	184 19 2 is_stmt 1              // kernel/arch/arm64/include/asm/current.h:19:2
	//APP
	mrs	x22, SP_EL0
	//NO_APP
.Ltmp30:
	//DEBUG_VALUE: get_current:sp_el0 <- $x22
	//DEBUG_VALUE: get_current:sp_el0 <- $x22
	//DEBUG_VALUE: get_current:sp_el0 <- $x22
	.file	185 "/mnt/disk/jenkins/ci/workspace/chipset_pipeline_release/opensource/component_code/vendor/huawei/extra/build/build_script/kirin_kernel_release" "kernel/arch/arm64/include/asm/preempt.h"
	.loc	185 67 11                       // kernel/arch/arm64/include/asm/preempt.h:67:11
	ldr	w8, [x22, #16]
.Ltmp31:
	//DEBUG_VALUE: __preempt_count_add:pc <- $w8
	.loc	185 0 11 is_stmt 0              // kernel/arch/arm64/include/asm/preempt.h:0:11
	mov	x20, x4
.Ltmp32:
	//DEBUG_VALUE: pch_map_more_blocks:inode <- $x20
	//DEBUG_VALUE: pch_map_more_blocks:inode <- $x20
	mov	w21, w0
.Ltmp33:
	//DEBUG_VALUE: pch_map_more_blocks:first_hole <- $w21
	.loc	1 273 38 is_stmt 1              // kernel/platform_source/basicplatform/fs/filemap_manager/pagecache_manage.c:273:38
	lsl	w23, w0, w5
.Ltmp34:
	//DEBUG_VALUE: __preempt_count_add:val <- 1
	//DEBUG_VALUE: kmap_atomic:page <- $x19
	//DEBUG_VALUE: zero_user_segments:end2 <- 0
	//DEBUG_VALUE: zero_user_segments:start2 <- 0
	//DEBUG_VALUE: zero_user_segments:end1 <- 4096
	//DEBUG_VALUE: zero_user_segments:page <- $x19
	//DEBUG_VALUE: zero_user_segment:end <- 4096
	//DEBUG_VALUE: zero_user_segment:page <- $x19
	//DEBUG_VALUE: zero_user_segments:start1 <- $w23
	//DEBUG_VALUE: zero_user_segment:start <- $w23
	.loc	185 68 5                        // kernel/arch/arm64/include/asm/preempt.h:68:5
	add	w8, w8, #1                      // =1
.Ltmp35:
	//DEBUG_VALUE: __preempt_count_add:pc <- $w8
	.loc	185 69 2                        // kernel/arch/arm64/include/asm/preempt.h:69:2
	str	w8, [x22, #16]
.Ltmp36:
	.file	186 "/mnt/disk/jenkins/ci/workspace/chipset_pipeline_release/opensource/component_code/vendor/huawei/extra/build/build_script/kirin_kernel_release" "kernel/include/linux/highmem.h"
	.loc	186 167 2                       // kernel/include/linux/highmem.h:167:2
	//APP
	//NO_APP
.Ltmp37:
	.file	187 "/mnt/disk/jenkins/ci/workspace/chipset_pipeline_release/opensource/component_code/vendor/huawei/extra/build/build_script/kirin_kernel_release" "kernel/include/linux/uaccess.h"
	.loc	187 229 29                      // kernel/include/linux/uaccess.h:229:29
	ldr	w8, [x22, #3488]
.Ltmp38:
	add	w8, w8, #1                      // =1
	str	w8, [x22, #3488]
.Ltmp39:
	.loc	187 251 2                       // kernel/include/linux/uaccess.h:251:2
	//APP
	//NO_APP
.Ltmp40:
	//DEBUG_VALUE: test_bit:nr <- 25
	//DEBUG_VALUE: test_bit:addr <- $x19
	//DEBUG_VALUE: PageLB:page <- $x19
	.file	188 "/mnt/disk/jenkins/ci/workspace/chipset_pipeline_release/opensource/component_code/vendor/huawei/extra/build/build_script/kirin_kernel_release" "kernel/include/asm-generic/bitops/non-atomic.h"
	.loc	188 106 16                      // kernel/include/asm-generic/bitops/non-atomic.h:106:16
	ldr	x8, [x19]
.Ltmp41:
	.loc	186 171 6                       // kernel/include/linux/highmem.h:171:6
	tbnz	w8, #25, .LBB1_5
.Ltmp42:
// %bb.4:
	//DEBUG_VALUE: pch_map_more_blocks:inode <- $x20
	//DEBUG_VALUE: zero_user_segment:page <- $x19
	//DEBUG_VALUE: zero_user_segments:page <- $x19
	//DEBUG_VALUE: kmap_atomic:page <- $x19
	//DEBUG_VALUE: pch_map_more_blocks:page <- $x19
	//DEBUG_VALUE: zero_user_segment:start <- $w23
	//DEBUG_VALUE: zero_user_segments:start1 <- $w23
	//DEBUG_VALUE: pch_map_more_blocks:first_hole <- $w21
	//DEBUG_VALUE: pch_map_more_blocks:blkbits <- $w5
	//DEBUG_VALUE: pch_map_more_blocks:fully_mapped <- $w3
	//DEBUG_VALUE: pch_map_more_blocks:blocks_per_page <- $w1
	//DEBUG_VALUE: zero_user_segment:end <- 4096
	//DEBUG_VALUE: zero_user_segments:end1 <- 4096
	//DEBUG_VALUE: zero_user_segments:start2 <- 0
	//DEBUG_VALUE: zero_user_segments:end2 <- 0
	.loc	186 0 6 is_stmt 0               // kernel/include/linux/highmem.h:0:6
	mov	x8, #-274877906944
	movk	x8, #2048, lsl #16
.Ltmp43:
	//DEBUG_VALUE: __idx <- [DW_OP_plus_uconst 4297064448, DW_OP_constu 6, DW_OP_shr, DW_OP_stack_value] $x19
	//DEBUG_VALUE: __page <- $x19
	//DEBUG_VALUE: lowmem_page_address:page <- $x19
	.loc	64 1647 9 is_stmt 1             // kernel/include/linux/mm.h:1647:9
	add	x8, x8, x19, lsl #6
	and	x0, x8, #0xfffffffffffff000
.Ltmp44:
	//DEBUG_VALUE: __addr <- $x0
	//DEBUG_VALUE: zero_user_segments:kaddr <- $x0
	.loc	186 305 6                       // kernel/include/linux/highmem.h:305:6
	cmp	w23, #4095                      // =4095
	b.ls	.LBB1_6
	b	.LBB1_7
.Ltmp45:
.LBB1_5:
	//DEBUG_VALUE: pch_map_more_blocks:inode <- $x20
	//DEBUG_VALUE: zero_user_segment:page <- $x19
	//DEBUG_VALUE: zero_user_segments:page <- $x19
	//DEBUG_VALUE: kmap_atomic:page <- $x19
	//DEBUG_VALUE: pch_map_more_blocks:page <- $x19
	//DEBUG_VALUE: zero_user_segment:start <- $w23
	//DEBUG_VALUE: zero_user_segments:start1 <- $w23
	//DEBUG_VALUE: pch_map_more_blocks:first_hole <- $w21
	//DEBUG_VALUE: pch_map_more_blocks:blkbits <- $w5
	//DEBUG_VALUE: pch_map_more_blocks:fully_mapped <- $w3
	//DEBUG_VALUE: pch_map_more_blocks:blocks_per_page <- $w1
	//DEBUG_VALUE: zero_user_segment:end <- 4096
	//DEBUG_VALUE: zero_user_segments:end1 <- 4096
	//DEBUG_VALUE: zero_user_segments:start2 <- 0
	//DEBUG_VALUE: zero_user_segments:end2 <- 0
	.loc	186 175 10                      // kernel/include/linux/highmem.h:175:10
	mov	x0, x19
	bl	lb_page_to_virt
.Ltmp46:
	//DEBUG_VALUE: pch_map_more_blocks:blkbits <- [DW_OP_LLVM_entry_value 1] $w5
	//DEBUG_VALUE: pch_map_more_blocks:fully_mapped <- [DW_OP_LLVM_entry_value 1] $w3
	//DEBUG_VALUE: pch_map_more_blocks:blocks_per_page <- [DW_OP_LLVM_entry_value 1] $w1
	//DEBUG_VALUE: zero_user_segments:kaddr <- $x0
	.loc	186 305 6                       // kernel/include/linux/highmem.h:305:6
	cmp	w23, #4095                      // =4095
	b.hi	.LBB1_7
.Ltmp47:
.LBB1_6:
	//DEBUG_VALUE: pch_map_more_blocks:inode <- $x20
	//DEBUG_VALUE: zero_user_segment:page <- $x19
	//DEBUG_VALUE: zero_user_segments:page <- $x19
	//DEBUG_VALUE: pch_map_more_blocks:page <- $x19
	//DEBUG_VALUE: zero_user_segments:kaddr <- $x0
	//DEBUG_VALUE: zero_user_segment:start <- $w23
	//DEBUG_VALUE: zero_user_segments:start1 <- $w23
	//DEBUG_VALUE: pch_map_more_blocks:first_hole <- $w21
	//DEBUG_VALUE: zero_user_segment:end <- 4096
	//DEBUG_VALUE: zero_user_segments:end1 <- 4096
	//DEBUG_VALUE: zero_user_segments:start2 <- 0
	//DEBUG_VALUE: zero_user_segments:end2 <- 0
	.loc	186 0 6 is_stmt 0               // kernel/include/linux/highmem.h:0:6
	mov	w8, #4096
.Ltmp48:
	.loc	186 306 16 is_stmt 1            // kernel/include/linux/highmem.h:306:16
	add	x0, x0, w23, uxtw
.Ltmp49:
	.loc	186 306 34 is_stmt 0            // kernel/include/linux/highmem.h:306:34
	sub	w2, w8, w23
	.loc	186 306 3                       // kernel/include/linux/highmem.h:306:3
	mov	w1, wzr
	bl	memset
.Ltmp50:
.LBB1_7:
	//DEBUG_VALUE: pch_map_more_blocks:inode <- $x20
	//DEBUG_VALUE: zero_user_segment:page <- $x19
	//DEBUG_VALUE: zero_user_segments:page <- $x19
	//DEBUG_VALUE: pch_map_more_blocks:page <- $x19
	//DEBUG_VALUE: zero_user_segment:start <- $w23
	//DEBUG_VALUE: zero_user_segments:start1 <- $w23
	//DEBUG_VALUE: pch_map_more_blocks:first_hole <- $w21
	//DEBUG_VALUE: zero_user_segment:end <- 4096
	//DEBUG_VALUE: zero_user_segments:end1 <- 4096
	//DEBUG_VALUE: zero_user_segments:start2 <- 0
	//DEBUG_VALUE: zero_user_segments:end2 <- 0
	.loc	187 260 2 is_stmt 1             // kernel/include/linux/uaccess.h:260:2
	//APP
	//NO_APP
.Ltmp51:
	//DEBUG_VALUE: get_current:sp_el0 <- $x22
	.loc	187 234 29                      // kernel/include/linux/uaccess.h:234:29
	ldr	w8, [x22, #3488]
	sub	w8, w8, #1                      // =1
	str	w8, [x22, #3488]
.Ltmp52:
	.loc	186 311 2                       // kernel/include/linux/highmem.h:311:2
	//APP
	//NO_APP
.Ltmp53:
	//DEBUG_VALUE: get_current:sp_el0 <- $x22
	.loc	185 84 11                       // kernel/arch/arm64/include/asm/preempt.h:84:11
	ldr	x8, [x22, #16]
.Ltmp54:
	//DEBUG_VALUE: __preempt_count_dec_and_test:pc <- $x8
	.loc	185 88 2                        // kernel/arch/arm64/include/asm/preempt.h:88:2
	subs	x8, x8, #1                      // =1
.Ltmp55:
	//DEBUG_VALUE: __preempt_count_dec_and_test:pc <- $x8
	str	w8, [x22, #16]
.Ltmp56:
	//DEBUG_VALUE: __preempt_count_dec_and_test:ti <- $x22
	.loc	185 97 13                       // kernel/arch/arm64/include/asm/preempt.h:97:13
	b.eq	.LBB1_16
.Ltmp57:
// %bb.8:
	//DEBUG_VALUE: __preempt_count_dec_and_test:ti <- $x22
	//DEBUG_VALUE: pch_map_more_blocks:inode <- $x20
	//DEBUG_VALUE: zero_user_segment:page <- $x19
	//DEBUG_VALUE: zero_user_segments:page <- $x19
	//DEBUG_VALUE: pch_map_more_blocks:page <- $x19
	//DEBUG_VALUE: __preempt_count_dec_and_test:pc <- $x8
	//DEBUG_VALUE: zero_user_segment:start <- $w23
	//DEBUG_VALUE: zero_user_segments:start1 <- $w23
	//DEBUG_VALUE: pch_map_more_blocks:first_hole <- $w21
	//DEBUG_VALUE: zero_user_segment:end <- 4096
	//DEBUG_VALUE: zero_user_segments:end1 <- 4096
	//DEBUG_VALUE: zero_user_segments:start2 <- 0
	//DEBUG_VALUE: zero_user_segments:end2 <- 0
	.loc	185 97 17 is_stmt 0             // kernel/arch/arm64/include/asm/preempt.h:97:17
	ldr	x8, [x22, #16]
.Ltmp58:
	.loc	186 311 2 is_stmt 1             // kernel/include/linux/highmem.h:311:2
	cbz	x8, .LBB1_16
.Ltmp59:
.LBB1_9:
	//DEBUG_VALUE: pch_map_more_blocks:inode <- $x20
	//DEBUG_VALUE: zero_user_segment:page <- $x19
	//DEBUG_VALUE: zero_user_segments:page <- $x19
	//DEBUG_VALUE: pch_map_more_blocks:page <- $x19
	//DEBUG_VALUE: zero_user_segment:start <- $w23
	//DEBUG_VALUE: zero_user_segments:start1 <- $w23
	//DEBUG_VALUE: pch_map_more_blocks:first_hole <- $w21
	//DEBUG_VALUE: zero_user_segment:end <- 4096
	//DEBUG_VALUE: zero_user_segments:end1 <- 4096
	//DEBUG_VALUE: zero_user_segments:start2 <- 0
	//DEBUG_VALUE: zero_user_segments:end2 <- 0
	.loc	186 312 2                       // kernel/include/linux/highmem.h:312:2
	mov	x0, x19
	bl	flush_dcache_page
.Ltmp60:
	.loc	1 275 7                         // kernel/platform_source/basicplatform/fs/filemap_manager/pagecache_manage.c:275:7
	cbz	w21, .LBB1_12
.Ltmp61:
.LBB1_10:
	//DEBUG_VALUE: pch_map_more_blocks:page <- $x19
	.loc	1 0 0 is_stmt 0                 // kernel/platform_source/basicplatform/fs/filemap_manager/pagecache_manage.c:0:0
	mov	w0, wzr
.Ltmp62:
.LBB1_11:
	//DEBUG_VALUE: pch_map_more_blocks:page <- $x19
	.loc	1 287 1 is_stmt 1               // kernel/platform_source/basicplatform/fs/filemap_manager/pagecache_manage.c:287:1
	ldp	x20, x19, [sp, #48]             // 16-byte Folded Reload
.Ltmp63:
	//DEBUG_VALUE: pch_map_more_blocks:page <- [DW_OP_LLVM_entry_value 1] $x2
	ldp	x22, x21, [sp, #32]             // 16-byte Folded Reload
	ldr	x23, [sp, #16]                  // 8-byte Folded Reload
	ldp	x29, x30, [sp], #64             // 16-byte Folded Reload
	hint	#29
	ret
.Ltmp64:
.LBB1_12:
	//DEBUG_VALUE: pch_map_more_blocks:inode <- $x20
	//DEBUG_VALUE: pch_map_more_blocks:page <- $x19
	//DEBUG_VALUE: pch_map_more_blocks:first_hole <- $w21
	.loc	1 276 38                        // kernel/platform_source/basicplatform/fs/filemap_manager/pagecache_manage.c:276:38
	ldr	x1, [x19, #32]
	.loc	1 276 8 is_stmt 0               // kernel/platform_source/basicplatform/fs/filemap_manager/pagecache_manage.c:276:8
	mov	x0, x20
	bl	ext4_need_verity
.Ltmp65:
	.loc	1 276 45                        // kernel/platform_source/basicplatform/fs/filemap_manager/pagecache_manage.c:276:45
	tbz	w0, #0, .LBB1_14
.Ltmp66:
// %bb.13:
	//DEBUG_VALUE: pch_map_more_blocks:inode <- $x20
	//DEBUG_VALUE: pch_map_more_blocks:page <- $x19
	//DEBUG_VALUE: pch_map_more_blocks:first_hole <- $w21
	.loc	1 277 9 is_stmt 1               // kernel/platform_source/basicplatform/fs/filemap_manager/pagecache_manage.c:277:9
	mov	x0, x19
	bl	fsverity_verify_page
.Ltmp67:
	.loc	1 276 8                         // kernel/platform_source/basicplatform/fs/filemap_manager/pagecache_manage.c:276:8
	tbz	w0, #0, .LBB1_15
.Ltmp68:
.LBB1_14:
	//DEBUG_VALUE: pch_map_more_blocks:inode <- $x20
	//DEBUG_VALUE: pch_map_more_blocks:page <- $x19
	//DEBUG_VALUE: pch_map_more_blocks:first_hole <- $w21
	//DEBUG_VALUE: SetPageUptodate:page <- $x19
	.loc	181 659 2                       // kernel/include/linux/page-flags.h:659:2
	//APP
	dmb	ishst
	//NO_APP
.Ltmp69:
	//DEBUG_VALUE: __ll_sc_atomic64_or:i <- 4
	//DEBUG_VALUE: arch_atomic64_or:i <- 4
	//DEBUG_VALUE: atomic64_or:i <- 4
	//DEBUG_VALUE: atomic_long_or:i <- 4
	//DEBUG_VALUE: set_bit:p <- $x19
	//DEBUG_VALUE: set_bit:nr <- 2
	.loc	183 222 1                       // kernel/arch/arm64/include/asm/atomic_ll_sc.h:222:1
	//APP
	// atomic64_or
	prfm	pstl1strm, [x19]
.Ltmp70:
	ldxr	x8, [x19]
	orr	x8, x8, #0x4
	stxr	w9, x8, [x19]
	cbnz	w9, .Ltmp70
	//NO_APP
.Ltmp71:
	//DEBUG_VALUE: __ll_sc_atomic64_or:tmp <- undef
	//DEBUG_VALUE: __ll_sc_atomic64_or:result <- undef
	.loc	1 280 4                         // kernel/platform_source/basicplatform/fs/filemap_manager/pagecache_manage.c:280:4
	mov	x0, x19
	bl	unlock_page
.Ltmp72:
	.loc	1 0 4 is_stmt 0                 // kernel/platform_source/basicplatform/fs/filemap_manager/pagecache_manage.c:0:4
	mov	w0, #1
	//DEBUG_VALUE: __ll_sc_atomic64_or:v <- undef
	//DEBUG_VALUE: arch_atomic64_or:v <- undef
	//DEBUG_VALUE: atomic64_or:v <- undef
	//DEBUG_VALUE: atomic_long_or:v <- undef
.Ltmp73:
	//DEBUG_VALUE: set_bit:p <- undef
	b	.LBB1_11
.Ltmp74:
.LBB1_15:
	//DEBUG_VALUE: pch_map_more_blocks:inode <- $x20
	//DEBUG_VALUE: pch_map_more_blocks:page <- $x19
	//DEBUG_VALUE: pch_map_more_blocks:first_hole <- $w21
	mov	w0, #2
	b	.LBB1_11
.Ltmp75:
.LBB1_16:
	//DEBUG_VALUE: pch_map_more_blocks:inode <- $x20
	//DEBUG_VALUE: zero_user_segment:page <- $x19
	//DEBUG_VALUE: zero_user_segments:page <- $x19
	//DEBUG_VALUE: pch_map_more_blocks:page <- $x19
	//DEBUG_VALUE: zero_user_segment:start <- $w23
	//DEBUG_VALUE: zero_user_segments:start1 <- $w23
	//DEBUG_VALUE: pch_map_more_blocks:first_hole <- $w21
	//DEBUG_VALUE: zero_user_segment:end <- 4096
	//DEBUG_VALUE: zero_user_segments:end1 <- 4096
	//DEBUG_VALUE: zero_user_segments:start2 <- 0
	//DEBUG_VALUE: zero_user_segments:end2 <- 0
	.loc	186 311 2 is_stmt 1             // kernel/include/linux/highmem.h:311:2
	bl	preempt_schedule
.Ltmp76:
	.loc	186 0 2 is_stmt 0               // kernel/include/linux/highmem.h:0:2
	b	.LBB1_9
.Ltmp77:
.Lfunc_end1:
	.size	pch_map_more_blocks, .Lfunc_end1-pch_map_more_blocks
	.cfi_endproc
	.file	189 "/mnt/disk/jenkins/ci/workspace/chipset_pipeline_release/opensource/component_code/vendor/huawei/extra/build/build_script/kirin_kernel_release" "kernel/arch/arm64/include/asm/atomic.h"
	.file	190 "/mnt/disk/jenkins/ci/workspace/chipset_pipeline_release/opensource/component_code/vendor/huawei/extra/build/build_script/kirin_kernel_release" "kernel/include/asm-generic/atomic-instrumented.h"
	.file	191 "/mnt/disk/jenkins/ci/workspace/chipset_pipeline_release/opensource/component_code/vendor/huawei/extra/build/build_script/kirin_kernel_release" "kernel/include/asm-generic/bitops/atomic.h"
	.file	192 "/mnt/disk/jenkins/ci/workspace/chipset_pipeline_release/opensource/component_code/vendor/huawei/extra/build/build_script/kirin_kernel_release" "kernel/arch/arm64/include/asm/cacheflush.h"
                                        // -- End function
	.globl	pch_set_bio                     // -- Begin function pch_set_bio
	.p2align	2
	.type	pch_set_bio,@function
pch_set_bio:                            // @pch_set_bio
.Lfunc_begin2:
	.loc	1 291 0 is_stmt 1               // kernel/platform_source/basicplatform/fs/filemap_manager/pagecache_manage.c:291:0
	.cfi_startproc
// %bb.0:
	//DEBUG_VALUE: pch_set_bio:bio <- $x0
	//DEBUG_VALUE: pch_set_bio:inode <- $x2
	//DEBUG_VALUE: pch_set_bio:bdev <- $x5
	//DEBUG_VALUE: pch_set_bio:nr_pages <- $w6
	//DEBUG_VALUE: pch_set_bio:page <- $x7
	hint	#25
	.cfi_negate_ra_state
	stp	x29, x30, [sp, #-64]!           // 16-byte Folded Spill
	str	x23, [sp, #16]                  // 8-byte Folded Spill
	stp	x22, x21, [sp, #32]             // 16-byte Folded Spill
	stp	x20, x19, [sp, #48]             // 16-byte Folded Spill
	mov	x29, sp
	.cfi_def_cfa w29, 64
	.cfi_offset w19, -8
	.cfi_offset w20, -16
	.cfi_offset w21, -24
	.cfi_offset w22, -32
	.cfi_offset w23, -48
	.cfi_offset w30, -56
	.cfi_offset w29, -64
.Ltmp78:
	//DEBUG_VALUE: __UNIQUE_ID___x432 <- $w6
	ldr	x23, [x29, #64]
.Ltmp79:
	//DEBUG_VALUE: __UNIQUE_ID___y433 <- 256
	//DEBUG_VALUE: pch_set_bio:blkbits <- undef
	//DEBUG_VALUE: pch_set_bio:blocks <- undef
	//DEBUG_VALUE: pch_set_bio:next_block <- undef
	//DEBUG_VALUE: __UNIQUE_ID___x432 <- $w6
	//DEBUG_VALUE: pch_set_bio:rac <- [DW_OP_plus_uconst 64] [$fp+0]
	//DEBUG_VALUE: pch_set_bio:page <- $x21
	//DEBUG_VALUE: pch_set_bio:nr_pages <- $w6
	//DEBUG_VALUE: pch_set_bio:bdev <- $x20
	//DEBUG_VALUE: pch_set_bio:inode <- $x22
	//DEBUG_VALUE: pch_set_bio:bio <- $x19
	mov	x22, x2
.Ltmp80:
	.loc	1 297 3 prologue_end            // kernel/platform_source/basicplatform/fs/filemap_manager/pagecache_manage.c:297:3
	cmp	w6, #256                        // =256
	mov	w8, #256
.Ltmp81:
	.loc	129 410 9                       // kernel/include/linux/bio.h:410:9
	adrp	x2, fs_bio_set
	mov	x19, x0
.Ltmp82:
	.loc	1 297 3                         // kernel/platform_source/basicplatform/fs/filemap_manager/pagecache_manage.c:297:3
	csel	w1, w6, w8, lt
.Ltmp83:
	//DEBUG_VALUE: bio_alloc:gfp_mask <- 3264
	//DEBUG_VALUE: bio_alloc:nr_iovecs <- $w1
	.loc	129 410 9                       // kernel/include/linux/bio.h:410:9
	add	x2, x2, :lo12:fs_bio_set
	mov	w0, #3264
	mov	x21, x7
.Ltmp84:
	.loc	129 0 9 is_stmt 0               // kernel/include/linux/bio.h:0:9
	mov	x20, x5
.Ltmp85:
	.loc	129 410 9                       // kernel/include/linux/bio.h:410:9
	bl	bio_alloc_bioset
.Ltmp86:
	//DEBUG_VALUE: pch_set_bio:nr_pages <- [DW_OP_LLVM_entry_value 1] $w6
	.loc	1 296 7 is_stmt 1               // kernel/platform_source/basicplatform/fs/filemap_manager/pagecache_manage.c:296:7
	str	x0, [x19]
	.loc	1 300 48                        // kernel/platform_source/basicplatform/fs/filemap_manager/pagecache_manage.c:300:48
	ldr	x2, [x21, #32]
	.loc	1 300 2 is_stmt 0               // kernel/platform_source/basicplatform/fs/filemap_manager/pagecache_manage.c:300:2
	mov	x1, x22
.Ltmp87:
	//DEBUG_VALUE: pch_set_bio:inode <- $x1
	bl	ext4_set_bio_post_read_ctx
.Ltmp88:
	.loc	1 301 2 is_stmt 1               // kernel/platform_source/basicplatform/fs/filemap_manager/pagecache_manage.c:301:2
	ldr	x8, [x19]
	ldr	x10, [x20, #176]
	ldr	x9, [x8, #8]
.Ltmp89:
	.loc	1 301 2 is_stmt 0               // kernel/platform_source/basicplatform/fs/filemap_manager/pagecache_manage.c:301:2
	cmp	x9, x10
	b.eq	.LBB2_2
.Ltmp90:
// %bb.1:
	//DEBUG_VALUE: pch_set_bio:rac <- [DW_OP_plus_uconst 64] [$fp+0]
	//DEBUG_VALUE: pch_set_bio:nr_pages <- [DW_OP_LLVM_entry_value 1] $w6
	//DEBUG_VALUE: bio_clear_flag:bio <- $x8
	//DEBUG_VALUE: bio_clear_flag:bit <- 7
	.loc	129 250 16 is_stmt 1            // kernel/include/linux/bio.h:250:16
	ldrh	w9, [x8, #20]
	and	w9, w9, #0xffffff7f
	strh	w9, [x8, #20]
.Ltmp91:
	.loc	1 301 2                         // kernel/platform_source/basicplatform/fs/filemap_manager/pagecache_manage.c:301:2
	ldr	x9, [x20, #176]
	ldr	x8, [x19]
.Ltmp92:
.LBB2_2:
	//DEBUG_VALUE: pch_set_bio:rac <- [DW_OP_plus_uconst 64] [$fp+0]
	//DEBUG_VALUE: pch_set_bio:nr_pages <- [DW_OP_LLVM_entry_value 1] $w6
	str	x9, [x8, #8]
	ldrb	w8, [x20, #128]
	ldr	x9, [x19]
	strb	w8, [x9, #27]
	ldr	x0, [x19]
	bl	bio_associate_blkg
.Ltmp93:
	.loc	1 302 19                        // kernel/platform_source/basicplatform/fs/filemap_manager/pagecache_manage.c:302:19
	ldr	x8, [x19]
	.loc	1 303 5                         // kernel/platform_source/basicplatform/fs/filemap_manager/pagecache_manage.c:303:5
	cmp	x23, #0                         // =0
	.loc	1 304 1                         // kernel/platform_source/basicplatform/fs/filemap_manager/pagecache_manage.c:304:1
	ldp	x20, x19, [sp, #48]             // 16-byte Folded Reload
	ldp	x22, x21, [sp, #32]             // 16-byte Folded Reload
	ldr	x23, [sp, #16]                  // 8-byte Folded Reload
	.loc	1 303 5                         // kernel/platform_source/basicplatform/fs/filemap_manager/pagecache_manage.c:303:5
	cset	w9, ne
	lsl	w9, w9, #19
.Ltmp94:
	//DEBUG_VALUE: bio_set_op_attrs:op <- 0
	//DEBUG_VALUE: bio_set_op_attrs:bio <- $x8
	//DEBUG_VALUE: bio_set_op_attrs:op_flags <- $w9
	.loc	7 702 14                        // kernel/include/linux/blk_types.h:702:14
	str	w9, [x8, #16]
.Ltmp95:
	.loc	1 304 1                         // kernel/platform_source/basicplatform/fs/filemap_manager/pagecache_manage.c:304:1
	ldp	x29, x30, [sp], #64             // 16-byte Folded Reload
	hint	#29
	ret
.Ltmp96:
.Lfunc_end2:
	.size	pch_set_bio, .Lfunc_end2-pch_set_bio
	.cfi_endproc
	.file	193 "/mnt/disk/jenkins/ci/workspace/chipset_pipeline_release/opensource/component_code/vendor/huawei/extra/build/build_script/kirin_kernel_release" "kernel/platform_source/basicplatform/fs/filemap_manager/pagecache_manage_interface.h"
                                        // -- End function
	.globl	pch_io_smart_end                // -- Begin function pch_io_smart_end
	.p2align	2
	.type	pch_io_smart_end,@function
pch_io_smart_end:                       // @pch_io_smart_end
.Lfunc_begin3:
	.loc	1 306 0                         // kernel/platform_source/basicplatform/fs/filemap_manager/pagecache_manage.c:306:0
	.cfi_startproc
// %bb.0:
	//DEBUG_VALUE: pch_io_smart_end:io_submited <- $w0
	//DEBUG_VALUE: pch_io_smart_end:bdev <- $x1
	//DEBUG_VALUE: blk_throtl_get_quotas:cnt <- [DW_OP_constu 1, DW_OP_minus, DW_OP_stack_value] undef
	//DEBUG_VALUE: blk_throtl_get_quotas:wait <- 1
	//DEBUG_VALUE: blk_throtl_get_quotas:jiffies_time_out <- 25
	//DEBUG_VALUE: blk_throtl_get_quotas:size <- undef
	//DEBUG_VALUE: blk_throtl_get_quotas:bdev <- undef
	//DEBUG_VALUE: pch_io_smart_end:bdev <- $x1
	//DEBUG_VALUE: pch_io_smart_end:io_submited <- $w0
	hint	#25
	.cfi_negate_ra_state
	stp	x29, x30, [sp, #-32]!           // 16-byte Folded Spill
	stp	x20, x19, [sp, #16]             // 16-byte Folded Spill
	mov	x29, sp
	.cfi_def_cfa w29, 32
	.cfi_offset w19, -8
	.cfi_offset w20, -16
	.cfi_offset w30, -24
	.cfi_offset w29, -32
.Ltmp97:
	.loc	1 307 6 prologue_end            // kernel/platform_source/basicplatform/fs/filemap_manager/pagecache_manage.c:307:6
	cbz	w0, .LBB3_4
.Ltmp98:
// %bb.1:
	//DEBUG_VALUE: pch_io_smart_end:bdev <- $x1
	//DEBUG_VALUE: pch_io_smart_end:io_submited <- $w0
	//DEBUG_VALUE: pch_io_smart_end:bdev <- $x1
	.loc	1 0 6 is_stmt 0                 // kernel/platform_source/basicplatform/fs/filemap_manager/pagecache_manage.c:0:6
	sub	w20, w0, #1                     // =1
	//DEBUG_VALUE: blk_throtl_get_quotas:cnt <- [DW_OP_constu 1, DW_OP_minus, DW_OP_stack_value] $w20
	.loc	1 307 6                         // kernel/platform_source/basicplatform/fs/filemap_manager/pagecache_manage.c:307:6
	cbz	w20, .LBB3_4
.Ltmp99:
// %bb.2:
	//DEBUG_VALUE: pch_io_smart_end:bdev <- $x1
	//DEBUG_VALUE: blk_throtl_get_quotas:cnt <- [DW_OP_constu 1, DW_OP_minus, DW_OP_stack_value] $w20
	//DEBUG_VALUE: pch_io_smart_end:io_submited <- $w0
	.loc	1 0 6                           // kernel/platform_source/basicplatform/fs/filemap_manager/pagecache_manage.c:0:6
	mov	x19, x1
.Ltmp100:
	//DEBUG_VALUE: pch_io_smart_end:bdev <- $x19
	//DEBUG_VALUE: pch_io_smart_end:bdev <- $x19
.LBB3_3:                                // =>This Inner Loop Header: Depth=1
	//DEBUG_VALUE: pch_io_smart_end:bdev <- $x19
	//DEBUG_VALUE: blk_throtl_get_quotas:cnt <- [DW_OP_constu 1, DW_OP_minus, DW_OP_stack_value] $w20
	//DEBUG_VALUE: blk_throtl_get_quotas:cnt <- $w20
	.loc	17 3067 3 is_stmt 1             // kernel/include/linux/fs.h:3067:3
	mov	w1, #4096
	mov	w2, #25
	mov	w3, #1
	mov	x0, x19
.Ltmp101:
	//DEBUG_VALUE: pch_io_smart_end:io_submited <- [DW_OP_LLVM_entry_value 1] $w0
	.loc	17 3066 12                      // kernel/include/linux/fs.h:3066:12
	sub	w20, w20, #1                    // =1
.Ltmp102:
	//DEBUG_VALUE: blk_throtl_get_quotas:cnt <- $w20
	.loc	17 3067 3                       // kernel/include/linux/fs.h:3067:3
	bl	blk_throtl_get_quota
.Ltmp103:
	//DEBUG_VALUE: blk_throtl_get_quotas:cnt <- [DW_OP_constu 1, DW_OP_minus, DW_OP_stack_value] $w20
	.loc	17 3066 2                       // kernel/include/linux/fs.h:3066:2
	cbnz	w20, .LBB3_3
.Ltmp104:
.LBB3_4:
	.loc	1 312 1                         // kernel/platform_source/basicplatform/fs/filemap_manager/pagecache_manage.c:312:1
	ldp	x20, x19, [sp, #16]             // 16-byte Folded Reload
	ldp	x29, x30, [sp], #32             // 16-byte Folded Reload
	hint	#29
	ret
.Ltmp105:
.Lfunc_end3:
	.size	pch_io_smart_end, .Lfunc_end3-pch_io_smart_end
	.cfi_endproc
                                        // -- End function
	.globl	pch_io_smart_check              // -- Begin function pch_io_smart_check
	.p2align	2
	.type	pch_io_smart_check,@function
pch_io_smart_check:                     // @pch_io_smart_check
.Lfunc_begin4:
	.loc	1 314 0                         // kernel/platform_source/basicplatform/fs/filemap_manager/pagecache_manage.c:314:0
	.cfi_startproc
// %bb.0:
	.loc	1 315 15 prologue_end           // kernel/platform_source/basicplatform/fs/filemap_manager/pagecache_manage.c:315:15
	hint	#34
.Ltmp106:
	//DEBUG_VALUE: pch_io_smart_check:rac <- $x0
	//DEBUG_VALUE: pch_io_smart_check:nr_pages <- $w1
	//DEBUG_VALUE: pch_io_smart_check:bdev <- $x2
	//DEBUG_VALUE: pch_io_smart_check:bdev <- $x2
	//DEBUG_VALUE: pch_io_smart_check:nr_pages <- $w1
	//DEBUG_VALUE: pch_io_smart_check:rac <- $x0
	cbz	x0, .LBB4_3
.Ltmp107:
// %bb.1:
	//DEBUG_VALUE: pch_io_smart_check:bdev <- $x2
	//DEBUG_VALUE: pch_io_smart_check:rac <- $x0
	//DEBUG_VALUE: pch_io_smart_check:nr_pages <- $w1
	//DEBUG_VALUE: pch_io_smart_check:bdev <- $x2
	cbz	w1, .LBB4_3
.Ltmp108:
// %bb.2:
	//DEBUG_VALUE: pch_io_smart_check:bdev <- $x2
	//DEBUG_VALUE: pch_io_smart_check:rac <- $x0
	//DEBUG_VALUE: pch_io_smart_check:nr_pages <- $w1
	hint	#25
	.cfi_negate_ra_state
	stp	x29, x30, [sp, #-16]!           // 16-byte Folded Spill
	mov	x29, sp
	.cfi_def_cfa w29, 16
	.cfi_offset w30, -8
	.cfi_offset w29, -16
	mov	x8, x2
.Ltmp109:
	//DEBUG_VALUE: pch_io_smart_check:bdev <- $x8
	.loc	1 321 3                         // kernel/platform_source/basicplatform/fs/filemap_manager/pagecache_manage.c:321:3
	mov	w1, #4096
.Ltmp110:
	//DEBUG_VALUE: pch_io_smart_check:nr_pages <- [DW_OP_LLVM_entry_value 1] $w1
	mov	w2, #25
	mov	w3, #1
	mov	x0, x8
.Ltmp111:
	//DEBUG_VALUE: pch_io_smart_check:rac <- [DW_OP_LLVM_entry_value 1] $x0
	bl	blk_throtl_get_quota
.Ltmp112:
	.loc	1 0 3 is_stmt 0                 // kernel/platform_source/basicplatform/fs/filemap_manager/pagecache_manage.c:0:3
	ldp	x29, x30, [sp], #16             // 16-byte Folded Reload
	hint	#29
.Ltmp113:
.LBB4_3:
	.loc	1 323 1 is_stmt 1               // kernel/platform_source/basicplatform/fs/filemap_manager/pagecache_manage.c:323:1
	ret
.Ltmp114:
.Lfunc_end4:
	.size	pch_io_smart_check, .Lfunc_end4-pch_io_smart_check
	.cfi_endproc
                                        // -- End function
	.globl	pch_fs_get_page                 // -- Begin function pch_fs_get_page
	.p2align	2
	.type	pch_fs_get_page,@function
pch_fs_get_page:                        // @pch_fs_get_page
.Lfunc_begin5:
	.loc	1 325 0                         // kernel/platform_source/basicplatform/fs/filemap_manager/pagecache_manage.c:325:0
	.cfi_startproc
// %bb.0:
	//DEBUG_VALUE: pch_fs_get_page:pages <- $x0
	//DEBUG_VALUE: pch_fs_get_page:rac <- $x1
	//DEBUG_VALUE: pch_fs_get_page:page <- $x2
	hint	#25
	.cfi_negate_ra_state
	stp	x29, x30, [sp, #-32]!           // 16-byte Folded Spill
	stp	x20, x19, [sp, #16]             // 16-byte Folded Spill
	mov	x29, sp
	.cfi_def_cfa w29, 32
	.cfi_offset w19, -8
	.cfi_offset w20, -16
	.cfi_offset w30, -24
	.cfi_offset w29, -32
.Ltmp115:
	.loc	1 326 10 prologue_end           // kernel/platform_source/basicplatform/fs/filemap_manager/pagecache_manage.c:326:10
	ldr	x20, [x0, #8]
.Ltmp116:
	//DEBUG_VALUE: __mptr <- $x20
	.loc	1 0 10 is_stmt 0                // kernel/platform_source/basicplatform/fs/filemap_manager/pagecache_manage.c:0:10
	mov	x19, x1
.Ltmp117:
	//DEBUG_VALUE: pch_fs_get_page:rac <- $x19
	//DEBUG_VALUE: pch_fs_get_page:page <- $x2
	//DEBUG_VALUE: pch_fs_get_page:rac <- $x19
	//DEBUG_VALUE: pch_fs_get_page:pages <- $x0
	.loc	1 326 10                        // kernel/platform_source/basicplatform/fs/filemap_manager/pagecache_manage.c:326:10
	sub	x8, x20, #8                     // =8
.Ltmp118:
	.file	194 "/mnt/disk/jenkins/ci/workspace/chipset_pipeline_release/opensource/component_code/vendor/huawei/extra/build/build_script/kirin_kernel_release" "kernel/include/linux/list.h"
	.loc	194 132 7 is_stmt 1             // kernel/include/linux/list.h:132:7
	mov	x0, x20
.Ltmp119:
	//DEBUG_VALUE: pch_fs_get_page:pages <- [DW_OP_LLVM_entry_value 1] $x0
	.loc	1 326 8                         // kernel/platform_source/basicplatform/fs/filemap_manager/pagecache_manage.c:326:8
	str	x8, [x2]
.Ltmp120:
	//DEBUG_VALUE: __list_del_entry:entry <- $x20
	//DEBUG_VALUE: list_del:entry <- $x20
	.loc	194 132 7                       // kernel/include/linux/list.h:132:7
	bl	__list_del_entry_valid
.Ltmp121:
	//DEBUG_VALUE: pch_fs_get_page:page <- [DW_OP_LLVM_entry_value 1] $x2
	.loc	194 132 6 is_stmt 0             // kernel/include/linux/list.h:132:6
	tbz	w0, #0, .LBB5_2
.Ltmp122:
// %bb.1:
	//DEBUG_VALUE: list_del:entry <- $x20
	//DEBUG_VALUE: __list_del_entry:entry <- $x20
	//DEBUG_VALUE: pch_fs_get_page:rac <- $x19
	//DEBUG_VALUE: pch_fs_get_page:page <- [DW_OP_LLVM_entry_value 1] $x2
	//DEBUG_VALUE: pch_fs_get_page:pages <- [DW_OP_LLVM_entry_value 1] $x0
	.loc	194 135 20 is_stmt 1            // kernel/include/linux/list.h:135:20
	ldp	x9, x8, [x20]
.Ltmp123:
	//DEBUG_VALUE: __list_del:prev <- $x8
	//DEBUG_VALUE: __list_del:next <- $x9
	.loc	194 112 13                      // kernel/include/linux/list.h:112:13
	str	x8, [x9, #8]
.Ltmp124:
	.loc	194 113 2                       // kernel/include/linux/list.h:113:2
	str	x9, [x8]
.Ltmp125:
.LBB5_2:
	//DEBUG_VALUE: list_del:entry <- $x20
	//DEBUG_VALUE: pch_fs_get_page:rac <- $x19
	//DEBUG_VALUE: pch_fs_get_page:page <- [DW_OP_LLVM_entry_value 1] $x2
	//DEBUG_VALUE: pch_fs_get_page:pages <- [DW_OP_LLVM_entry_value 1] $x0
	.loc	194 0 2 is_stmt 0               // kernel/include/linux/list.h:0:2
	mov	x8, #256
	movk	x8, #57005, lsl #48
	mov	w9, #34
	.loc	194 148 14 is_stmt 1            // kernel/include/linux/list.h:148:14
	orr	x9, x8, x9
	.loc	194 147 14                      // kernel/include/linux/list.h:147:14
	stp	x8, x9, [x20]
.Ltmp126:
	.loc	1 328 16                        // kernel/platform_source/basicplatform/fs/filemap_manager/pagecache_manage.c:328:16
	ldr	w8, [x19, #24]
	.loc	1 329 13                        // kernel/platform_source/basicplatform/fs/filemap_manager/pagecache_manage.c:329:13
	ldr	x9, [x19, #16]
	.loc	1 328 16                        // kernel/platform_source/basicplatform/fs/filemap_manager/pagecache_manage.c:328:16
	sub	w8, w8, #1                      // =1
	.loc	1 329 13                        // kernel/platform_source/basicplatform/fs/filemap_manager/pagecache_manage.c:329:13
	add	x9, x9, #1                      // =1
	.loc	1 328 16                        // kernel/platform_source/basicplatform/fs/filemap_manager/pagecache_manage.c:328:16
	str	w8, [x19, #24]
	.loc	1 329 13                        // kernel/platform_source/basicplatform/fs/filemap_manager/pagecache_manage.c:329:13
	str	x9, [x19, #16]
	.loc	1 330 1                         // kernel/platform_source/basicplatform/fs/filemap_manager/pagecache_manage.c:330:1
	ldp	x20, x19, [sp, #16]             // 16-byte Folded Reload
.Ltmp127:
	ldp	x29, x30, [sp], #32             // 16-byte Folded Reload
	hint	#29
	ret
.Ltmp128:
.Lfunc_end5:
	.size	pch_fs_get_page, .Lfunc_end5-pch_fs_get_page
	.cfi_endproc
                                        // -- End function
	.globl	pch_update_blcoks               // -- Begin function pch_update_blcoks
	.p2align	2
	.type	pch_update_blcoks,@function
pch_update_blcoks:                      // @pch_update_blcoks
.Lfunc_begin6:
	.loc	1 334 0                         // kernel/platform_source/basicplatform/fs/filemap_manager/pagecache_manage.c:334:0
	.cfi_startproc
// %bb.0:
	.loc	1 338 30 prologue_end           // kernel/platform_source/basicplatform/fs/filemap_manager/pagecache_manage.c:338:30
	hint	#34
.Ltmp129:
	//DEBUG_VALUE: pch_update_blcoks:map <- $x0
	//DEBUG_VALUE: pch_update_blcoks:map <- $x0
	//DEBUG_VALUE: pch_update_blcoks:page_block <- $x1
	//DEBUG_VALUE: pch_update_blcoks:block_in_file <- $x2
	//DEBUG_VALUE: pch_update_blcoks:block_in_file <- $x2
	//DEBUG_VALUE: pch_update_blcoks:blocks_per_page <- $w3
	//DEBUG_VALUE: pch_update_blcoks:blocks_per_page <- $w3
	//DEBUG_VALUE: pch_update_blcoks:blocks <- $x4
	//DEBUG_VALUE: pch_update_blcoks:blocks <- $x4
	//DEBUG_VALUE: pch_update_blcoks:relative_block <- 0
	ldr	w8, [x0, #12]
.Ltmp130:
	//DEBUG_VALUE: pch_update_blcoks:page_block <- $x1
	.loc	1 338 7 is_stmt 0               // kernel/platform_source/basicplatform/fs/filemap_manager/pagecache_manage.c:338:7
	cbz	w8, .LBB6_4
.Ltmp131:
// %bb.1:
	//DEBUG_VALUE: pch_update_blcoks:blocks <- $x4
	//DEBUG_VALUE: pch_update_blcoks:block_in_file <- $x2
	//DEBUG_VALUE: pch_update_blcoks:page_block <- $x1
	//DEBUG_VALUE: pch_update_blcoks:map <- $x0
	//DEBUG_VALUE: pch_update_blcoks:blocks_per_page <- $w3
	//DEBUG_VALUE: pch_update_blcoks:relative_block <- 0
	.loc	1 0 7                           // kernel/platform_source/basicplatform/fs/filemap_manager/pagecache_manage.c:0:7
	mov	w8, wzr
.Ltmp132:
.LBB6_2:                                // =>This Inner Loop Header: Depth=1
	//DEBUG_VALUE: pch_update_blcoks:blocks <- $x4
	//DEBUG_VALUE: pch_update_blcoks:block_in_file <- $x2
	//DEBUG_VALUE: pch_update_blcoks:page_block <- $x1
	//DEBUG_VALUE: pch_update_blcoks:map <- $x0
	//DEBUG_VALUE: pch_update_blcoks:blocks_per_page <- $w3
	//DEBUG_VALUE: pch_update_blcoks:relative_block <- $w8
	.loc	1 342 14 is_stmt 1              // kernel/platform_source/basicplatform/fs/filemap_manager/pagecache_manage.c:342:14
	ldr	w9, [x1]
.Ltmp133:
	.loc	1 342 14 is_stmt 0              // kernel/platform_source/basicplatform/fs/filemap_manager/pagecache_manage.c:342:14
	cmp	w9, w3
	b.eq	.LBB6_5
.Ltmp134:
// %bb.3:                               //   in Loop: Header=BB6_2 Depth=1
	//DEBUG_VALUE: pch_update_blcoks:blocks <- $x4
	//DEBUG_VALUE: pch_update_blcoks:block_in_file <- $x2
	//DEBUG_VALUE: pch_update_blcoks:page_block <- $x1
	//DEBUG_VALUE: pch_update_blcoks:map <- $x0
	//DEBUG_VALUE: pch_update_blcoks:relative_block <- $w8
	//DEBUG_VALUE: pch_update_blcoks:blocks_per_page <- $w3
	.loc	1 345 30 is_stmt 1              // kernel/platform_source/basicplatform/fs/filemap_manager/pagecache_manage.c:345:30
	ldr	x10, [x0]
	.loc	1 345 36 is_stmt 0              // kernel/platform_source/basicplatform/fs/filemap_manager/pagecache_manage.c:345:36
	add	x10, x10, w8, uxtw
	.loc	1 345 23                        // kernel/platform_source/basicplatform/fs/filemap_manager/pagecache_manage.c:345:23
	str	x10, [x4, x9, lsl #3]
	.loc	1 346 16 is_stmt 1              // kernel/platform_source/basicplatform/fs/filemap_manager/pagecache_manage.c:346:16
	ldr	w9, [x1]
.Ltmp135:
	.loc	1 337 43                        // kernel/platform_source/basicplatform/fs/filemap_manager/pagecache_manage.c:337:43
	add	w8, w8, #1                      // =1
.Ltmp136:
	//DEBUG_VALUE: pch_update_blcoks:relative_block <- $w8
	.loc	1 346 16                        // kernel/platform_source/basicplatform/fs/filemap_manager/pagecache_manage.c:346:16
	add	w9, w9, #1                      // =1
	str	w9, [x1]
	.loc	1 347 19                        // kernel/platform_source/basicplatform/fs/filemap_manager/pagecache_manage.c:347:19
	ldr	x9, [x2]
	add	x9, x9, #1                      // =1
	str	x9, [x2]
.Ltmp137:
	.loc	1 338 30                        // kernel/platform_source/basicplatform/fs/filemap_manager/pagecache_manage.c:338:30
	ldr	w9, [x0, #12]
.Ltmp138:
	.loc	1 338 7 is_stmt 0               // kernel/platform_source/basicplatform/fs/filemap_manager/pagecache_manage.c:338:7
	cmp	w8, w9
	b.ne	.LBB6_2
.Ltmp139:
.LBB6_4:
	//DEBUG_VALUE: pch_update_blcoks:blocks <- $x4
	//DEBUG_VALUE: pch_update_blcoks:block_in_file <- $x2
	//DEBUG_VALUE: pch_update_blcoks:page_block <- $x1
	//DEBUG_VALUE: pch_update_blcoks:map <- $x0
	//DEBUG_VALUE: pch_update_blcoks:blocks_per_page <- $w3
	.loc	1 340 17 is_stmt 1              // kernel/platform_source/basicplatform/fs/filemap_manager/pagecache_manage.c:340:17
	ldr	w8, [x0, #16]
	and	w8, w8, #0xffffffef
	str	w8, [x0, #16]
.Ltmp140:
.LBB6_5:
	//DEBUG_VALUE: pch_update_blcoks:blocks <- $x4
	//DEBUG_VALUE: pch_update_blcoks:block_in_file <- $x2
	//DEBUG_VALUE: pch_update_blcoks:page_block <- $x1
	//DEBUG_VALUE: pch_update_blcoks:map <- $x0
	//DEBUG_VALUE: pch_update_blcoks:blocks_per_page <- $w3
	.loc	1 349 1                         // kernel/platform_source/basicplatform/fs/filemap_manager/pagecache_manage.c:349:1
	ret
.Ltmp141:
.Lfunc_end6:
	.size	pch_update_blcoks, .Lfunc_end6-pch_update_blcoks
	.cfi_endproc
                                        // -- End function
	.globl	pch_map_boundry                 // -- Begin function pch_map_boundry
	.p2align	2
	.type	pch_map_boundry,@function
pch_map_boundry:                        // @pch_map_boundry
.Lfunc_begin7:
	.loc	1 353 0                         // kernel/platform_source/basicplatform/fs/filemap_manager/pagecache_manage.c:353:0
	.cfi_startproc
// %bb.0:
	//DEBUG_VALUE: pch_map_boundry:map <- $x0
	//DEBUG_VALUE: pch_map_boundry:map <- $x0
	//DEBUG_VALUE: pch_map_boundry:relative_block <- $w1
	//DEBUG_VALUE: pch_map_boundry:blocks_per_page <- $w2
	//DEBUG_VALUE: pch_map_boundry:blocks_per_page <- $w2
	//DEBUG_VALUE: pch_map_boundry:bio <- $x3
	//DEBUG_VALUE: pch_map_boundry:bio <- $x3
	//DEBUG_VALUE: pch_map_boundry:last_block_in_bio <- $x4
	//DEBUG_VALUE: pch_map_boundry:last_block_in_bio <- $x4
	//DEBUG_VALUE: pch_map_boundry:blocks <- $x5
	//DEBUG_VALUE: pch_map_boundry:blocks <- $x5
	//DEBUG_VALUE: pch_map_boundry:io_submited <- $x6
	//DEBUG_VALUE: pch_map_boundry:io_submited <- $x6
	//DEBUG_VALUE: pch_map_boundry:first_hole <- $w7
	//DEBUG_VALUE: pch_map_boundry:first_hole <- $w7
	hint	#25
	.cfi_negate_ra_state
	stp	x29, x30, [sp, #-16]!           // 16-byte Folded Spill
	mov	x29, sp
	.cfi_def_cfa w29, 16
	.cfi_offset w30, -8
	.cfi_offset w29, -16
.Ltmp142:
	.loc	1 354 42 prologue_end           // kernel/platform_source/basicplatform/fs/filemap_manager/pagecache_manage.c:354:42
	ldrb	w8, [x0, #17]
	//DEBUG_VALUE: pch_map_boundry:relative_block <- $w1
	tbnz	w8, #1, .LBB7_2
.Ltmp143:
// %bb.1:
	//DEBUG_VALUE: pch_map_boundry:io_submited <- $x6
	//DEBUG_VALUE: pch_map_boundry:blocks <- $x5
	//DEBUG_VALUE: pch_map_boundry:last_block_in_bio <- $x4
	//DEBUG_VALUE: pch_map_boundry:bio <- $x3
	//DEBUG_VALUE: pch_map_boundry:map <- $x0
	//DEBUG_VALUE: pch_map_boundry:first_hole <- $w7
	//DEBUG_VALUE: pch_map_boundry:blocks_per_page <- $w2
	//DEBUG_VALUE: pch_map_boundry:relative_block <- $w1
	.loc	1 354 6 is_stmt 0               // kernel/platform_source/basicplatform/fs/filemap_manager/pagecache_manage.c:354:6
	cmp	w7, w2
	b.eq	.LBB7_4
	b	.LBB7_5
.Ltmp144:
.LBB7_2:
	//DEBUG_VALUE: pch_map_boundry:io_submited <- $x6
	//DEBUG_VALUE: pch_map_boundry:blocks <- $x5
	//DEBUG_VALUE: pch_map_boundry:last_block_in_bio <- $x4
	//DEBUG_VALUE: pch_map_boundry:bio <- $x3
	//DEBUG_VALUE: pch_map_boundry:map <- $x0
	//DEBUG_VALUE: pch_map_boundry:first_hole <- $w7
	//DEBUG_VALUE: pch_map_boundry:blocks_per_page <- $w2
	//DEBUG_VALUE: pch_map_boundry:relative_block <- $w1
	.loc	1 355 39 is_stmt 1              // kernel/platform_source/basicplatform/fs/filemap_manager/pagecache_manage.c:355:39
	cmp	w7, w2
	b.ne	.LBB7_5
.Ltmp145:
// %bb.3:
	//DEBUG_VALUE: pch_map_boundry:io_submited <- $x6
	//DEBUG_VALUE: pch_map_boundry:blocks <- $x5
	//DEBUG_VALUE: pch_map_boundry:last_block_in_bio <- $x4
	//DEBUG_VALUE: pch_map_boundry:bio <- $x3
	//DEBUG_VALUE: pch_map_boundry:map <- $x0
	//DEBUG_VALUE: pch_map_boundry:first_hole <- $w7
	//DEBUG_VALUE: pch_map_boundry:blocks_per_page <- $w2
	//DEBUG_VALUE: pch_map_boundry:relative_block <- $w1
	.loc	1 0 0 is_stmt 0                 // kernel/platform_source/basicplatform/fs/filemap_manager/pagecache_manage.c:0:0
	ldr	w8, [x0, #12]
	.loc	1 355 39                        // kernel/platform_source/basicplatform/fs/filemap_manager/pagecache_manage.c:355:39
	cmp	w8, w1
	b.eq	.LBB7_5
.Ltmp146:
.LBB7_4:
	//DEBUG_VALUE: pch_map_boundry:io_submited <- $x6
	//DEBUG_VALUE: pch_map_boundry:blocks <- $x5
	//DEBUG_VALUE: pch_map_boundry:last_block_in_bio <- $x4
	//DEBUG_VALUE: pch_map_boundry:bio <- $x3
	//DEBUG_VALUE: pch_map_boundry:map <- $x0
	//DEBUG_VALUE: pch_map_boundry:first_hole <- $w7
	//DEBUG_VALUE: pch_map_boundry:blocks_per_page <- $w2
	//DEBUG_VALUE: pch_map_boundry:relative_block <- $w1
	.loc	1 363 47 is_stmt 1              // kernel/platform_source/basicplatform/fs/filemap_manager/pagecache_manage.c:363:47
	sub	w8, w2, #1                      // =1
	.loc	1 363 24 is_stmt 0              // kernel/platform_source/basicplatform/fs/filemap_manager/pagecache_manage.c:363:24
	ldr	x8, [x5, w8, uxtw #3]
	.loc	1 363 22                        // kernel/platform_source/basicplatform/fs/filemap_manager/pagecache_manage.c:363:22
	str	x8, [x4]
	b	.LBB7_6
.Ltmp147:
.LBB7_5:
	//DEBUG_VALUE: pch_map_boundry:io_submited <- $x6
	//DEBUG_VALUE: pch_map_boundry:blocks <- $x5
	//DEBUG_VALUE: pch_map_boundry:last_block_in_bio <- $x4
	//DEBUG_VALUE: pch_map_boundry:bio <- $x3
	//DEBUG_VALUE: pch_map_boundry:map <- $x0
	//DEBUG_VALUE: pch_map_boundry:first_hole <- $w7
	//DEBUG_VALUE: pch_map_boundry:blocks_per_page <- $w2
	//DEBUG_VALUE: pch_map_boundry:relative_block <- $w1
	.loc	1 358 18 is_stmt 1              // kernel/platform_source/basicplatform/fs/filemap_manager/pagecache_manage.c:358:18
	ldr	w8, [x6]
	.loc	1 360 4                         // kernel/platform_source/basicplatform/fs/filemap_manager/pagecache_manage.c:360:4
	mov	x0, x3
.Ltmp148:
	//DEBUG_VALUE: pch_map_boundry:map <- [DW_OP_LLVM_entry_value 1] $x0
	.loc	1 358 18                        // kernel/platform_source/basicplatform/fs/filemap_manager/pagecache_manage.c:358:18
	add	w8, w8, #1                      // =1
	str	w8, [x6]
	.loc	1 360 4                         // kernel/platform_source/basicplatform/fs/filemap_manager/pagecache_manage.c:360:4
	bl	ext4_submit_bio_read
.Ltmp149:
	//DEBUG_VALUE: pch_map_boundry:io_submited <- [DW_OP_LLVM_entry_value 1] $x6
	//DEBUG_VALUE: pch_map_boundry:blocks <- [DW_OP_LLVM_entry_value 1] $x5
	//DEBUG_VALUE: pch_map_boundry:last_block_in_bio <- [DW_OP_LLVM_entry_value 1] $x4
	//DEBUG_VALUE: pch_map_boundry:bio <- [DW_OP_LLVM_entry_value 1] $x3
	//DEBUG_VALUE: pch_map_boundry:first_hole <- [DW_OP_LLVM_entry_value 1] $w7
	//DEBUG_VALUE: pch_map_boundry:blocks_per_page <- [DW_OP_LLVM_entry_value 1] $w2
	//DEBUG_VALUE: pch_map_boundry:relative_block <- [DW_OP_LLVM_entry_value 1] $w1
	//DEBUG_VALUE: pch_map_boundry:bio <- 0
.LBB7_6:
	.loc	1 365 1                         // kernel/platform_source/basicplatform/fs/filemap_manager/pagecache_manage.c:365:1
	ldp	x29, x30, [sp], #16             // 16-byte Folded Reload
	hint	#29
	ret
.Ltmp150:
.Lfunc_end7:
	.size	pch_map_boundry, .Lfunc_end7-pch_map_boundry
	.cfi_endproc
                                        // -- End function
	.globl	pch_confused                    // -- Begin function pch_confused
	.p2align	2
	.type	pch_confused,@function
pch_confused:                           // @pch_confused
.Lfunc_begin8:
	.loc	1 368 0                         // kernel/platform_source/basicplatform/fs/filemap_manager/pagecache_manage.c:368:0
	.cfi_startproc
// %bb.0:
	//DEBUG_VALUE: pch_confused:bio <- $x0
	//DEBUG_VALUE: pch_confused:page <- $x1
	//DEBUG_VALUE: pch_confused:io_submited <- $x2
	hint	#25
	.cfi_negate_ra_state
	stp	x29, x30, [sp, #-32]!           // 16-byte Folded Spill
	str	x19, [sp, #16]                  // 8-byte Folded Spill
	mov	x29, sp
	.cfi_def_cfa w29, 32
	.cfi_offset w19, -16
	.cfi_offset w30, -24
	.cfi_offset w29, -32
	mov	x19, x1
.Ltmp151:
	//DEBUG_VALUE: pch_confused:page <- $x19
	//DEBUG_VALUE: pch_confused:io_submited <- $x2
	//DEBUG_VALUE: pch_confused:page <- $x19
	//DEBUG_VALUE: pch_confused:bio <- $x0
	.loc	1 369 6 prologue_end            // kernel/platform_source/basicplatform/fs/filemap_manager/pagecache_manage.c:369:6
	cbz	x0, .LBB8_2
.Ltmp152:
// %bb.1:
	//DEBUG_VALUE: pch_confused:page <- $x19
	//DEBUG_VALUE: pch_confused:io_submited <- $x2
	//DEBUG_VALUE: pch_confused:bio <- $x0
	.loc	1 371 17                        // kernel/platform_source/basicplatform/fs/filemap_manager/pagecache_manage.c:371:17
	ldr	w8, [x2]
	add	w8, w8, #1                      // =1
	str	w8, [x2]
	.loc	1 373 3                         // kernel/platform_source/basicplatform/fs/filemap_manager/pagecache_manage.c:373:3
	bl	ext4_submit_bio_read
.Ltmp153:
	//DEBUG_VALUE: pch_confused:io_submited <- [DW_OP_LLVM_entry_value 1] $x2
	//DEBUG_VALUE: pch_confused:bio <- [DW_OP_LLVM_entry_value 1] $x0
	//DEBUG_VALUE: pch_confused:bio <- 0
.LBB8_2:
	//DEBUG_VALUE: pch_confused:page <- $x19
	//DEBUG_VALUE: PageUptodate:page <- $x19
	//DEBUG_VALUE: compound_head:page <- $x19
	.loc	181 228 23                      // kernel/include/linux/page-flags.h:228:23
	ldr	x8, [x19, #8]
.Ltmp154:
	//DEBUG_VALUE: compound_head:head <- $x8
	.loc	181 230 6                       // kernel/include/linux/page-flags.h:230:6
	sub	x9, x8, #1                      // =1
	tst	x8, #0x1
	csel	x8, x19, x9, eq
.Ltmp155:
	//DEBUG_VALUE: test_bit:nr <- 2
	//DEBUG_VALUE: test_bit:addr <- $x8
	//DEBUG_VALUE: PageUptodate:page <- $x8
	.loc	188 106 16                      // kernel/include/asm-generic/bitops/non-atomic.h:106:16
	ldr	x8, [x8]
.Ltmp156:
	//DEBUG_VALUE: PageUptodate:ret <- [DW_OP_constu 2, DW_OP_shr, DW_OP_LLVM_convert 64 7, DW_OP_LLVM_convert 32 7, DW_OP_constu 1, DW_OP_and, DW_OP_stack_value] $x8
	.loc	181 638 6                       // kernel/include/linux/page-flags.h:638:6
	tbnz	w8, #2, .LBB8_4
.Ltmp157:
// %bb.3:
	//DEBUG_VALUE: pch_confused:page <- $x19
	.loc	1 377 3                         // kernel/platform_source/basicplatform/fs/filemap_manager/pagecache_manage.c:377:3
	adrp	x1, ext4_get_block
	add	x1, x1, :lo12:ext4_get_block
	mov	x0, x19
	bl	block_read_full_page
.Ltmp158:
	.loc	1 0 3 is_stmt 0                 // kernel/platform_source/basicplatform/fs/filemap_manager/pagecache_manage.c:0:3
	b	.LBB8_5
.Ltmp159:
.LBB8_4:
	//DEBUG_VALUE: pch_confused:page <- $x19
	//DEBUG_VALUE: PageUptodate:ret <- [DW_OP_constu 2, DW_OP_shr, DW_OP_LLVM_convert 64 7, DW_OP_LLVM_convert 32 7, DW_OP_constu 1, DW_OP_and, DW_OP_stack_value] $x8
	.loc	181 639 3 is_stmt 1             // kernel/include/linux/page-flags.h:639:3
	//APP
	dmb	ishld
	//NO_APP
.Ltmp160:
	.loc	1 379 3                         // kernel/platform_source/basicplatform/fs/filemap_manager/pagecache_manage.c:379:3
	mov	x0, x19
	bl	unlock_page
.Ltmp161:
.LBB8_5:
	//DEBUG_VALUE: pch_confused:page <- $x19
	.loc	1 380 1                         // kernel/platform_source/basicplatform/fs/filemap_manager/pagecache_manage.c:380:1
	ldr	x19, [sp, #16]                  // 8-byte Folded Reload
.Ltmp162:
	ldp	x29, x30, [sp], #32             // 16-byte Folded Reload
	hint	#29
	ret
.Ltmp163:
.Lfunc_end8:
	.size	pch_confused, .Lfunc_end8-pch_confused
	.cfi_endproc
                                        // -- End function
	.globl	pch_set_error_page              // -- Begin function pch_set_error_page
	.p2align	2
	.type	pch_set_error_page,@function
pch_set_error_page:                     // @pch_set_error_page
.Lfunc_begin9:
	.loc	1 383 0                         // kernel/platform_source/basicplatform/fs/filemap_manager/pagecache_manage.c:383:0
	.cfi_startproc
// %bb.0:
	//DEBUG_VALUE: pch_set_error_page:page <- $x0
	//DEBUG_VALUE: SetPageError:page <- $x0
	//DEBUG_VALUE: compound_head:page <- $x0
	hint	#25
	.cfi_negate_ra_state
	stp	x29, x30, [sp, #-32]!           // 16-byte Folded Spill
	stp	x20, x19, [sp, #16]             // 16-byte Folded Spill
	mov	x29, sp
	.cfi_def_cfa w29, 32
	.cfi_offset w19, -8
	.cfi_offset w20, -16
	.cfi_offset w30, -24
	.cfi_offset w29, -32
.Ltmp164:
	.loc	181 228 23 prologue_end         // kernel/include/linux/page-flags.h:228:23
	ldr	x8, [x0, #8]
.Ltmp165:
	//DEBUG_VALUE: compound_head:head <- $x8
	.loc	184 19 2                        // kernel/arch/arm64/include/asm/current.h:19:2
	//APP
	mrs	x20, SP_EL0
	//NO_APP
.Ltmp166:
	//DEBUG_VALUE: get_current:sp_el0 <- $x20
	//DEBUG_VALUE: get_current:sp_el0 <- $x20
	//DEBUG_VALUE: get_current:sp_el0 <- $x20
	.loc	184 0 2 is_stmt 0               // kernel/arch/arm64/include/asm/current.h:0:2
	mov	x19, x0
.Ltmp167:
	//DEBUG_VALUE: compound_head:page <- $x19
	//DEBUG_VALUE: SetPageError:page <- $x19
	//DEBUG_VALUE: pch_set_error_page:page <- $x19
	.loc	181 230 6 is_stmt 1             // kernel/include/linux/page-flags.h:230:6
	sub	x9, x8, #1                      // =1
	tst	x8, #0x1
	csel	x8, x0, x9, eq
.Ltmp168:
	//DEBUG_VALUE: __ll_sc_atomic64_or:i <- 512
	//DEBUG_VALUE: arch_atomic64_or:i <- 512
	//DEBUG_VALUE: atomic64_or:i <- 512
	//DEBUG_VALUE: atomic_long_or:i <- 512
	//DEBUG_VALUE: set_bit:nr <- 9
	//DEBUG_VALUE: __ll_sc_atomic64_or:v <- $x8
	//DEBUG_VALUE: arch_atomic64_or:v <- $x8
	//DEBUG_VALUE: atomic64_or:v <- $x8
	//DEBUG_VALUE: atomic_long_or:v <- $x8
	//DEBUG_VALUE: set_bit:p <- $x8
	.loc	183 222 1                       // kernel/arch/arm64/include/asm/atomic_ll_sc.h:222:1
	//APP
	// atomic64_or
	prfm	pstl1strm, [x8]
.Ltmp169:
	ldxr	x9, [x8]
	orr	x9, x9, #0x200
	stxr	w10, x9, [x8]
	cbnz	w10, .Ltmp169
	//NO_APP
.Ltmp170:
	//DEBUG_VALUE: __preempt_count_add:val <- 1
	//DEBUG_VALUE: kmap_atomic:page <- $x19
	//DEBUG_VALUE: zero_user_segments:end2 <- 0
	//DEBUG_VALUE: zero_user_segments:start2 <- 0
	//DEBUG_VALUE: zero_user_segments:end1 <- 4096
	//DEBUG_VALUE: zero_user_segments:start1 <- 0
	//DEBUG_VALUE: zero_user_segments:page <- $x19
	//DEBUG_VALUE: zero_user_segment:end <- 4096
	//DEBUG_VALUE: zero_user_segment:start <- 0
	//DEBUG_VALUE: zero_user_segment:page <- $x19
	//DEBUG_VALUE: __ll_sc_atomic64_or:tmp <- undef
	//DEBUG_VALUE: __ll_sc_atomic64_or:result <- undef
	.loc	185 67 11                       // kernel/arch/arm64/include/asm/preempt.h:67:11
	ldr	w8, [x20, #16]
.Ltmp171:
	//DEBUG_VALUE: __preempt_count_add:pc <- $w8
	.loc	185 68 5                        // kernel/arch/arm64/include/asm/preempt.h:68:5
	add	w8, w8, #1                      // =1
.Ltmp172:
	//DEBUG_VALUE: __preempt_count_add:pc <- $w8
	.loc	185 69 2                        // kernel/arch/arm64/include/asm/preempt.h:69:2
	str	w8, [x20, #16]
.Ltmp173:
	.loc	186 167 2                       // kernel/include/linux/highmem.h:167:2
	//APP
	//NO_APP
.Ltmp174:
	.loc	187 229 29                      // kernel/include/linux/uaccess.h:229:29
	ldr	w8, [x20, #3488]
.Ltmp175:
	add	w8, w8, #1                      // =1
	str	w8, [x20, #3488]
.Ltmp176:
	.loc	187 251 2                       // kernel/include/linux/uaccess.h:251:2
	//APP
	//NO_APP
.Ltmp177:
	//DEBUG_VALUE: test_bit:addr <- $x19
	//DEBUG_VALUE: test_bit:nr <- 25
	//DEBUG_VALUE: PageLB:page <- $x19
	.loc	188 106 16                      // kernel/include/asm-generic/bitops/non-atomic.h:106:16
	ldr	x8, [x0]
.Ltmp178:
	.loc	186 171 6                       // kernel/include/linux/highmem.h:171:6
	tbnz	w8, #25, .LBB9_2
.Ltmp179:
// %bb.1:
	//DEBUG_VALUE: zero_user_segment:page <- $x19
	//DEBUG_VALUE: zero_user_segments:page <- $x19
	//DEBUG_VALUE: kmap_atomic:page <- $x19
	//DEBUG_VALUE: pch_set_error_page:page <- $x19
	//DEBUG_VALUE: zero_user_segment:start <- 0
	//DEBUG_VALUE: zero_user_segment:end <- 4096
	//DEBUG_VALUE: zero_user_segments:start1 <- 0
	//DEBUG_VALUE: zero_user_segments:end1 <- 4096
	//DEBUG_VALUE: zero_user_segments:start2 <- 0
	//DEBUG_VALUE: zero_user_segments:end2 <- 0
	.loc	186 0 6 is_stmt 0               // kernel/include/linux/highmem.h:0:6
	mov	x8, #-274877906944
	movk	x8, #2048, lsl #16
.Ltmp180:
	//DEBUG_VALUE: __idx <- [DW_OP_plus_uconst 4297064448, DW_OP_constu 6, DW_OP_shr, DW_OP_stack_value] $x19
	//DEBUG_VALUE: __page <- $x19
	//DEBUG_VALUE: lowmem_page_address:page <- $x19
	.loc	64 1647 9 is_stmt 1             // kernel/include/linux/mm.h:1647:9
	add	x8, x8, x19, lsl #6
	and	x0, x8, #0xfffffffffffff000
.Ltmp181:
	//DEBUG_VALUE: __addr <- $x0
	.loc	64 0 9 is_stmt 0                // kernel/include/linux/mm.h:0:9
	b	.LBB9_3
.Ltmp182:
.LBB9_2:
	//DEBUG_VALUE: zero_user_segment:page <- $x19
	//DEBUG_VALUE: zero_user_segments:page <- $x19
	//DEBUG_VALUE: kmap_atomic:page <- $x19
	//DEBUG_VALUE: pch_set_error_page:page <- $x19
	//DEBUG_VALUE: zero_user_segment:start <- 0
	//DEBUG_VALUE: zero_user_segment:end <- 4096
	//DEBUG_VALUE: zero_user_segments:start1 <- 0
	//DEBUG_VALUE: zero_user_segments:end1 <- 4096
	//DEBUG_VALUE: zero_user_segments:start2 <- 0
	//DEBUG_VALUE: zero_user_segments:end2 <- 0
	.loc	186 175 10 is_stmt 1            // kernel/include/linux/highmem.h:175:10
	mov	x0, x19
	bl	lb_page_to_virt
.Ltmp183:
.LBB9_3:
	//DEBUG_VALUE: zero_user_segment:page <- $x19
	//DEBUG_VALUE: zero_user_segments:page <- $x19
	//DEBUG_VALUE: pch_set_error_page:page <- $x19
	//DEBUG_VALUE: zero_user_segment:start <- 0
	//DEBUG_VALUE: zero_user_segment:end <- 4096
	//DEBUG_VALUE: zero_user_segments:start1 <- 0
	//DEBUG_VALUE: zero_user_segments:end1 <- 4096
	//DEBUG_VALUE: zero_user_segments:start2 <- 0
	//DEBUG_VALUE: zero_user_segments:end2 <- 0
	//DEBUG_VALUE: zero_user_segments:kaddr <- $x0
	.loc	186 306 3                       // kernel/include/linux/highmem.h:306:3
	mov	w2, #4096
	mov	w1, wzr
	bl	memset
.Ltmp184:
	.loc	187 260 2                       // kernel/include/linux/uaccess.h:260:2
	//APP
	//NO_APP
.Ltmp185:
	//DEBUG_VALUE: get_current:sp_el0 <- $x20
	.loc	187 234 29                      // kernel/include/linux/uaccess.h:234:29
	ldr	w8, [x20, #3488]
	sub	w8, w8, #1                      // =1
	str	w8, [x20, #3488]
.Ltmp186:
	.loc	186 311 2                       // kernel/include/linux/highmem.h:311:2
	//APP
	//NO_APP
.Ltmp187:
	//DEBUG_VALUE: get_current:sp_el0 <- $x20
	.loc	185 84 11                       // kernel/arch/arm64/include/asm/preempt.h:84:11
	ldr	x8, [x20, #16]
.Ltmp188:
	//DEBUG_VALUE: __preempt_count_dec_and_test:pc <- $x8
	.loc	185 88 2                        // kernel/arch/arm64/include/asm/preempt.h:88:2
	subs	x8, x8, #1                      // =1
.Ltmp189:
	//DEBUG_VALUE: __preempt_count_dec_and_test:pc <- $x8
	str	w8, [x20, #16]
.Ltmp190:
	//DEBUG_VALUE: __preempt_count_dec_and_test:ti <- $x20
	.loc	185 97 13                       // kernel/arch/arm64/include/asm/preempt.h:97:13
	b.eq	.LBB9_6
.Ltmp191:
// %bb.4:
	//DEBUG_VALUE: __preempt_count_dec_and_test:ti <- $x20
	//DEBUG_VALUE: zero_user_segment:page <- $x19
	//DEBUG_VALUE: zero_user_segments:page <- $x19
	//DEBUG_VALUE: pch_set_error_page:page <- $x19
	//DEBUG_VALUE: __preempt_count_dec_and_test:pc <- $x8
	//DEBUG_VALUE: zero_user_segment:start <- 0
	//DEBUG_VALUE: zero_user_segment:end <- 4096
	//DEBUG_VALUE: zero_user_segments:start1 <- 0
	//DEBUG_VALUE: zero_user_segments:end1 <- 4096
	//DEBUG_VALUE: zero_user_segments:start2 <- 0
	//DEBUG_VALUE: zero_user_segments:end2 <- 0
	.loc	185 97 17 is_stmt 0             // kernel/arch/arm64/include/asm/preempt.h:97:17
	ldr	x8, [x20, #16]
.Ltmp192:
	.loc	186 311 2 is_stmt 1             // kernel/include/linux/highmem.h:311:2
	cbz	x8, .LBB9_6
.Ltmp193:
.LBB9_5:
	//DEBUG_VALUE: zero_user_segment:page <- $x19
	//DEBUG_VALUE: zero_user_segments:page <- $x19
	//DEBUG_VALUE: pch_set_error_page:page <- $x19
	//DEBUG_VALUE: zero_user_segment:start <- 0
	//DEBUG_VALUE: zero_user_segment:end <- 4096
	//DEBUG_VALUE: zero_user_segments:start1 <- 0
	//DEBUG_VALUE: zero_user_segments:end1 <- 4096
	//DEBUG_VALUE: zero_user_segments:start2 <- 0
	//DEBUG_VALUE: zero_user_segments:end2 <- 0
	.loc	186 312 2                       // kernel/include/linux/highmem.h:312:2
	mov	x0, x19
	bl	flush_dcache_page
.Ltmp194:
	.loc	1 387 2                         // kernel/platform_source/basicplatform/fs/filemap_manager/pagecache_manage.c:387:2
	mov	x0, x19
	bl	unlock_page
.Ltmp195:
	.loc	1 388 1                         // kernel/platform_source/basicplatform/fs/filemap_manager/pagecache_manage.c:388:1
	ldp	x20, x19, [sp, #16]             // 16-byte Folded Reload
.Ltmp196:
	ldp	x29, x30, [sp], #32             // 16-byte Folded Reload
	hint	#29
	ret
.Ltmp197:
.LBB9_6:
	//DEBUG_VALUE: zero_user_segment:page <- $x19
	//DEBUG_VALUE: zero_user_segments:page <- $x19
	//DEBUG_VALUE: pch_set_error_page:page <- $x19
	//DEBUG_VALUE: zero_user_segment:start <- 0
	//DEBUG_VALUE: zero_user_segment:end <- 4096
	//DEBUG_VALUE: zero_user_segments:start1 <- 0
	//DEBUG_VALUE: zero_user_segments:end1 <- 4096
	//DEBUG_VALUE: zero_user_segments:start2 <- 0
	//DEBUG_VALUE: zero_user_segments:end2 <- 0
	.loc	186 311 2                       // kernel/include/linux/highmem.h:311:2
	bl	preempt_schedule
.Ltmp198:
	.loc	186 0 2 is_stmt 0               // kernel/include/linux/highmem.h:0:2
	b	.LBB9_5
.Ltmp199:
.Lfunc_end9:
	.size	pch_set_error_page, .Lfunc_end9-pch_set_error_page
	.cfi_endproc
                                        // -- End function
	.globl	pch_map_init                    // -- Begin function pch_map_init
	.p2align	2
	.type	pch_map_init,@function
pch_map_init:                           // @pch_map_init
.Lfunc_begin10:
	.loc	1 391 0 is_stmt 1               // kernel/platform_source/basicplatform/fs/filemap_manager/pagecache_manage.c:391:0
	.cfi_startproc
// %bb.0:
	.loc	1 393 14 prologue_end           // kernel/platform_source/basicplatform/fs/filemap_manager/pagecache_manage.c:393:14
	hint	#34
.Ltmp200:
	//DEBUG_VALUE: pch_map_init:map <- $x0
	//DEBUG_VALUE: pch_map_init:map <- $x0
	str	wzr, [x0, #16]
	stp	xzr, xzr, [x0]
	.loc	1 396 1                         // kernel/platform_source/basicplatform/fs/filemap_manager/pagecache_manage.c:396:1
	ret
.Ltmp201:
.Lfunc_end10:
	.size	pch_map_init, .Lfunc_end10-pch_map_init
	.cfi_endproc
                                        // -- End function
	.globl	pch_block_data_init             // -- Begin function pch_block_data_init
	.p2align	2
	.type	pch_block_data_init,@function
pch_block_data_init:                    // @pch_block_data_init
.Lfunc_begin11:
	.loc	1 402 0                         // kernel/platform_source/basicplatform/fs/filemap_manager/pagecache_manage.c:402:0
	.cfi_startproc
// %bb.0:
	//DEBUG_VALUE: pch_block_data_init:block_in_file <- $x0
	//DEBUG_VALUE: pch_block_data_init:next_block <- $x1
	//DEBUG_VALUE: pch_block_data_init:last_block <- $x2
	//DEBUG_VALUE: pch_block_data_init:page_block <- $x3
	//DEBUG_VALUE: pch_block_data_init:blocks_per_page <- $w4
	//DEBUG_VALUE: pch_block_data_init:nr_pages <- $w5
	//DEBUG_VALUE: pch_block_data_init:inode <- $x6
	//DEBUG_VALUE: pch_block_data_init:blocksize <- $w7
	hint	#25
	.cfi_negate_ra_state
	stp	x29, x30, [sp, #-64]!           // 16-byte Folded Spill
	str	x23, [sp, #16]                  // 8-byte Folded Spill
	stp	x22, x21, [sp, #32]             // 16-byte Folded Spill
	stp	x20, x19, [sp, #48]             // 16-byte Folded Spill
	mov	x29, sp
	.cfi_def_cfa w29, 64
	.cfi_offset w19, -8
	.cfi_offset w20, -16
	.cfi_offset w21, -24
	.cfi_offset w22, -32
	.cfi_offset w23, -48
	.cfi_offset w30, -56
	.cfi_offset w29, -64
	ldr	x8, [x29, #64]
	ldr	w22, [x29, #72]
	mov	w9, #12
	ldr	x23, [x29, #80]
.Ltmp202:
	//DEBUG_VALUE: pch_block_data_init:last_block_in_file <- [DW_OP_plus_uconst 80] [$fp+0]
	//DEBUG_VALUE: pch_block_data_init:blkbits <- [DW_OP_plus_uconst 72] [$fp+0]
	//DEBUG_VALUE: pch_block_data_init:page <- [DW_OP_plus_uconst 64] [$fp+0]
	//DEBUG_VALUE: pch_block_data_init:blocksize <- $w21
	//DEBUG_VALUE: pch_block_data_init:inode <- $x6
	//DEBUG_VALUE: pch_block_data_init:nr_pages <- $w5
	//DEBUG_VALUE: pch_block_data_init:blocks_per_page <- $w4
	//DEBUG_VALUE: pch_block_data_init:page_block <- $x19
	//DEBUG_VALUE: pch_block_data_init:last_block <- $x20
	//DEBUG_VALUE: pch_block_data_init:next_block <- $x1
	//DEBUG_VALUE: pch_block_data_init:block_in_file <- $x0
	.loc	1 404 20 prologue_end           // kernel/platform_source/basicplatform/fs/filemap_manager/pagecache_manage.c:404:20
	ldr	x8, [x8, #32]
	.loc	1 404 41 is_stmt 0              // kernel/platform_source/basicplatform/fs/filemap_manager/pagecache_manage.c:404:41
	sub	w9, w9, w22
	.loc	1 405 42 is_stmt 1              // kernel/platform_source/basicplatform/fs/filemap_manager/pagecache_manage.c:405:42
	mul	w10, w5, w4
	mov	w21, w7
.Ltmp203:
	.loc	1 404 26                        // kernel/platform_source/basicplatform/fs/filemap_manager/pagecache_manage.c:404:26
	lsl	x8, x8, x9
	.loc	1 403 31                        // kernel/platform_source/basicplatform/fs/filemap_manager/pagecache_manage.c:403:31
	str	x8, [x1]
	.loc	1 403 17 is_stmt 0              // kernel/platform_source/basicplatform/fs/filemap_manager/pagecache_manage.c:403:17
	str	x8, [x0]
	.loc	1 405 31 is_stmt 1              // kernel/platform_source/basicplatform/fs/filemap_manager/pagecache_manage.c:405:31
	add	x8, x8, x10
	.loc	1 406 25                        // kernel/platform_source/basicplatform/fs/filemap_manager/pagecache_manage.c:406:25
	mov	x0, x6
.Ltmp204:
	//DEBUG_VALUE: pch_block_data_init:block_in_file <- [DW_OP_LLVM_entry_value 1] $x0
	//DEBUG_VALUE: pch_block_data_init:inode <- $x0
	.loc	1 0 25 is_stmt 0                // kernel/platform_source/basicplatform/fs/filemap_manager/pagecache_manage.c:0:25
	mov	x19, x3
.Ltmp205:
	mov	x20, x2
.Ltmp206:
	.loc	1 405 14 is_stmt 1              // kernel/platform_source/basicplatform/fs/filemap_manager/pagecache_manage.c:405:14
	str	x8, [x2]
	.loc	1 406 25                        // kernel/platform_source/basicplatform/fs/filemap_manager/pagecache_manage.c:406:25
	bl	ext4_readpage_limit
.Ltmp207:
	//DEBUG_VALUE: pch_block_data_init:next_block <- [DW_OP_LLVM_entry_value 1] $x1
	//DEBUG_VALUE: pch_block_data_init:nr_pages <- [DW_OP_LLVM_entry_value 1] $w5
	//DEBUG_VALUE: pch_block_data_init:blocks_per_page <- [DW_OP_LLVM_entry_value 1] $w4
	.loc	1 406 52 is_stmt 0              // kernel/platform_source/basicplatform/fs/filemap_manager/pagecache_manage.c:406:52
	add	x8, x0, w21, uxtw
	.loc	1 407 21 is_stmt 1              // kernel/platform_source/basicplatform/fs/filemap_manager/pagecache_manage.c:407:21
	sub	x8, x8, #1                      // =1
	.loc	1 407 26 is_stmt 0              // kernel/platform_source/basicplatform/fs/filemap_manager/pagecache_manage.c:407:26
	asr	x8, x8, x22
	.loc	1 406 22 is_stmt 1              // kernel/platform_source/basicplatform/fs/filemap_manager/pagecache_manage.c:406:22
	str	x8, [x23]
.Ltmp208:
	.loc	1 408 6                         // kernel/platform_source/basicplatform/fs/filemap_manager/pagecache_manage.c:408:6
	ldr	x9, [x20]
.Ltmp209:
	.loc	1 408 6 is_stmt 0               // kernel/platform_source/basicplatform/fs/filemap_manager/pagecache_manage.c:408:6
	cmp	x9, x8
	b.ls	.LBB11_2
.Ltmp210:
// %bb.1:
	//DEBUG_VALUE: pch_block_data_init:page <- [DW_OP_plus_uconst 64] [$fp+0]
	//DEBUG_VALUE: pch_block_data_init:blkbits <- [DW_OP_plus_uconst 72] [$fp+0]
	//DEBUG_VALUE: pch_block_data_init:last_block_in_file <- [DW_OP_plus_uconst 80] [$fp+0]
	//DEBUG_VALUE: pch_block_data_init:next_block <- [DW_OP_LLVM_entry_value 1] $x1
	//DEBUG_VALUE: pch_block_data_init:nr_pages <- [DW_OP_LLVM_entry_value 1] $w5
	//DEBUG_VALUE: pch_block_data_init:blocks_per_page <- [DW_OP_LLVM_entry_value 1] $w4
	//DEBUG_VALUE: pch_block_data_init:block_in_file <- [DW_OP_LLVM_entry_value 1] $x0
	.loc	1 409 15 is_stmt 1              // kernel/platform_source/basicplatform/fs/filemap_manager/pagecache_manage.c:409:15
	str	x8, [x20]
.Ltmp211:
.LBB11_2:
	//DEBUG_VALUE: pch_block_data_init:page <- [DW_OP_plus_uconst 64] [$fp+0]
	//DEBUG_VALUE: pch_block_data_init:blkbits <- [DW_OP_plus_uconst 72] [$fp+0]
	//DEBUG_VALUE: pch_block_data_init:last_block_in_file <- [DW_OP_plus_uconst 80] [$fp+0]
	//DEBUG_VALUE: pch_block_data_init:next_block <- [DW_OP_LLVM_entry_value 1] $x1
	//DEBUG_VALUE: pch_block_data_init:nr_pages <- [DW_OP_LLVM_entry_value 1] $w5
	//DEBUG_VALUE: pch_block_data_init:blocks_per_page <- [DW_OP_LLVM_entry_value 1] $w4
	//DEBUG_VALUE: pch_block_data_init:block_in_file <- [DW_OP_LLVM_entry_value 1] $x0
	.loc	1 410 14                        // kernel/platform_source/basicplatform/fs/filemap_manager/pagecache_manage.c:410:14
	str	wzr, [x19]
	.loc	1 411 1                         // kernel/platform_source/basicplatform/fs/filemap_manager/pagecache_manage.c:411:1
	ldp	x20, x19, [sp, #48]             // 16-byte Folded Reload
	ldp	x22, x21, [sp, #32]             // 16-byte Folded Reload
	ldr	x23, [sp, #16]                  // 8-byte Folded Reload
	ldp	x29, x30, [sp], #64             // 16-byte Folded Reload
	hint	#29
	ret
.Ltmp212:
.Lfunc_end11:
	.size	pch_block_data_init, .Lfunc_end11-pch_block_data_init
	.cfi_endproc
                                        // -- End function
	.globl	pch_submit_bio                  // -- Begin function pch_submit_bio
	.p2align	2
	.type	pch_submit_bio,@function
pch_submit_bio:                         // @pch_submit_bio
.Lfunc_begin12:
	.loc	1 414 0                         // kernel/platform_source/basicplatform/fs/filemap_manager/pagecache_manage.c:414:0
	.cfi_startproc
// %bb.0:
	.loc	1 415 6 prologue_end            // kernel/platform_source/basicplatform/fs/filemap_manager/pagecache_manage.c:415:6
	hint	#34
.Ltmp213:
	//DEBUG_VALUE: pch_submit_bio:bio <- $x0
	//DEBUG_VALUE: pch_submit_bio:bio <- $x0
	//DEBUG_VALUE: pch_submit_bio:io_submited <- $x1
	//DEBUG_VALUE: pch_submit_bio:io_submited <- $x1
	cbz	x0, .LBB12_2
.Ltmp214:
// %bb.1:
	//DEBUG_VALUE: pch_submit_bio:io_submited <- $x1
	//DEBUG_VALUE: pch_submit_bio:bio <- $x0
	hint	#25
	.cfi_negate_ra_state
	stp	x29, x30, [sp, #-16]!           // 16-byte Folded Spill
	mov	x29, sp
	.cfi_def_cfa w29, 16
	.cfi_offset w30, -8
	.cfi_offset w29, -16
.Ltmp215:
	.loc	1 417 17                        // kernel/platform_source/basicplatform/fs/filemap_manager/pagecache_manage.c:417:17
	ldr	w8, [x1]
	add	w8, w8, #1                      // =1
	str	w8, [x1]
	.loc	1 419 3                         // kernel/platform_source/basicplatform/fs/filemap_manager/pagecache_manage.c:419:3
	bl	ext4_submit_bio_read
.Ltmp216:
	//DEBUG_VALUE: pch_submit_bio:io_submited <- [DW_OP_LLVM_entry_value 1] $x1
	//DEBUG_VALUE: pch_submit_bio:bio <- [DW_OP_LLVM_entry_value 1] $x0
	.loc	1 0 3 is_stmt 0                 // kernel/platform_source/basicplatform/fs/filemap_manager/pagecache_manage.c:0:3
	ldp	x29, x30, [sp], #16             // 16-byte Folded Reload
	hint	#29
.Ltmp217:
.LBB12_2:
	.loc	1 421 1 is_stmt 1               // kernel/platform_source/basicplatform/fs/filemap_manager/pagecache_manage.c:421:1
	ret
.Ltmp218:
.Lfunc_end12:
	.size	pch_submit_bio, .Lfunc_end12-pch_submit_bio
	.cfi_endproc
                                        // -- End function
	.globl	pch_mapped                      // -- Begin function pch_mapped
	.p2align	2
	.type	pch_mapped,@function
pch_mapped:                             // @pch_mapped
.Lfunc_begin13:
	.loc	1 425 0                         // kernel/platform_source/basicplatform/fs/filemap_manager/pagecache_manage.c:425:0
	.cfi_startproc
// %bb.0:
	.loc	1 426 6 prologue_end            // kernel/platform_source/basicplatform/fs/filemap_manager/pagecache_manage.c:426:6
	hint	#34
.Ltmp219:
	//DEBUG_VALUE: pch_mapped:map <- $x0
	//DEBUG_VALUE: pch_mapped:map <- $x0
	//DEBUG_VALUE: pch_mapped:fully_mapped <- $x1
	//DEBUG_VALUE: pch_mapped:first_hole <- $x2
	//DEBUG_VALUE: pch_mapped:first_hole <- $x2
	//DEBUG_VALUE: pch_mapped:page_block <- $x3
	//DEBUG_VALUE: pch_mapped:page_block <- $x3
	//DEBUG_VALUE: pch_mapped:block_in_file <- $x4
	//DEBUG_VALUE: pch_mapped:block_in_file <- $x4
	//DEBUG_VALUE: pch_mapped:blocks_per_page <- $w5
	//DEBUG_VALUE: pch_mapped:blocks_per_page <- $w5
	ldrb	w8, [x0, #16]
	//DEBUG_VALUE: pch_mapped:fully_mapped <- $x1
	tbnz	w8, #4, .LBB13_4
.Ltmp220:
// %bb.1:
	//DEBUG_VALUE: pch_mapped:block_in_file <- $x4
	//DEBUG_VALUE: pch_mapped:page_block <- $x3
	//DEBUG_VALUE: pch_mapped:first_hole <- $x2
	//DEBUG_VALUE: pch_mapped:fully_mapped <- $x1
	//DEBUG_VALUE: pch_mapped:map <- $x0
	//DEBUG_VALUE: pch_mapped:blocks_per_page <- $w5
	.loc	1 427 19                        // kernel/platform_source/basicplatform/fs/filemap_manager/pagecache_manage.c:427:19
	str	wzr, [x1]
.Ltmp221:
	.loc	1 428 9                         // kernel/platform_source/basicplatform/fs/filemap_manager/pagecache_manage.c:428:9
	ldr	w8, [x2]
.Ltmp222:
	.loc	1 428 9 is_stmt 0               // kernel/platform_source/basicplatform/fs/filemap_manager/pagecache_manage.c:428:9
	cmp	w8, w5
	b.ne	.LBB13_3
.Ltmp223:
// %bb.2:
	//DEBUG_VALUE: pch_mapped:block_in_file <- $x4
	//DEBUG_VALUE: pch_mapped:page_block <- $x3
	//DEBUG_VALUE: pch_mapped:first_hole <- $x2
	//DEBUG_VALUE: pch_mapped:fully_mapped <- $x1
	//DEBUG_VALUE: pch_mapped:map <- $x0
	//DEBUG_VALUE: pch_mapped:blocks_per_page <- $w5
	.loc	1 429 20 is_stmt 1              // kernel/platform_source/basicplatform/fs/filemap_manager/pagecache_manage.c:429:20
	ldr	w8, [x3]
	.loc	1 429 18 is_stmt 0              // kernel/platform_source/basicplatform/fs/filemap_manager/pagecache_manage.c:429:18
	str	w8, [x2]
.Ltmp224:
.LBB13_3:
	//DEBUG_VALUE: pch_mapped:block_in_file <- $x4
	//DEBUG_VALUE: pch_mapped:page_block <- $x3
	//DEBUG_VALUE: pch_mapped:first_hole <- $x2
	//DEBUG_VALUE: pch_mapped:fully_mapped <- $x1
	//DEBUG_VALUE: pch_mapped:map <- $x0
	//DEBUG_VALUE: pch_mapped:blocks_per_page <- $w5
	.loc	1 430 18 is_stmt 1              // kernel/platform_source/basicplatform/fs/filemap_manager/pagecache_manage.c:430:18
	ldr	w8, [x3]
	mov	w0, #1
.Ltmp225:
	//DEBUG_VALUE: pch_mapped:map <- [DW_OP_LLVM_entry_value 1] $x0
	add	w8, w8, #1                      // =1
	str	w8, [x3]
	.loc	1 431 21                        // kernel/platform_source/basicplatform/fs/filemap_manager/pagecache_manage.c:431:21
	ldr	x8, [x4]
	add	x8, x8, #1                      // =1
	str	x8, [x4]
.Ltmp226:
	.loc	1 435 1                         // kernel/platform_source/basicplatform/fs/filemap_manager/pagecache_manage.c:435:1
	ret
.Ltmp227:
.LBB13_4:
	//DEBUG_VALUE: pch_mapped:block_in_file <- $x4
	//DEBUG_VALUE: pch_mapped:page_block <- $x3
	//DEBUG_VALUE: pch_mapped:first_hole <- $x2
	//DEBUG_VALUE: pch_mapped:fully_mapped <- $x1
	//DEBUG_VALUE: pch_mapped:map <- $x0
	//DEBUG_VALUE: pch_mapped:blocks_per_page <- $w5
	.loc	1 0 0 is_stmt 0                 // kernel/platform_source/basicplatform/fs/filemap_manager/pagecache_manage.c:0:0
	mov	w0, wzr
.Ltmp228:
	//DEBUG_VALUE: pch_mapped:map <- [DW_OP_LLVM_entry_value 1] $x0
	.loc	1 435 1                         // kernel/platform_source/basicplatform/fs/filemap_manager/pagecache_manage.c:435:1
	ret
.Ltmp229:
.Lfunc_end13:
	.size	pch_mapped, .Lfunc_end13-pch_mapped
	.cfi_endproc
                                        // -- End function
	.globl	ext4_mas_mpage_readpages        // -- Begin function ext4_mas_mpage_readpages
	.p2align	2
	.type	ext4_mas_mpage_readpages,@function
ext4_mas_mpage_readpages:               // @ext4_mas_mpage_readpages
.Lfunc_begin14:
	.loc	1 439 0 is_stmt 1               // kernel/platform_source/basicplatform/fs/filemap_manager/pagecache_manage.c:439:0
	.cfi_startproc
// %bb.0:
	//DEBUG_VALUE: ext4_mas_mpage_readpages:inode <- $x0
	//DEBUG_VALUE: ext4_mas_mpage_readpages:rac <- $x1
	//DEBUG_VALUE: ext4_mas_mpage_readpages:page <- $x2
	//DEBUG_VALUE: ext4_mas_mpage_readpages:pages <- $x3
	hint	#25
	.cfi_negate_ra_state
	sub	sp, sp, #288                    // =288
	stp	x29, x30, [sp, #192]            // 16-byte Folded Spill
	stp	x28, x27, [sp, #208]            // 16-byte Folded Spill
	stp	x26, x25, [sp, #224]            // 16-byte Folded Spill
	stp	x24, x23, [sp, #240]            // 16-byte Folded Spill
	stp	x22, x21, [sp, #256]            // 16-byte Folded Spill
	stp	x20, x19, [sp, #272]            // 16-byte Folded Spill
	add	x29, sp, #192                   // =192
	.cfi_def_cfa w29, 96
	.cfi_offset w19, -8
	.cfi_offset w20, -16
	.cfi_offset w21, -24
	.cfi_offset w22, -32
	.cfi_offset w23, -40
	.cfi_offset w24, -48
	.cfi_offset w25, -56
	.cfi_offset w26, -64
	.cfi_offset w27, -72
	.cfi_offset w28, -80
	.cfi_offset w30, -88
	.cfi_offset w29, -96
.Ltmp230:
	.loc	1 449 37 prologue_end           // kernel/platform_source/basicplatform/fs/filemap_manager/pagecache_manage.c:449:37
	ldr	x8, [x0, #40]
.Ltmp231:
	//DEBUG_VALUE: ext4_mas_mpage_readpages:inode <- [DW_OP_plus_uconst 88] [$sp+0]
	.loc	1 442 34                        // kernel/platform_source/basicplatform/fs/filemap_manager/pagecache_manage.c:442:34
	ldrb	w9, [x0, #162]
.Ltmp232:
	//DEBUG_VALUE: ext4_mas_mpage_readpages:blocksize <- undef
	//DEBUG_VALUE: ext4_mas_mpage_readpages:blocks_per_page <- undef
	//DEBUG_VALUE: ext4_mas_mpage_readpages:blkbits <- $w9
	.loc	1 0 34 is_stmt 0                // kernel/platform_source/basicplatform/fs/filemap_manager/pagecache_manage.c:0:34
	mov	x21, x3
.Ltmp233:
	//DEBUG_VALUE: ext4_mas_mpage_readpages:pages <- $x21
	mov	x22, x2
.Ltmp234:
	//DEBUG_VALUE: ext4_mas_mpage_readpages:page <- $x22
	//DEBUG_VALUE: ext4_mas_mpage_readpages:last_block_in_bio <- 0
	//DEBUG_VALUE: ext4_mas_mpage_readpages:bio <- 0
	//DEBUG_VALUE: ext4_mas_mpage_readpages:pages <- $x21
	//DEBUG_VALUE: ext4_mas_mpage_readpages:page <- $x22
	//DEBUG_VALUE: ext4_mas_mpage_readpages:inode <- $x0
	mov	x24, x1
.Ltmp235:
	//DEBUG_VALUE: ext4_mas_mpage_readpages:rac <- $x24
	stp	x9, x0, [sp, #80]               // 16-byte Folded Spill
.Ltmp236:
	//DEBUG_VALUE: ext4_mas_mpage_readpages:blkbits <- [DW_OP_plus_uconst 80] [$sp+0]
	.loc	1 449 43 is_stmt 1              // kernel/platform_source/basicplatform/fs/filemap_manager/pagecache_manage.c:449:43
	ldr	x0, [x8, #272]
.Ltmp237:
	//DEBUG_VALUE: ext4_mas_mpage_readpages:io_submited <- 0
	//DEBUG_VALUE: ext4_mas_mpage_readpages:relative_block <- 0
	//DEBUG_VALUE: ext4_mas_mpage_readpages:bdev <- $x0
	.loc	1 0 43 is_stmt 0                // kernel/platform_source/basicplatform/fs/filemap_manager/pagecache_manage.c:0:43
	str	x0, [sp, #32]                   // 8-byte Folded Spill
.Ltmp238:
	//DEBUG_VALUE: ext4_mas_mpage_readpages:bdev <- [DW_OP_plus_uconst 32] [$sp+0]
	.loc	1 456 26 is_stmt 1              // kernel/platform_source/basicplatform/fs/filemap_manager/pagecache_manage.c:456:26
	cbz	x1, .LBB14_3
.Ltmp239:
// %bb.1:
	//DEBUG_VALUE: ext4_mas_mpage_readpages:rac <- $x24
	//DEBUG_VALUE: ext4_mas_mpage_readpages:page <- $x22
	//DEBUG_VALUE: ext4_mas_mpage_readpages:pages <- $x21
	//DEBUG_VALUE: ext4_mas_mpage_readpages:bdev <- [DW_OP_plus_uconst 32] [$sp+0]
	//DEBUG_VALUE: ext4_mas_mpage_readpages:blkbits <- [DW_OP_plus_uconst 80] [$sp+0]
	//DEBUG_VALUE: ext4_mas_mpage_readpages:relative_block <- 0
	//DEBUG_VALUE: ext4_mas_mpage_readpages:io_submited <- 0
	//DEBUG_VALUE: ext4_mas_mpage_readpages:bio <- 0
	//DEBUG_VALUE: ext4_mas_mpage_readpages:last_block_in_bio <- 0
	//DEBUG_VALUE: readahead_count:rac <- $x24
	.loc	67 977 14                       // kernel/include/linux/pagemap.h:977:14
	ldr	w19, [x24, #24]
.Ltmp240:
	//DEBUG_VALUE: ext4_mas_mpage_readpages:nr_pages <- $w19
	//DEBUG_VALUE: pch_map_init:map <- [DW_OP_plus_uconst 96, DW_OP_stack_value] $sp
	.loc	1 393 14                        // kernel/platform_source/basicplatform/fs/filemap_manager/pagecache_manage.c:393:14
	str	wzr, [sp, #112]
	stp	xzr, xzr, [sp, #96]
.Ltmp241:
	//DEBUG_VALUE: pch_io_smart_check:nr_pages <- $w19
	//DEBUG_VALUE: pch_io_smart_check:bdev <- [DW_OP_plus_uconst 32] [$sp+0]
	//DEBUG_VALUE: pch_io_smart_check:rac <- $x24
	.loc	1 315 15                        // kernel/platform_source/basicplatform/fs/filemap_manager/pagecache_manage.c:315:15
	cbz	w19, .LBB14_79
.Ltmp242:
// %bb.2:
	//DEBUG_VALUE: pch_io_smart_check:rac <- $x24
	//DEBUG_VALUE: ext4_mas_mpage_readpages:rac <- $x24
	//DEBUG_VALUE: ext4_mas_mpage_readpages:page <- $x22
	//DEBUG_VALUE: ext4_mas_mpage_readpages:pages <- $x21
	//DEBUG_VALUE: pch_io_smart_check:nr_pages <- $w19
	//DEBUG_VALUE: ext4_mas_mpage_readpages:nr_pages <- $w19
	//DEBUG_VALUE: pch_io_smart_check:bdev <- [DW_OP_plus_uconst 32] [$sp+0]
	//DEBUG_VALUE: ext4_mas_mpage_readpages:bdev <- [DW_OP_plus_uconst 32] [$sp+0]
	//DEBUG_VALUE: ext4_mas_mpage_readpages:blkbits <- [DW_OP_plus_uconst 80] [$sp+0]
	//DEBUG_VALUE: ext4_mas_mpage_readpages:relative_block <- 0
	//DEBUG_VALUE: ext4_mas_mpage_readpages:io_submited <- 0
	//DEBUG_VALUE: ext4_mas_mpage_readpages:bio <- 0
	//DEBUG_VALUE: ext4_mas_mpage_readpages:last_block_in_bio <- 0
	.loc	1 321 3                         // kernel/platform_source/basicplatform/fs/filemap_manager/pagecache_manage.c:321:3
	mov	w1, #4096
	mov	w2, #25
	mov	w3, #1
	bl	blk_throtl_get_quota
.Ltmp243:
	.loc	1 0 3 is_stmt 0                 // kernel/platform_source/basicplatform/fs/filemap_manager/pagecache_manage.c:0:3
	mov	w8, #524288
	str	w8, [sp, #20]                   // 4-byte Folded Spill
	b	.LBB14_4
.Ltmp244:
.LBB14_3:
	//DEBUG_VALUE: ext4_mas_mpage_readpages:rac <- $x24
	//DEBUG_VALUE: ext4_mas_mpage_readpages:page <- $x22
	//DEBUG_VALUE: ext4_mas_mpage_readpages:pages <- $x21
	//DEBUG_VALUE: ext4_mas_mpage_readpages:bdev <- [DW_OP_plus_uconst 32] [$sp+0]
	//DEBUG_VALUE: ext4_mas_mpage_readpages:blkbits <- [DW_OP_plus_uconst 80] [$sp+0]
	//DEBUG_VALUE: ext4_mas_mpage_readpages:relative_block <- 0
	//DEBUG_VALUE: ext4_mas_mpage_readpages:io_submited <- 0
	//DEBUG_VALUE: ext4_mas_mpage_readpages:bio <- 0
	//DEBUG_VALUE: ext4_mas_mpage_readpages:last_block_in_bio <- 0
	str	wzr, [sp, #20]                  // 4-byte Folded Spill
.Ltmp245:
	//DEBUG_VALUE: pch_map_init:map <- [DW_OP_plus_uconst 96, DW_OP_stack_value] $sp
	.loc	1 393 14 is_stmt 1              // kernel/platform_source/basicplatform/fs/filemap_manager/pagecache_manage.c:393:14
	str	wzr, [sp, #112]
	stp	xzr, xzr, [sp, #96]
	mov	w19, #1
.Ltmp246:
	//DEBUG_VALUE: pch_io_smart_check:bdev <- [DW_OP_plus_uconst 32] [$sp+0]
	//DEBUG_VALUE: pch_io_smart_check:rac <- $x24
.LBB14_4:
	//DEBUG_VALUE: ext4_mas_mpage_readpages:rac <- $x24
	//DEBUG_VALUE: ext4_mas_mpage_readpages:page <- $x22
	//DEBUG_VALUE: ext4_mas_mpage_readpages:pages <- $x21
	//DEBUG_VALUE: ext4_mas_mpage_readpages:bdev <- [DW_OP_plus_uconst 32] [$sp+0]
	//DEBUG_VALUE: ext4_mas_mpage_readpages:blkbits <- [DW_OP_plus_uconst 80] [$sp+0]
	//DEBUG_VALUE: ext4_mas_mpage_readpages:relative_block <- 0
	//DEBUG_VALUE: ext4_mas_mpage_readpages:io_submited <- 0
	//DEBUG_VALUE: ext4_mas_mpage_readpages:bio <- 0
	//DEBUG_VALUE: ext4_mas_mpage_readpages:last_block_in_bio <- 0
	.loc	1 0 14 is_stmt 0                // kernel/platform_source/basicplatform/fs/filemap_manager/pagecache_manage.c:0:14
	ldr	x11, [sp, #80]                  // 8-byte Folded Reload
	mov	w8, #4096
	mov	w9, #1
	mov	w10, #12
.Ltmp247:
	//DEBUG_VALUE: ext4_mas_mpage_readpages:nr_pages <- undef
	lsr	x28, x8, x11
.Ltmp248:
	//DEBUG_VALUE: ext4_mas_mpage_readpages:blocks_per_page <- $w28
	lsl	x8, x9, x11
.Ltmp249:
	//DEBUG_VALUE: ext4_mas_mpage_readpages:blocksize <- $x8
	sub	w9, w10, w11
	sub	x8, x8, #1                      // =1
.Ltmp250:
	mov	x25, xzr
	sub	w12, w11, #9                    // =9
.Ltmp251:
	.loc	1 463 2 is_stmt 1               // kernel/platform_source/basicplatform/fs/filemap_manager/pagecache_manage.c:463:2
	mov	w19, w19
	stp	x8, x9, [sp, #48]               // 16-byte Folded Spill
	sub	w8, w28, #1                     // =1
	str	wzr, [sp, #76]                  // 4-byte Folded Spill
	str	xzr, [sp, #24]                  // 8-byte Folded Spill
	stp	x8, x12, [sp]                   // 16-byte Folded Spill
	str	x21, [sp, #64]                  // 8-byte Folded Spill
	b	.LBB14_7
.Ltmp252:
.LBB14_5:                               //   in Loop: Header=BB14_7 Depth=1
	//DEBUG_VALUE: put_page:page <- $x26
	//DEBUG_VALUE: ext4_mas_mpage_readpages:rac <- $x24
	//DEBUG_VALUE: ext4_mas_mpage_readpages:page <- $x22
	//DEBUG_VALUE: ext4_mas_mpage_readpages:nr_pages <- $x19
	//DEBUG_VALUE: ext4_mas_mpage_readpages:blocks_per_page <- $w28
	//DEBUG_VALUE: ext4_mas_mpage_readpages:bdev <- [DW_OP_plus_uconst 32] [$sp+0]
	//DEBUG_VALUE: ext4_mas_mpage_readpages:blkbits <- [DW_OP_plus_uconst 80] [$sp+0]
	//DEBUG_VALUE: ext4_mas_mpage_readpages:relative_block <- 0
	.loc	64 1282 3                       // kernel/include/linux/mm.h:1282:3
	mov	x0, x26
	bl	__put_page
.Ltmp253:
.LBB14_6:                               //   in Loop: Header=BB14_7 Depth=1
	//DEBUG_VALUE: ext4_mas_mpage_readpages:rac <- $x24
	//DEBUG_VALUE: ext4_mas_mpage_readpages:page <- $x22
	//DEBUG_VALUE: ext4_mas_mpage_readpages:nr_pages <- $x19
	//DEBUG_VALUE: ext4_mas_mpage_readpages:blocks_per_page <- $w28
	//DEBUG_VALUE: ext4_mas_mpage_readpages:bdev <- [DW_OP_plus_uconst 32] [$sp+0]
	//DEBUG_VALUE: ext4_mas_mpage_readpages:blkbits <- [DW_OP_plus_uconst 80] [$sp+0]
	//DEBUG_VALUE: ext4_mas_mpage_readpages:relative_block <- 0
	.loc	1 463 27                        // kernel/platform_source/basicplatform/fs/filemap_manager/pagecache_manage.c:463:27
	sub	x19, x19, #1                    // =1
.Ltmp254:
	//DEBUG_VALUE: ext4_mas_mpage_readpages:nr_pages <- $w19
	.loc	1 463 2 is_stmt 0               // kernel/platform_source/basicplatform/fs/filemap_manager/pagecache_manage.c:463:2
	cbz	w19, .LBB14_74
.Ltmp255:
.LBB14_7:                               // =>This Loop Header: Depth=1
                                        //     Child Loop BB14_18 Depth 2
                                        //     Child Loop BB14_24 Depth 2
                                        //       Child Loop BB14_26 Depth 3
                                        //         Child Loop BB14_35 Depth 4
	//DEBUG_VALUE: ext4_mas_mpage_readpages:rac <- $x24
	//DEBUG_VALUE: ext4_mas_mpage_readpages:page <- $x22
	//DEBUG_VALUE: ext4_mas_mpage_readpages:blocks_per_page <- $w28
	//DEBUG_VALUE: ext4_mas_mpage_readpages:bdev <- [DW_OP_plus_uconst 32] [$sp+0]
	//DEBUG_VALUE: ext4_mas_mpage_readpages:blkbits <- [DW_OP_plus_uconst 80] [$sp+0]
	//DEBUG_VALUE: ext4_mas_mpage_readpages:relative_block <- 0
	//DEBUG_VALUE: ext4_mas_mpage_readpages:nr_pages <- $x19
	//DEBUG_VALUE: fully_mapped <- 1
	//DEBUG_VALUE: first_hole <- $w28
	.loc	1 468 7 is_stmt 1               // kernel/platform_source/basicplatform/fs/filemap_manager/pagecache_manage.c:468:7
	cbz	x21, .LBB14_12
.Ltmp256:
// %bb.8:                               //   in Loop: Header=BB14_7 Depth=1
	//DEBUG_VALUE: ext4_mas_mpage_readpages:rac <- $x24
	//DEBUG_VALUE: ext4_mas_mpage_readpages:page <- $x22
	//DEBUG_VALUE: ext4_mas_mpage_readpages:nr_pages <- $x19
	//DEBUG_VALUE: first_hole <- $w28
	//DEBUG_VALUE: ext4_mas_mpage_readpages:blocks_per_page <- $w28
	//DEBUG_VALUE: ext4_mas_mpage_readpages:bdev <- [DW_OP_plus_uconst 32] [$sp+0]
	//DEBUG_VALUE: ext4_mas_mpage_readpages:blkbits <- [DW_OP_plus_uconst 80] [$sp+0]
	//DEBUG_VALUE: fully_mapped <- 1
	//DEBUG_VALUE: ext4_mas_mpage_readpages:relative_block <- 0
	//DEBUG_VALUE: pch_fs_get_page:pages <- $x21
	//DEBUG_VALUE: pch_fs_get_page:rac <- $x24
	//DEBUG_VALUE: pch_fs_get_page:page <- undef
	.loc	1 326 10                        // kernel/platform_source/basicplatform/fs/filemap_manager/pagecache_manage.c:326:10
	ldr	x26, [x21, #8]
.Ltmp257:
	//DEBUG_VALUE: __mptr <- $x26
	.loc	194 132 7                       // kernel/include/linux/list.h:132:7
	mov	x0, x26
.Ltmp258:
	.loc	1 326 10                        // kernel/platform_source/basicplatform/fs/filemap_manager/pagecache_manage.c:326:10
	sub	x22, x26, #8                    // =8
.Ltmp259:
	//DEBUG_VALUE: __list_del_entry:entry <- $x26
	//DEBUG_VALUE: list_del:entry <- $x26
	.loc	194 132 7                       // kernel/include/linux/list.h:132:7
	bl	__list_del_entry_valid
.Ltmp260:
	.loc	194 132 6 is_stmt 0             // kernel/include/linux/list.h:132:6
	tbz	w0, #0, .LBB14_10
.Ltmp261:
// %bb.9:                               //   in Loop: Header=BB14_7 Depth=1
	//DEBUG_VALUE: list_del:entry <- $x26
	//DEBUG_VALUE: __list_del_entry:entry <- $x26
	//DEBUG_VALUE: pch_fs_get_page:rac <- $x24
	//DEBUG_VALUE: ext4_mas_mpage_readpages:rac <- $x24
	//DEBUG_VALUE: pch_fs_get_page:pages <- $x21
	//DEBUG_VALUE: ext4_mas_mpage_readpages:nr_pages <- $x19
	//DEBUG_VALUE: first_hole <- $w28
	//DEBUG_VALUE: ext4_mas_mpage_readpages:blocks_per_page <- $w28
	//DEBUG_VALUE: ext4_mas_mpage_readpages:bdev <- [DW_OP_plus_uconst 32] [$sp+0]
	//DEBUG_VALUE: ext4_mas_mpage_readpages:blkbits <- [DW_OP_plus_uconst 80] [$sp+0]
	//DEBUG_VALUE: fully_mapped <- 1
	//DEBUG_VALUE: ext4_mas_mpage_readpages:relative_block <- 0
	.loc	194 135 20 is_stmt 1            // kernel/include/linux/list.h:135:20
	ldp	x9, x8, [x26]
.Ltmp262:
	//DEBUG_VALUE: __list_del:prev <- $x8
	//DEBUG_VALUE: __list_del:next <- $x9
	.loc	194 112 13                      // kernel/include/linux/list.h:112:13
	str	x8, [x9, #8]
.Ltmp263:
	.loc	194 113 2                       // kernel/include/linux/list.h:113:2
	str	x9, [x8]
.Ltmp264:
.LBB14_10:                              //   in Loop: Header=BB14_7 Depth=1
	//DEBUG_VALUE: list_del:entry <- $x26
	//DEBUG_VALUE: pch_fs_get_page:rac <- $x24
	//DEBUG_VALUE: ext4_mas_mpage_readpages:rac <- $x24
	//DEBUG_VALUE: pch_fs_get_page:pages <- $x21
	//DEBUG_VALUE: ext4_mas_mpage_readpages:nr_pages <- $x19
	//DEBUG_VALUE: first_hole <- $w28
	//DEBUG_VALUE: ext4_mas_mpage_readpages:blocks_per_page <- $w28
	//DEBUG_VALUE: ext4_mas_mpage_readpages:bdev <- [DW_OP_plus_uconst 32] [$sp+0]
	//DEBUG_VALUE: ext4_mas_mpage_readpages:blkbits <- [DW_OP_plus_uconst 80] [$sp+0]
	//DEBUG_VALUE: fully_mapped <- 1
	//DEBUG_VALUE: ext4_mas_mpage_readpages:relative_block <- 0
	.loc	194 0 2 is_stmt 0               // kernel/include/linux/list.h:0:2
	mov	x9, #256
	movk	x9, #57005, lsl #48
	.loc	194 148 14 is_stmt 1            // kernel/include/linux/list.h:148:14
	add	x8, x9, #34                     // =34
	.loc	194 147 14                      // kernel/include/linux/list.h:147:14
	stp	x9, x8, [x26]
.Ltmp265:
	.loc	1 328 16                        // kernel/platform_source/basicplatform/fs/filemap_manager/pagecache_manage.c:328:16
	ldr	w8, [x24, #24]
	.loc	1 329 13                        // kernel/platform_source/basicplatform/fs/filemap_manager/pagecache_manage.c:329:13
	ldp	x27, x9, [x24, #8]
	.loc	1 328 16                        // kernel/platform_source/basicplatform/fs/filemap_manager/pagecache_manage.c:328:16
	sub	w8, w8, #1                      // =1
	.loc	1 329 13                        // kernel/platform_source/basicplatform/fs/filemap_manager/pagecache_manage.c:329:13
	add	x9, x9, #1                      // =1
	.loc	1 328 16                        // kernel/platform_source/basicplatform/fs/filemap_manager/pagecache_manage.c:328:16
	str	w8, [x24, #24]
	.loc	1 329 13                        // kernel/platform_source/basicplatform/fs/filemap_manager/pagecache_manage.c:329:13
	str	x9, [x24, #16]
.Ltmp266:
	//DEBUG_VALUE: ext4_mas_mpage_readpages:page <- $x22
	.loc	1 470 56                        // kernel/platform_source/basicplatform/fs/filemap_manager/pagecache_manage.c:470:56
	ldr	x26, [x26, #24]
.Ltmp267:
	.loc	1 471 7                         // kernel/platform_source/basicplatform/fs/filemap_manager/pagecache_manage.c:471:7
	mov	x0, x27
	bl	readahead_gfp_mask
.Ltmp268:
	mov	w3, w0
	.loc	1 470 8                         // kernel/platform_source/basicplatform/fs/filemap_manager/pagecache_manage.c:470:8
	mov	x0, x22
	mov	x1, x27
	mov	x2, x26
	bl	add_to_page_cache_lru
.Ltmp269:
	.loc	1 470 8 is_stmt 0               // kernel/platform_source/basicplatform/fs/filemap_manager/pagecache_manage.c:470:8
	cbnz	w0, .LBB14_49
.Ltmp270:
// %bb.11:                              //   in Loop: Header=BB14_7 Depth=1
	//DEBUG_VALUE: ext4_mas_mpage_readpages:rac <- $x24
	//DEBUG_VALUE: ext4_mas_mpage_readpages:page <- $x22
	//DEBUG_VALUE: ext4_mas_mpage_readpages:nr_pages <- $x19
	//DEBUG_VALUE: first_hole <- $w28
	//DEBUG_VALUE: ext4_mas_mpage_readpages:blocks_per_page <- $w28
	//DEBUG_VALUE: ext4_mas_mpage_readpages:bdev <- [DW_OP_plus_uconst 32] [$sp+0]
	//DEBUG_VALUE: ext4_mas_mpage_readpages:blkbits <- [DW_OP_plus_uconst 80] [$sp+0]
	//DEBUG_VALUE: fully_mapped <- 1
	//DEBUG_VALUE: ext4_mas_mpage_readpages:relative_block <- 0
	//DEBUG_VALUE: ext4_mas_mpage_readpages:page <- undef
	//DEBUG_VALUE: prefetchw:ptr <- $x22
	.loc	135 289 2 is_stmt 1             // kernel/arch/arm64/include/asm/processor.h:289:2
	//APP
	prfm	pstl1keep, [x22]

	//NO_APP
.Ltmp271:
.LBB14_12:                              //   in Loop: Header=BB14_7 Depth=1
	//DEBUG_VALUE: ext4_mas_mpage_readpages:rac <- $x24
	//DEBUG_VALUE: ext4_mas_mpage_readpages:nr_pages <- $x19
	//DEBUG_VALUE: first_hole <- $w28
	//DEBUG_VALUE: ext4_mas_mpage_readpages:blocks_per_page <- $w28
	//DEBUG_VALUE: ext4_mas_mpage_readpages:bdev <- [DW_OP_plus_uconst 32] [$sp+0]
	//DEBUG_VALUE: ext4_mas_mpage_readpages:blkbits <- [DW_OP_plus_uconst 80] [$sp+0]
	//DEBUG_VALUE: fully_mapped <- 1
	//DEBUG_VALUE: ext4_mas_mpage_readpages:relative_block <- 0
	//DEBUG_VALUE: ext4_mas_mpage_readpages:page <- $x22
	//DEBUG_VALUE: PagePrivate:page <- $x22
	//DEBUG_VALUE: test_bit:addr <- $x22
	//DEBUG_VALUE: test_bit:nr <- 14
	.loc	188 106 16                      // kernel/include/asm-generic/bitops/non-atomic.h:106:16
	ldr	x8, [x22]
.Ltmp272:
	.loc	1 476 7                         // kernel/platform_source/basicplatform/fs/filemap_manager/pagecache_manage.c:476:7
	tbnz	w8, #14, .LBB14_38
.Ltmp273:
// %bb.13:                              //   in Loop: Header=BB14_7 Depth=1
	//DEBUG_VALUE: ext4_mas_mpage_readpages:rac <- $x24
	//DEBUG_VALUE: ext4_mas_mpage_readpages:page <- $x22
	//DEBUG_VALUE: ext4_mas_mpage_readpages:nr_pages <- $x19
	//DEBUG_VALUE: first_hole <- $w28
	//DEBUG_VALUE: ext4_mas_mpage_readpages:blocks_per_page <- $w28
	//DEBUG_VALUE: ext4_mas_mpage_readpages:bdev <- [DW_OP_plus_uconst 32] [$sp+0]
	//DEBUG_VALUE: ext4_mas_mpage_readpages:blkbits <- [DW_OP_plus_uconst 80] [$sp+0]
	//DEBUG_VALUE: fully_mapped <- 1
	//DEBUG_VALUE: ext4_mas_mpage_readpages:relative_block <- 0
	//DEBUG_VALUE: ext4_mas_mpage_readpages:page <- $x22
	//DEBUG_VALUE: pch_block_data_init:block_in_file <- undef
	//DEBUG_VALUE: pch_block_data_init:next_block <- undef
	//DEBUG_VALUE: pch_block_data_init:last_block <- undef
	//DEBUG_VALUE: pch_block_data_init:page_block <- undef
	//DEBUG_VALUE: pch_block_data_init:blocks_per_page <- $w28
	//DEBUG_VALUE: pch_block_data_init:nr_pages <- $x19
	//DEBUG_VALUE: pch_block_data_init:inode <- [DW_OP_plus_uconst 88] [$sp+0]
	//DEBUG_VALUE: pch_block_data_init:blocksize <- undef
	//DEBUG_VALUE: pch_block_data_init:page <- $x22
	//DEBUG_VALUE: pch_block_data_init:blkbits <- [DW_OP_plus_uconst 80] [$sp+0]
	//DEBUG_VALUE: pch_block_data_init:last_block_in_file <- undef
	.loc	1 404 20                        // kernel/platform_source/basicplatform/fs/filemap_manager/pagecache_manage.c:404:20
	ldr	x8, [x22, #32]
	ldr	x9, [sp, #56]                   // 8-byte Folded Reload
	ldr	x0, [sp, #88]                   // 8-byte Folded Reload
	.loc	1 404 26 is_stmt 0              // kernel/platform_source/basicplatform/fs/filemap_manager/pagecache_manage.c:404:26
	lsl	x21, x8, x9
	.loc	1 405 42 is_stmt 1              // kernel/platform_source/basicplatform/fs/filemap_manager/pagecache_manage.c:405:42
	mul	w8, w19, w28
	.loc	1 405 31 is_stmt 0              // kernel/platform_source/basicplatform/fs/filemap_manager/pagecache_manage.c:405:31
	add	x20, x21, x8
	.loc	1 406 25 is_stmt 1              // kernel/platform_source/basicplatform/fs/filemap_manager/pagecache_manage.c:406:25
	bl	ext4_readpage_limit
.Ltmp274:
	.loc	1 0 25 is_stmt 0                // kernel/platform_source/basicplatform/fs/filemap_manager/pagecache_manage.c:0:25
	ldr	x9, [sp, #48]                   // 8-byte Folded Reload
	ldr	x10, [sp, #80]                  // 8-byte Folded Reload
.Ltmp275:
	//DEBUG_VALUE: pch_block_data_init:blkbits <- $w10
	.loc	1 248 12 is_stmt 1              // kernel/platform_source/basicplatform/fs/filemap_manager/pagecache_manage.c:248:12
	ldr	w8, [sp, #112]
.Ltmp276:
	.loc	1 407 21                        // kernel/platform_source/basicplatform/fs/filemap_manager/pagecache_manage.c:407:21
	add	x9, x9, x0
.Ltmp277:
	//DEBUG_VALUE: pch_block_data_init:blkbits <- [DW_OP_plus_uconst 80] [$sp+0]
	//DEBUG_VALUE: pch_block_data_init:page <- $x22
	//DEBUG_VALUE: pch_block_data_init:inode <- [DW_OP_plus_uconst 88] [$sp+0]
	//DEBUG_VALUE: pch_block_data_init:nr_pages <- $x19
	//DEBUG_VALUE: pch_block_data_init:blocks_per_page <- $w28
	.loc	1 407 26 is_stmt 0              // kernel/platform_source/basicplatform/fs/filemap_manager/pagecache_manage.c:407:26
	asr	x9, x9, x10
	//DEBUG_VALUE: pch_block_data_init:blkbits <- [DW_OP_plus_uconst 80] [$sp+0]
	.loc	1 408 6 is_stmt 1               // kernel/platform_source/basicplatform/fs/filemap_manager/pagecache_manage.c:408:6
	cmp	x20, x9
	csel	x20, x9, x20, hi
.Ltmp278:
	//DEBUG_VALUE: pch_map_block_first:blocks <- [DW_OP_constu 72, DW_OP_minus, DW_OP_stack_value] $fp
	//DEBUG_VALUE: pch_map_block_first:blocks_per_page <- $w28
	//DEBUG_VALUE: pch_map_block_first:page_block <- undef
	//DEBUG_VALUE: pch_map_block_first:block_in_file <- undef
	//DEBUG_VALUE: pch_map_block_first:map <- [DW_OP_plus_uconst 96, DW_OP_stack_value] $sp
	.loc	1 248 39                        // kernel/platform_source/basicplatform/fs/filemap_manager/pagecache_manage.c:248:39
	tbz	w8, #4, .LBB14_22
.Ltmp279:
// %bb.14:                              //   in Loop: Header=BB14_7 Depth=1
	//DEBUG_VALUE: ext4_mas_mpage_readpages:rac <- $x24
	//DEBUG_VALUE: ext4_mas_mpage_readpages:page <- $x22
	//DEBUG_VALUE: ext4_mas_mpage_readpages:nr_pages <- $x19
	//DEBUG_VALUE: pch_map_block_first:blocks_per_page <- $w28
	//DEBUG_VALUE: first_hole <- $w28
	//DEBUG_VALUE: ext4_mas_mpage_readpages:blocks_per_page <- $w28
	//DEBUG_VALUE: pch_map_block_first:map <- [DW_OP_plus_uconst 96, DW_OP_stack_value] $sp
	//DEBUG_VALUE: ext4_mas_mpage_readpages:bdev <- [DW_OP_plus_uconst 32] [$sp+0]
	//DEBUG_VALUE: ext4_mas_mpage_readpages:blkbits <- [DW_OP_plus_uconst 80] [$sp+0]
	//DEBUG_VALUE: pch_map_block_first:blocks <- [DW_OP_constu 72, DW_OP_minus, DW_OP_stack_value] $fp
	//DEBUG_VALUE: fully_mapped <- 1
	//DEBUG_VALUE: ext4_mas_mpage_readpages:relative_block <- 0
	.loc	1 249 25                        // kernel/platform_source/basicplatform/fs/filemap_manager/pagecache_manage.c:249:25
	ldr	w9, [sp, #104]
	.loc	1 249 32 is_stmt 0              // kernel/platform_source/basicplatform/fs/filemap_manager/pagecache_manage.c:249:32
	cmp	x21, x9
	b.ls	.LBB14_22
.Ltmp280:
// %bb.15:                              //   in Loop: Header=BB14_7 Depth=1
	//DEBUG_VALUE: ext4_mas_mpage_readpages:rac <- $x24
	//DEBUG_VALUE: ext4_mas_mpage_readpages:page <- $x22
	//DEBUG_VALUE: ext4_mas_mpage_readpages:nr_pages <- $x19
	//DEBUG_VALUE: pch_map_block_first:blocks_per_page <- $w28
	//DEBUG_VALUE: first_hole <- $w28
	//DEBUG_VALUE: ext4_mas_mpage_readpages:blocks_per_page <- $w28
	//DEBUG_VALUE: pch_map_block_first:map <- [DW_OP_plus_uconst 96, DW_OP_stack_value] $sp
	//DEBUG_VALUE: ext4_mas_mpage_readpages:bdev <- [DW_OP_plus_uconst 32] [$sp+0]
	//DEBUG_VALUE: ext4_mas_mpage_readpages:blkbits <- [DW_OP_plus_uconst 80] [$sp+0]
	//DEBUG_VALUE: pch_map_block_first:blocks <- [DW_OP_constu 72, DW_OP_minus, DW_OP_stack_value] $fp
	//DEBUG_VALUE: fully_mapped <- 1
	//DEBUG_VALUE: ext4_mas_mpage_readpages:relative_block <- 0
	.loc	1 250 40 is_stmt 1              // kernel/platform_source/basicplatform/fs/filemap_manager/pagecache_manage.c:250:40
	ldr	w10, [sp, #108]
	.loc	1 250 33 is_stmt 0              // kernel/platform_source/basicplatform/fs/filemap_manager/pagecache_manage.c:250:33
	add	w11, w10, w9
.Ltmp281:
	.loc	1 248 6 is_stmt 1               // kernel/platform_source/basicplatform/fs/filemap_manager/pagecache_manage.c:248:6
	cmp	x21, x11
	b.hs	.LBB14_22
.Ltmp282:
// %bb.16:                              //   in Loop: Header=BB14_7 Depth=1
	//DEBUG_VALUE: ext4_mas_mpage_readpages:rac <- $x24
	//DEBUG_VALUE: ext4_mas_mpage_readpages:page <- $x22
	//DEBUG_VALUE: ext4_mas_mpage_readpages:nr_pages <- $x19
	//DEBUG_VALUE: pch_map_block_first:blocks_per_page <- $w28
	//DEBUG_VALUE: first_hole <- $w28
	//DEBUG_VALUE: ext4_mas_mpage_readpages:blocks_per_page <- $w28
	//DEBUG_VALUE: pch_map_block_first:map <- [DW_OP_plus_uconst 96, DW_OP_stack_value] $sp
	//DEBUG_VALUE: ext4_mas_mpage_readpages:bdev <- [DW_OP_plus_uconst 32] [$sp+0]
	//DEBUG_VALUE: ext4_mas_mpage_readpages:blkbits <- [DW_OP_plus_uconst 80] [$sp+0]
	//DEBUG_VALUE: pch_map_block_first:blocks <- [DW_OP_constu 72, DW_OP_minus, DW_OP_stack_value] $fp
	//DEBUG_VALUE: fully_mapped <- 1
	//DEBUG_VALUE: ext4_mas_mpage_readpages:relative_block <- 0
	.loc	1 251 25                        // kernel/platform_source/basicplatform/fs/filemap_manager/pagecache_manage.c:251:25
	sub	w11, w21, w9
.Ltmp283:
	//DEBUG_VALUE: map_offset <- $w11
	.loc	1 252 30                        // kernel/platform_source/basicplatform/fs/filemap_manager/pagecache_manage.c:252:30
	subs	w23, w10, w11
.Ltmp284:
	//DEBUG_VALUE: pch_map_block_first:relative_block <- 0
	//DEBUG_VALUE: last <- $w23
	.loc	1 255 8                         // kernel/platform_source/basicplatform/fs/filemap_manager/pagecache_manage.c:255:8
	b.eq	.LBB14_20
.Ltmp285:
// %bb.17:                              //   in Loop: Header=BB14_7 Depth=1
	//DEBUG_VALUE: ext4_mas_mpage_readpages:rac <- $x24
	//DEBUG_VALUE: ext4_mas_mpage_readpages:page <- $x22
	//DEBUG_VALUE: ext4_mas_mpage_readpages:nr_pages <- $x19
	//DEBUG_VALUE: pch_map_block_first:blocks_per_page <- $w28
	//DEBUG_VALUE: first_hole <- $w28
	//DEBUG_VALUE: ext4_mas_mpage_readpages:blocks_per_page <- $w28
	//DEBUG_VALUE: last <- $w23
	//DEBUG_VALUE: map_offset <- $w11
	//DEBUG_VALUE: pch_map_block_first:map <- [DW_OP_plus_uconst 96, DW_OP_stack_value] $sp
	//DEBUG_VALUE: ext4_mas_mpage_readpages:bdev <- [DW_OP_plus_uconst 32] [$sp+0]
	//DEBUG_VALUE: ext4_mas_mpage_readpages:blkbits <- [DW_OP_plus_uconst 80] [$sp+0]
	//DEBUG_VALUE: pch_map_block_first:blocks <- [DW_OP_constu 72, DW_OP_minus, DW_OP_stack_value] $fp
	//DEBUG_VALUE: pch_map_block_first:relative_block <- 0
	//DEBUG_VALUE: fully_mapped <- 1
	//DEBUG_VALUE: ext4_mas_mpage_readpages:relative_block <- 0
	.loc	1 0 8 is_stmt 0                 // kernel/platform_source/basicplatform/fs/filemap_manager/pagecache_manage.c:0:8
	ldr	x10, [sp, #96]
	.loc	1 255 8                         // kernel/platform_source/basicplatform/fs/filemap_manager/pagecache_manage.c:255:8
	mov	w9, w23
.Ltmp286:
	.loc	1 0 0                           // kernel/platform_source/basicplatform/fs/filemap_manager/pagecache_manage.c:0:0
	mov	x12, x28
.Ltmp287:
	.loc	1 255 8                         // kernel/platform_source/basicplatform/fs/filemap_manager/pagecache_manage.c:255:8
	add	x10, x10, w11, uxtw
	sub	x11, x29, #72                   // =72
.Ltmp288:
.LBB14_18:                              //   Parent Loop BB14_7 Depth=1
                                        // =>  This Inner Loop Header: Depth=2
	//DEBUG_VALUE: ext4_mas_mpage_readpages:rac <- $x24
	//DEBUG_VALUE: ext4_mas_mpage_readpages:page <- $x22
	//DEBUG_VALUE: ext4_mas_mpage_readpages:nr_pages <- $x19
	//DEBUG_VALUE: pch_map_block_first:blocks_per_page <- $w28
	//DEBUG_VALUE: first_hole <- $w28
	//DEBUG_VALUE: ext4_mas_mpage_readpages:blocks_per_page <- $w28
	//DEBUG_VALUE: last <- $w23
	//DEBUG_VALUE: pch_map_block_first:map <- [DW_OP_plus_uconst 96, DW_OP_stack_value] $sp
	//DEBUG_VALUE: ext4_mas_mpage_readpages:bdev <- [DW_OP_plus_uconst 32] [$sp+0]
	//DEBUG_VALUE: ext4_mas_mpage_readpages:blkbits <- [DW_OP_plus_uconst 80] [$sp+0]
	//DEBUG_VALUE: pch_map_block_first:blocks <- [DW_OP_constu 72, DW_OP_minus, DW_OP_stack_value] $fp
	//DEBUG_VALUE: fully_mapped <- 1
	//DEBUG_VALUE: ext4_mas_mpage_readpages:relative_block <- 0
	//DEBUG_VALUE: pch_map_block_first:relative_block <- undef
	.loc	1 260 8 is_stmt 1               // kernel/platform_source/basicplatform/fs/filemap_manager/pagecache_manage.c:260:8
	cbz	x12, .LBB14_21
.Ltmp289:
// %bb.19:                              //   in Loop: Header=BB14_18 Depth=2
	//DEBUG_VALUE: ext4_mas_mpage_readpages:rac <- $x24
	//DEBUG_VALUE: ext4_mas_mpage_readpages:page <- $x22
	//DEBUG_VALUE: ext4_mas_mpage_readpages:nr_pages <- $x19
	//DEBUG_VALUE: pch_map_block_first:blocks_per_page <- $w28
	//DEBUG_VALUE: first_hole <- $w28
	//DEBUG_VALUE: ext4_mas_mpage_readpages:blocks_per_page <- $w28
	//DEBUG_VALUE: last <- $w23
	//DEBUG_VALUE: pch_map_block_first:map <- [DW_OP_plus_uconst 96, DW_OP_stack_value] $sp
	//DEBUG_VALUE: ext4_mas_mpage_readpages:bdev <- [DW_OP_plus_uconst 32] [$sp+0]
	//DEBUG_VALUE: ext4_mas_mpage_readpages:blkbits <- [DW_OP_plus_uconst 80] [$sp+0]
	//DEBUG_VALUE: pch_map_block_first:blocks <- [DW_OP_constu 72, DW_OP_minus, DW_OP_stack_value] $fp
	//DEBUG_VALUE: fully_mapped <- 1
	//DEBUG_VALUE: ext4_mas_mpage_readpages:relative_block <- 0
	.loc	1 262 24                        // kernel/platform_source/basicplatform/fs/filemap_manager/pagecache_manage.c:262:24
	str	x10, [x11], #8
	.loc	1 265 20                        // kernel/platform_source/basicplatform/fs/filemap_manager/pagecache_manage.c:265:20
	add	x21, x21, #1                    // =1
.Ltmp290:
	//DEBUG_VALUE: pch_map_block_first:relative_block <- [DW_OP_plus_uconst 1, DW_OP_stack_value] undef
	.loc	1 255 23                        // kernel/platform_source/basicplatform/fs/filemap_manager/pagecache_manage.c:255:23
	sub	x12, x12, #1                    // =1
	subs	x9, x9, #1                      // =1
	add	x10, x10, #1                    // =1
.Ltmp291:
	.loc	1 255 8 is_stmt 0               // kernel/platform_source/basicplatform/fs/filemap_manager/pagecache_manage.c:255:8
	b.ne	.LBB14_18
.Ltmp292:
.LBB14_20:                              //   in Loop: Header=BB14_7 Depth=1
	//DEBUG_VALUE: ext4_mas_mpage_readpages:rac <- $x24
	//DEBUG_VALUE: ext4_mas_mpage_readpages:page <- $x22
	//DEBUG_VALUE: ext4_mas_mpage_readpages:nr_pages <- $x19
	//DEBUG_VALUE: pch_map_block_first:blocks_per_page <- $w28
	//DEBUG_VALUE: first_hole <- $w28
	//DEBUG_VALUE: ext4_mas_mpage_readpages:blocks_per_page <- $w28
	//DEBUG_VALUE: last <- $w23
	//DEBUG_VALUE: pch_map_block_first:map <- [DW_OP_plus_uconst 96, DW_OP_stack_value] $sp
	//DEBUG_VALUE: ext4_mas_mpage_readpages:bdev <- [DW_OP_plus_uconst 32] [$sp+0]
	//DEBUG_VALUE: ext4_mas_mpage_readpages:blkbits <- [DW_OP_plus_uconst 80] [$sp+0]
	//DEBUG_VALUE: pch_map_block_first:blocks <- [DW_OP_constu 72, DW_OP_minus, DW_OP_stack_value] $fp
	//DEBUG_VALUE: fully_mapped <- 1
	//DEBUG_VALUE: ext4_mas_mpage_readpages:relative_block <- 0
	.loc	1 257 18 is_stmt 1              // kernel/platform_source/basicplatform/fs/filemap_manager/pagecache_manage.c:257:18
	and	w8, w8, #0xffffffef
	str	w8, [sp, #112]
.Ltmp293:
	//DEBUG_VALUE: ext4_mas_mpage_readpages:page_block <- $w23
	.loc	1 483 3                         // kernel/platform_source/basicplatform/fs/filemap_manager/pagecache_manage.c:483:3
	cmp	w23, w28
	b.lo	.LBB14_23
.Ltmp294:
.LBB14_21:                              //   in Loop: Header=BB14_7 Depth=1
	//DEBUG_VALUE: ext4_mas_mpage_readpages:rac <- $x24
	//DEBUG_VALUE: ext4_mas_mpage_readpages:page <- $x22
	//DEBUG_VALUE: ext4_mas_mpage_readpages:nr_pages <- $x19
	//DEBUG_VALUE: first_hole <- $w28
	//DEBUG_VALUE: ext4_mas_mpage_readpages:blocks_per_page <- $w28
	//DEBUG_VALUE: ext4_mas_mpage_readpages:bdev <- [DW_OP_plus_uconst 32] [$sp+0]
	//DEBUG_VALUE: ext4_mas_mpage_readpages:blkbits <- [DW_OP_plus_uconst 80] [$sp+0]
	//DEBUG_VALUE: fully_mapped <- 1
	//DEBUG_VALUE: ext4_mas_mpage_readpages:relative_block <- 0
	.loc	1 0 3 is_stmt 0                 // kernel/platform_source/basicplatform/fs/filemap_manager/pagecache_manage.c:0:3
	mov	w27, #1
	b	.LBB14_44
.Ltmp295:
.LBB14_22:                              //   in Loop: Header=BB14_7 Depth=1
	//DEBUG_VALUE: ext4_mas_mpage_readpages:rac <- $x24
	//DEBUG_VALUE: ext4_mas_mpage_readpages:page <- $x22
	//DEBUG_VALUE: ext4_mas_mpage_readpages:nr_pages <- $x19
	//DEBUG_VALUE: first_hole <- $w28
	//DEBUG_VALUE: ext4_mas_mpage_readpages:blocks_per_page <- $w28
	//DEBUG_VALUE: ext4_mas_mpage_readpages:bdev <- [DW_OP_plus_uconst 32] [$sp+0]
	//DEBUG_VALUE: ext4_mas_mpage_readpages:blkbits <- [DW_OP_plus_uconst 80] [$sp+0]
	//DEBUG_VALUE: fully_mapped <- 1
	//DEBUG_VALUE: ext4_mas_mpage_readpages:relative_block <- 0
	.loc	1 410 14 is_stmt 1              // kernel/platform_source/basicplatform/fs/filemap_manager/pagecache_manage.c:410:14
	mov	w23, wzr
.Ltmp296:
	//DEBUG_VALUE: ext4_mas_mpage_readpages:page_block <- $w23
	.loc	1 483 3                         // kernel/platform_source/basicplatform/fs/filemap_manager/pagecache_manage.c:483:3
	cmp	w23, w28
	b.hs	.LBB14_21
.Ltmp297:
.LBB14_23:                              //   in Loop: Header=BB14_7 Depth=1
	//DEBUG_VALUE: ext4_mas_mpage_readpages:rac <- $x24
	//DEBUG_VALUE: ext4_mas_mpage_readpages:page <- $x22
	//DEBUG_VALUE: ext4_mas_mpage_readpages:nr_pages <- $x19
	//DEBUG_VALUE: first_hole <- $w28
	//DEBUG_VALUE: ext4_mas_mpage_readpages:blocks_per_page <- $w28
	//DEBUG_VALUE: ext4_mas_mpage_readpages:page_block <- $w23
	//DEBUG_VALUE: ext4_mas_mpage_readpages:bdev <- [DW_OP_plus_uconst 32] [$sp+0]
	//DEBUG_VALUE: ext4_mas_mpage_readpages:blkbits <- [DW_OP_plus_uconst 80] [$sp+0]
	//DEBUG_VALUE: fully_mapped <- 1
	//DEBUG_VALUE: ext4_mas_mpage_readpages:relative_block <- 0
	.loc	1 0 3 is_stmt 0                 // kernel/platform_source/basicplatform/fs/filemap_manager/pagecache_manage.c:0:3
	mov	w9, #1
	mov	w26, w28
	str	w9, [sp, #44]                   // 4-byte Folded Spill
.Ltmp298:
.LBB14_24:                              //   Parent Loop BB14_7 Depth=1
                                        // =>  This Loop Header: Depth=2
                                        //       Child Loop BB14_26 Depth 3
                                        //         Child Loop BB14_35 Depth 4
	//DEBUG_VALUE: ext4_mas_mpage_readpages:rac <- $x24
	//DEBUG_VALUE: ext4_mas_mpage_readpages:page <- $x22
	//DEBUG_VALUE: ext4_mas_mpage_readpages:nr_pages <- $x19
	//DEBUG_VALUE: ext4_mas_mpage_readpages:blocks_per_page <- $w28
	//DEBUG_VALUE: ext4_mas_mpage_readpages:page_block <- $w23
	//DEBUG_VALUE: ext4_mas_mpage_readpages:bdev <- [DW_OP_plus_uconst 32] [$sp+0]
	//DEBUG_VALUE: ext4_mas_mpage_readpages:blkbits <- [DW_OP_plus_uconst 80] [$sp+0]
	//DEBUG_VALUE: fully_mapped <- 1
	//DEBUG_VALUE: ext4_mas_mpage_readpages:relative_block <- 0
	//DEBUG_VALUE: ext4_mas_mpage_readpages:page_block <- $w23
	sub	x11, x29, #72                   // =72
	b	.LBB14_26
.Ltmp299:
.LBB14_25:                              //   in Loop: Header=BB14_26 Depth=3
	//DEBUG_VALUE: ext4_mas_mpage_readpages:rac <- $x24
	//DEBUG_VALUE: ext4_mas_mpage_readpages:page <- $x22
	//DEBUG_VALUE: ext4_mas_mpage_readpages:last_block <- $x20
	//DEBUG_VALUE: ext4_mas_mpage_readpages:nr_pages <- $x19
	//DEBUG_VALUE: pch_update_blcoks:blocks_per_page <- $w28
	//DEBUG_VALUE: ext4_mas_mpage_readpages:blocks_per_page <- $w28
	//DEBUG_VALUE: pch_update_blcoks:map <- [DW_OP_plus_uconst 96, DW_OP_stack_value] $sp
	//DEBUG_VALUE: ext4_mas_mpage_readpages:bdev <- [DW_OP_plus_uconst 32] [$sp+0]
	//DEBUG_VALUE: ext4_mas_mpage_readpages:blkbits <- [DW_OP_plus_uconst 80] [$sp+0]
	//DEBUG_VALUE: pch_update_blcoks:blocks <- [DW_OP_constu 72, DW_OP_minus, DW_OP_stack_value] $fp
	//DEBUG_VALUE: fully_mapped <- 1
	//DEBUG_VALUE: ext4_mas_mpage_readpages:relative_block <- 0
	.loc	1 340 17 is_stmt 1              // kernel/platform_source/basicplatform/fs/filemap_manager/pagecache_manage.c:340:17
	and	w8, w8, #0xffffffef
.Ltmp300:
	.loc	1 483 3                         // kernel/platform_source/basicplatform/fs/filemap_manager/pagecache_manage.c:483:3
	cmp	w23, w28
.Ltmp301:
	.loc	1 340 17                        // kernel/platform_source/basicplatform/fs/filemap_manager/pagecache_manage.c:340:17
	str	w8, [sp, #112]
.Ltmp302:
	//DEBUG_VALUE: ext4_mas_mpage_readpages:page_block <- $w23
	.loc	1 483 3                         // kernel/platform_source/basicplatform/fs/filemap_manager/pagecache_manage.c:483:3
	b.hs	.LBB14_43
.Ltmp303:
.LBB14_26:                              //   Parent Loop BB14_7 Depth=1
                                        //     Parent Loop BB14_24 Depth=2
                                        // =>    This Loop Header: Depth=3
                                        //         Child Loop BB14_35 Depth 4
	//DEBUG_VALUE: ext4_mas_mpage_readpages:rac <- $x24
	//DEBUG_VALUE: ext4_mas_mpage_readpages:page <- $x22
	//DEBUG_VALUE: ext4_mas_mpage_readpages:nr_pages <- $x19
	//DEBUG_VALUE: ext4_mas_mpage_readpages:blocks_per_page <- $w28
	//DEBUG_VALUE: ext4_mas_mpage_readpages:page_block <- $w23
	//DEBUG_VALUE: ext4_mas_mpage_readpages:bdev <- [DW_OP_plus_uconst 32] [$sp+0]
	//DEBUG_VALUE: ext4_mas_mpage_readpages:blkbits <- [DW_OP_plus_uconst 80] [$sp+0]
	//DEBUG_VALUE: fully_mapped <- 1
	//DEBUG_VALUE: ext4_mas_mpage_readpages:relative_block <- 0
	//DEBUG_VALUE: ext4_mas_mpage_readpages:page_block <- $w23
	//DEBUG_VALUE: ext4_mas_mpage_readpages:block_in_file <- $x21
	//DEBUG_VALUE: ext4_mas_mpage_readpages:last_block <- $x20
	.loc	1 484 8                         // kernel/platform_source/basicplatform/fs/filemap_manager/pagecache_manage.c:484:8
	cmp	x20, x21
	b.ls	.LBB14_29
.Ltmp304:
// %bb.27:                              //   in Loop: Header=BB14_26 Depth=3
	//DEBUG_VALUE: ext4_mas_mpage_readpages:rac <- $x24
	//DEBUG_VALUE: ext4_mas_mpage_readpages:page <- $x22
	//DEBUG_VALUE: ext4_mas_mpage_readpages:block_in_file <- $x21
	//DEBUG_VALUE: ext4_mas_mpage_readpages:last_block <- $x20
	//DEBUG_VALUE: ext4_mas_mpage_readpages:nr_pages <- $x19
	//DEBUG_VALUE: ext4_mas_mpage_readpages:blocks_per_page <- $w28
	//DEBUG_VALUE: ext4_mas_mpage_readpages:page_block <- $w23
	//DEBUG_VALUE: ext4_mas_mpage_readpages:bdev <- [DW_OP_plus_uconst 32] [$sp+0]
	//DEBUG_VALUE: ext4_mas_mpage_readpages:blkbits <- [DW_OP_plus_uconst 80] [$sp+0]
	//DEBUG_VALUE: fully_mapped <- 1
	//DEBUG_VALUE: ext4_mas_mpage_readpages:relative_block <- 0
	.loc	1 0 8 is_stmt 0                 // kernel/platform_source/basicplatform/fs/filemap_manager/pagecache_manage.c:0:8
	ldr	x1, [sp, #88]                   // 8-byte Folded Reload
.Ltmp305:
	.loc	1 486 28 is_stmt 1              // kernel/platform_source/basicplatform/fs/filemap_manager/pagecache_manage.c:486:28
	sub	w8, w20, w21
.Ltmp306:
	.loc	1 488 9                         // kernel/platform_source/basicplatform/fs/filemap_manager/pagecache_manage.c:488:9
	add	x2, sp, #96                     // =96
	mov	x0, xzr
	mov	w3, wzr
.Ltmp307:
	.loc	1 485 16                        // kernel/platform_source/basicplatform/fs/filemap_manager/pagecache_manage.c:485:16
	stp	w21, w8, [sp, #104]
	//DEBUG_VALUE: ext4_mas_mpage_readpages:last_block <- $x20
	//DEBUG_VALUE: ext4_mas_mpage_readpages:block_in_file <- $x21
.Ltmp308:
	.loc	1 488 9                         // kernel/platform_source/basicplatform/fs/filemap_manager/pagecache_manage.c:488:9
	bl	ext4_map_blocks
.Ltmp309:
	.loc	1 488 9 is_stmt 0               // kernel/platform_source/basicplatform/fs/filemap_manager/pagecache_manage.c:488:9
	tbnz	w0, #31, .LBB14_47
.Ltmp310:
// %bb.28:                              //   in Loop: Header=BB14_26 Depth=3
	//DEBUG_VALUE: ext4_mas_mpage_readpages:rac <- $x24
	//DEBUG_VALUE: ext4_mas_mpage_readpages:page <- $x22
	//DEBUG_VALUE: ext4_mas_mpage_readpages:block_in_file <- $x21
	//DEBUG_VALUE: ext4_mas_mpage_readpages:last_block <- $x20
	//DEBUG_VALUE: ext4_mas_mpage_readpages:nr_pages <- $x19
	//DEBUG_VALUE: ext4_mas_mpage_readpages:blocks_per_page <- $w28
	//DEBUG_VALUE: ext4_mas_mpage_readpages:page_block <- $w23
	//DEBUG_VALUE: ext4_mas_mpage_readpages:bdev <- [DW_OP_plus_uconst 32] [$sp+0]
	//DEBUG_VALUE: ext4_mas_mpage_readpages:blkbits <- [DW_OP_plus_uconst 80] [$sp+0]
	//DEBUG_VALUE: fully_mapped <- 1
	//DEBUG_VALUE: ext4_mas_mpage_readpages:relative_block <- 0
	.loc	1 426 12 is_stmt 1              // kernel/platform_source/basicplatform/fs/filemap_manager/pagecache_manage.c:426:12
	ldr	w8, [sp, #112]
	sub	x11, x29, #72                   // =72
.Ltmp311:
.LBB14_29:                              //   in Loop: Header=BB14_26 Depth=3
	//DEBUG_VALUE: ext4_mas_mpage_readpages:rac <- $x24
	//DEBUG_VALUE: ext4_mas_mpage_readpages:page <- $x22
	//DEBUG_VALUE: ext4_mas_mpage_readpages:block_in_file <- $x21
	//DEBUG_VALUE: ext4_mas_mpage_readpages:last_block <- $x20
	//DEBUG_VALUE: ext4_mas_mpage_readpages:nr_pages <- $x19
	//DEBUG_VALUE: ext4_mas_mpage_readpages:blocks_per_page <- $w28
	//DEBUG_VALUE: ext4_mas_mpage_readpages:page_block <- $w23
	//DEBUG_VALUE: ext4_mas_mpage_readpages:bdev <- [DW_OP_plus_uconst 32] [$sp+0]
	//DEBUG_VALUE: ext4_mas_mpage_readpages:blkbits <- [DW_OP_plus_uconst 80] [$sp+0]
	//DEBUG_VALUE: fully_mapped <- 1
	//DEBUG_VALUE: ext4_mas_mpage_readpages:relative_block <- 0
	//DEBUG_VALUE: pch_mapped:map <- [DW_OP_plus_uconst 96, DW_OP_stack_value] $sp
	//DEBUG_VALUE: pch_mapped:fully_mapped <- undef
	//DEBUG_VALUE: pch_mapped:first_hole <- undef
	//DEBUG_VALUE: pch_mapped:page_block <- undef
	//DEBUG_VALUE: pch_mapped:block_in_file <- undef
	//DEBUG_VALUE: pch_mapped:blocks_per_page <- $w28
	.loc	1 426 6 is_stmt 0               // kernel/platform_source/basicplatform/fs/filemap_manager/pagecache_manage.c:426:6
	tbz	w8, #4, .LBB14_37
.Ltmp312:
// %bb.30:                              //   in Loop: Header=BB14_26 Depth=3
	//DEBUG_VALUE: ext4_mas_mpage_readpages:rac <- $x24
	//DEBUG_VALUE: ext4_mas_mpage_readpages:page <- $x22
	//DEBUG_VALUE: ext4_mas_mpage_readpages:block_in_file <- $x21
	//DEBUG_VALUE: ext4_mas_mpage_readpages:last_block <- $x20
	//DEBUG_VALUE: ext4_mas_mpage_readpages:nr_pages <- $x19
	//DEBUG_VALUE: ext4_mas_mpage_readpages:blocks_per_page <- $w28
	//DEBUG_VALUE: ext4_mas_mpage_readpages:page_block <- $w23
	//DEBUG_VALUE: ext4_mas_mpage_readpages:bdev <- [DW_OP_plus_uconst 32] [$sp+0]
	//DEBUG_VALUE: ext4_mas_mpage_readpages:blkbits <- [DW_OP_plus_uconst 80] [$sp+0]
	//DEBUG_VALUE: fully_mapped <- 1
	//DEBUG_VALUE: ext4_mas_mpage_readpages:relative_block <- 0
	.loc	1 496 8 is_stmt 1               // kernel/platform_source/basicplatform/fs/filemap_manager/pagecache_manage.c:496:8
	cmp	w26, w28
	b.ne	.LBB14_38
.Ltmp313:
// %bb.31:                              //   in Loop: Header=BB14_26 Depth=3
	//DEBUG_VALUE: ext4_mas_mpage_readpages:rac <- $x24
	//DEBUG_VALUE: ext4_mas_mpage_readpages:page <- $x22
	//DEBUG_VALUE: ext4_mas_mpage_readpages:block_in_file <- $x21
	//DEBUG_VALUE: ext4_mas_mpage_readpages:last_block <- $x20
	//DEBUG_VALUE: ext4_mas_mpage_readpages:nr_pages <- $x19
	//DEBUG_VALUE: ext4_mas_mpage_readpages:blocks_per_page <- $w28
	//DEBUG_VALUE: ext4_mas_mpage_readpages:page_block <- $w23
	//DEBUG_VALUE: ext4_mas_mpage_readpages:bdev <- [DW_OP_plus_uconst 32] [$sp+0]
	//DEBUG_VALUE: ext4_mas_mpage_readpages:blkbits <- [DW_OP_plus_uconst 80] [$sp+0]
	//DEBUG_VALUE: fully_mapped <- 1
	//DEBUG_VALUE: ext4_mas_mpage_readpages:relative_block <- 0
	.loc	1 499 19                        // kernel/platform_source/basicplatform/fs/filemap_manager/pagecache_manage.c:499:19
	cbz	w23, .LBB14_33
.Ltmp314:
// %bb.32:                              //   in Loop: Header=BB14_26 Depth=3
	//DEBUG_VALUE: ext4_mas_mpage_readpages:rac <- $x24
	//DEBUG_VALUE: ext4_mas_mpage_readpages:page <- $x22
	//DEBUG_VALUE: ext4_mas_mpage_readpages:block_in_file <- $x21
	//DEBUG_VALUE: ext4_mas_mpage_readpages:last_block <- $x20
	//DEBUG_VALUE: ext4_mas_mpage_readpages:nr_pages <- $x19
	//DEBUG_VALUE: ext4_mas_mpage_readpages:blocks_per_page <- $w28
	//DEBUG_VALUE: ext4_mas_mpage_readpages:page_block <- $w23
	//DEBUG_VALUE: ext4_mas_mpage_readpages:bdev <- [DW_OP_plus_uconst 32] [$sp+0]
	//DEBUG_VALUE: ext4_mas_mpage_readpages:blkbits <- [DW_OP_plus_uconst 80] [$sp+0]
	//DEBUG_VALUE: fully_mapped <- 1
	//DEBUG_VALUE: ext4_mas_mpage_readpages:relative_block <- 0
	.loc	1 499 39 is_stmt 0              // kernel/platform_source/basicplatform/fs/filemap_manager/pagecache_manage.c:499:39
	sub	w9, w23, #1                     // =1
	.loc	1 499 50                        // kernel/platform_source/basicplatform/fs/filemap_manager/pagecache_manage.c:499:50
	ldr	x10, [sp, #96]
	.loc	1 499 22                        // kernel/platform_source/basicplatform/fs/filemap_manager/pagecache_manage.c:499:22
	ldr	x9, [x11, w9, uxtw #3]
	.loc	1 499 56                        // kernel/platform_source/basicplatform/fs/filemap_manager/pagecache_manage.c:499:56
	sub	x10, x10, #1                    // =1
.Ltmp315:
	.loc	1 499 8                         // kernel/platform_source/basicplatform/fs/filemap_manager/pagecache_manage.c:499:8
	cmp	x9, x10
	b.ne	.LBB14_38
.Ltmp316:
.LBB14_33:                              //   in Loop: Header=BB14_26 Depth=3
	//DEBUG_VALUE: ext4_mas_mpage_readpages:rac <- $x24
	//DEBUG_VALUE: ext4_mas_mpage_readpages:page <- $x22
	//DEBUG_VALUE: ext4_mas_mpage_readpages:block_in_file <- $x21
	//DEBUG_VALUE: ext4_mas_mpage_readpages:last_block <- $x20
	//DEBUG_VALUE: ext4_mas_mpage_readpages:nr_pages <- $x19
	//DEBUG_VALUE: ext4_mas_mpage_readpages:blocks_per_page <- $w28
	//DEBUG_VALUE: ext4_mas_mpage_readpages:page_block <- $w23
	//DEBUG_VALUE: ext4_mas_mpage_readpages:bdev <- [DW_OP_plus_uconst 32] [$sp+0]
	//DEBUG_VALUE: ext4_mas_mpage_readpages:blkbits <- [DW_OP_plus_uconst 80] [$sp+0]
	//DEBUG_VALUE: fully_mapped <- 1
	//DEBUG_VALUE: ext4_mas_mpage_readpages:relative_block <- 0
	//DEBUG_VALUE: pch_update_blcoks:map <- [DW_OP_plus_uconst 96, DW_OP_stack_value] $sp
	//DEBUG_VALUE: pch_update_blcoks:page_block <- undef
	//DEBUG_VALUE: pch_update_blcoks:block_in_file <- undef
	//DEBUG_VALUE: pch_update_blcoks:blocks_per_page <- $w28
	//DEBUG_VALUE: pch_update_blcoks:blocks <- [DW_OP_constu 72, DW_OP_minus, DW_OP_stack_value] $fp
	//DEBUG_VALUE: pch_update_blcoks:relative_block <- 0
	.loc	1 338 30 is_stmt 1              // kernel/platform_source/basicplatform/fs/filemap_manager/pagecache_manage.c:338:30
	ldr	w9, [sp, #108]
.Ltmp317:
	.loc	1 338 7 is_stmt 0               // kernel/platform_source/basicplatform/fs/filemap_manager/pagecache_manage.c:338:7
	cbz	w9, .LBB14_25
.Ltmp318:
// %bb.34:                              //   in Loop: Header=BB14_26 Depth=3
	//DEBUG_VALUE: ext4_mas_mpage_readpages:rac <- $x24
	//DEBUG_VALUE: ext4_mas_mpage_readpages:page <- $x22
	//DEBUG_VALUE: ext4_mas_mpage_readpages:block_in_file <- $x21
	//DEBUG_VALUE: ext4_mas_mpage_readpages:last_block <- $x20
	//DEBUG_VALUE: ext4_mas_mpage_readpages:nr_pages <- $x19
	//DEBUG_VALUE: pch_update_blcoks:blocks_per_page <- $w28
	//DEBUG_VALUE: ext4_mas_mpage_readpages:blocks_per_page <- $w28
	//DEBUG_VALUE: ext4_mas_mpage_readpages:page_block <- $w23
	//DEBUG_VALUE: pch_update_blcoks:map <- [DW_OP_plus_uconst 96, DW_OP_stack_value] $sp
	//DEBUG_VALUE: ext4_mas_mpage_readpages:bdev <- [DW_OP_plus_uconst 32] [$sp+0]
	//DEBUG_VALUE: ext4_mas_mpage_readpages:blkbits <- [DW_OP_plus_uconst 80] [$sp+0]
	//DEBUG_VALUE: pch_update_blcoks:blocks <- [DW_OP_constu 72, DW_OP_minus, DW_OP_stack_value] $fp
	//DEBUG_VALUE: pch_update_blcoks:relative_block <- 0
	//DEBUG_VALUE: fully_mapped <- 1
	//DEBUG_VALUE: ext4_mas_mpage_readpages:relative_block <- 0
	.loc	1 0 7                           // kernel/platform_source/basicplatform/fs/filemap_manager/pagecache_manage.c:0:7
	ldr	x10, [sp, #96]
.Ltmp319:
.LBB14_35:                              //   Parent Loop BB14_7 Depth=1
                                        //     Parent Loop BB14_24 Depth=2
                                        //       Parent Loop BB14_26 Depth=3
                                        // =>      This Inner Loop Header: Depth=4
	//DEBUG_VALUE: ext4_mas_mpage_readpages:rac <- $x24
	//DEBUG_VALUE: ext4_mas_mpage_readpages:page <- $x22
	//DEBUG_VALUE: ext4_mas_mpage_readpages:last_block <- $x20
	//DEBUG_VALUE: ext4_mas_mpage_readpages:nr_pages <- $x19
	//DEBUG_VALUE: pch_update_blcoks:blocks_per_page <- $w28
	//DEBUG_VALUE: ext4_mas_mpage_readpages:blocks_per_page <- $w28
	//DEBUG_VALUE: pch_update_blcoks:map <- [DW_OP_plus_uconst 96, DW_OP_stack_value] $sp
	//DEBUG_VALUE: ext4_mas_mpage_readpages:bdev <- [DW_OP_plus_uconst 32] [$sp+0]
	//DEBUG_VALUE: ext4_mas_mpage_readpages:blkbits <- [DW_OP_plus_uconst 80] [$sp+0]
	//DEBUG_VALUE: pch_update_blcoks:blocks <- [DW_OP_constu 72, DW_OP_minus, DW_OP_stack_value] $fp
	//DEBUG_VALUE: fully_mapped <- 1
	//DEBUG_VALUE: ext4_mas_mpage_readpages:relative_block <- 0
	//DEBUG_VALUE: pch_update_blcoks:relative_block <- undef
	.loc	1 342 14 is_stmt 1              // kernel/platform_source/basicplatform/fs/filemap_manager/pagecache_manage.c:342:14
	cmp	w28, w23
	b.eq	.LBB14_43
.Ltmp320:
// %bb.36:                              //   in Loop: Header=BB14_35 Depth=4
	//DEBUG_VALUE: ext4_mas_mpage_readpages:rac <- $x24
	//DEBUG_VALUE: ext4_mas_mpage_readpages:page <- $x22
	//DEBUG_VALUE: ext4_mas_mpage_readpages:last_block <- $x20
	//DEBUG_VALUE: ext4_mas_mpage_readpages:nr_pages <- $x19
	//DEBUG_VALUE: pch_update_blcoks:blocks_per_page <- $w28
	//DEBUG_VALUE: ext4_mas_mpage_readpages:blocks_per_page <- $w28
	//DEBUG_VALUE: pch_update_blcoks:map <- [DW_OP_plus_uconst 96, DW_OP_stack_value] $sp
	//DEBUG_VALUE: ext4_mas_mpage_readpages:bdev <- [DW_OP_plus_uconst 32] [$sp+0]
	//DEBUG_VALUE: ext4_mas_mpage_readpages:blkbits <- [DW_OP_plus_uconst 80] [$sp+0]
	//DEBUG_VALUE: pch_update_blcoks:blocks <- [DW_OP_constu 72, DW_OP_minus, DW_OP_stack_value] $fp
	//DEBUG_VALUE: fully_mapped <- 1
	//DEBUG_VALUE: ext4_mas_mpage_readpages:relative_block <- 0
	.loc	1 345 23                        // kernel/platform_source/basicplatform/fs/filemap_manager/pagecache_manage.c:345:23
	str	x10, [x11, w23, uxtw #3]
	.loc	1 346 16                        // kernel/platform_source/basicplatform/fs/filemap_manager/pagecache_manage.c:346:16
	add	w23, w23, #1                    // =1
	.loc	1 347 19                        // kernel/platform_source/basicplatform/fs/filemap_manager/pagecache_manage.c:347:19
	add	x21, x21, #1                    // =1
.Ltmp321:
	//DEBUG_VALUE: pch_update_blcoks:relative_block <- [DW_OP_plus_uconst 1, DW_OP_stack_value] undef
	.loc	1 338 22                        // kernel/platform_source/basicplatform/fs/filemap_manager/pagecache_manage.c:338:22
	subs	x9, x9, #1                      // =1
	add	x10, x10, #1                    // =1
.Ltmp322:
	.loc	1 338 7 is_stmt 0               // kernel/platform_source/basicplatform/fs/filemap_manager/pagecache_manage.c:338:7
	b.ne	.LBB14_35
	b	.LBB14_25
.Ltmp323:
.LBB14_37:                              //   in Loop: Header=BB14_24 Depth=2
	//DEBUG_VALUE: ext4_mas_mpage_readpages:rac <- $x24
	//DEBUG_VALUE: ext4_mas_mpage_readpages:page <- $x22
	//DEBUG_VALUE: ext4_mas_mpage_readpages:block_in_file <- $x21
	//DEBUG_VALUE: ext4_mas_mpage_readpages:last_block <- $x20
	//DEBUG_VALUE: ext4_mas_mpage_readpages:nr_pages <- $x19
	//DEBUG_VALUE: pch_mapped:blocks_per_page <- $w28
	//DEBUG_VALUE: ext4_mas_mpage_readpages:blocks_per_page <- $w28
	//DEBUG_VALUE: ext4_mas_mpage_readpages:page_block <- $w23
	//DEBUG_VALUE: pch_mapped:map <- [DW_OP_plus_uconst 96, DW_OP_stack_value] $sp
	//DEBUG_VALUE: ext4_mas_mpage_readpages:bdev <- [DW_OP_plus_uconst 32] [$sp+0]
	//DEBUG_VALUE: ext4_mas_mpage_readpages:blkbits <- [DW_OP_plus_uconst 80] [$sp+0]
	//DEBUG_VALUE: fully_mapped <- 1
	//DEBUG_VALUE: ext4_mas_mpage_readpages:relative_block <- 0
	.loc	1 428 9 is_stmt 1               // kernel/platform_source/basicplatform/fs/filemap_manager/pagecache_manage.c:428:9
	cmp	w26, w28
	csel	w26, w23, w26, eq
.Ltmp324:
	//DEBUG_VALUE: first_hole <- $w26
	.loc	1 430 18                        // kernel/platform_source/basicplatform/fs/filemap_manager/pagecache_manage.c:430:18
	add	w23, w23, #1                    // =1
.Ltmp325:
	//DEBUG_VALUE: ext4_mas_mpage_readpages:page_block <- $w23
	.loc	1 0 18 is_stmt 0                // kernel/platform_source/basicplatform/fs/filemap_manager/pagecache_manage.c:0:18
	mov	w27, wzr
.Ltmp326:
	.loc	1 483 3 is_stmt 1               // kernel/platform_source/basicplatform/fs/filemap_manager/pagecache_manage.c:483:3
	cmp	w23, w28
.Ltmp327:
	.loc	1 431 21                        // kernel/platform_source/basicplatform/fs/filemap_manager/pagecache_manage.c:431:21
	add	x21, x21, #1                    // =1
.Ltmp328:
	.loc	1 0 21 is_stmt 0                // kernel/platform_source/basicplatform/fs/filemap_manager/pagecache_manage.c:0:21
	str	wzr, [sp, #44]                  // 4-byte Folded Spill
.Ltmp329:
	.loc	1 483 3 is_stmt 1               // kernel/platform_source/basicplatform/fs/filemap_manager/pagecache_manage.c:483:3
	b.lo	.LBB14_24
	b	.LBB14_45
.Ltmp330:
.LBB14_38:                              //   in Loop: Header=BB14_7 Depth=1
	//DEBUG_VALUE: ext4_mas_mpage_readpages:rac <- $x24
	//DEBUG_VALUE: ext4_mas_mpage_readpages:page <- $x22
	//DEBUG_VALUE: ext4_mas_mpage_readpages:nr_pages <- $x19
	//DEBUG_VALUE: ext4_mas_mpage_readpages:blocks_per_page <- $w28
	//DEBUG_VALUE: ext4_mas_mpage_readpages:bdev <- [DW_OP_plus_uconst 32] [$sp+0]
	//DEBUG_VALUE: ext4_mas_mpage_readpages:blkbits <- [DW_OP_plus_uconst 80] [$sp+0]
	//DEBUG_VALUE: fully_mapped <- 1
	//DEBUG_VALUE: ext4_mas_mpage_readpages:relative_block <- 0
	//DEBUG_VALUE: ext4_mas_mpage_readpages:page <- $x22
	//DEBUG_VALUE: ext4_mas_mpage_readpages:bio <- $x25
	//DEBUG_VALUE: pch_confused:bio <- $x25
	//DEBUG_VALUE: pch_confused:page <- $x22
	//DEBUG_VALUE: pch_confused:io_submited <- undef
	//DEBUG_LABEL: confused
	.loc	1 369 6                         // kernel/platform_source/basicplatform/fs/filemap_manager/pagecache_manage.c:369:6
	cbz	x25, .LBB14_40
.Ltmp331:
// %bb.39:                              //   in Loop: Header=BB14_7 Depth=1
	//DEBUG_VALUE: pch_confused:bio <- $x25
	//DEBUG_VALUE: ext4_mas_mpage_readpages:bio <- $x25
	//DEBUG_VALUE: ext4_mas_mpage_readpages:rac <- $x24
	//DEBUG_VALUE: pch_confused:page <- $x22
	//DEBUG_VALUE: ext4_mas_mpage_readpages:page <- $x22
	//DEBUG_VALUE: ext4_mas_mpage_readpages:nr_pages <- $x19
	//DEBUG_VALUE: ext4_mas_mpage_readpages:blocks_per_page <- $w28
	//DEBUG_VALUE: ext4_mas_mpage_readpages:bdev <- [DW_OP_plus_uconst 32] [$sp+0]
	//DEBUG_VALUE: ext4_mas_mpage_readpages:blkbits <- [DW_OP_plus_uconst 80] [$sp+0]
	//DEBUG_VALUE: fully_mapped <- 1
	//DEBUG_VALUE: ext4_mas_mpage_readpages:relative_block <- 0
	.loc	1 0 6 is_stmt 0                 // kernel/platform_source/basicplatform/fs/filemap_manager/pagecache_manage.c:0:6
	ldr	w8, [sp, #76]                   // 4-byte Folded Reload
.Ltmp332:
	.loc	1 373 3 is_stmt 1               // kernel/platform_source/basicplatform/fs/filemap_manager/pagecache_manage.c:373:3
	mov	x0, x25
	.loc	1 371 17                        // kernel/platform_source/basicplatform/fs/filemap_manager/pagecache_manage.c:371:17
	add	w8, w8, #1                      // =1
	str	w8, [sp, #76]                   // 4-byte Folded Spill
	.loc	1 373 3                         // kernel/platform_source/basicplatform/fs/filemap_manager/pagecache_manage.c:373:3
	bl	ext4_submit_bio_read
.Ltmp333:
	//DEBUG_VALUE: pch_confused:bio <- 0
.LBB14_40:                              //   in Loop: Header=BB14_7 Depth=1
	//DEBUG_VALUE: ext4_mas_mpage_readpages:bio <- $x25
	//DEBUG_VALUE: ext4_mas_mpage_readpages:rac <- $x24
	//DEBUG_VALUE: pch_confused:page <- $x22
	//DEBUG_VALUE: ext4_mas_mpage_readpages:page <- $x22
	//DEBUG_VALUE: ext4_mas_mpage_readpages:nr_pages <- $x19
	//DEBUG_VALUE: ext4_mas_mpage_readpages:blocks_per_page <- $w28
	//DEBUG_VALUE: ext4_mas_mpage_readpages:bdev <- [DW_OP_plus_uconst 32] [$sp+0]
	//DEBUG_VALUE: ext4_mas_mpage_readpages:blkbits <- [DW_OP_plus_uconst 80] [$sp+0]
	//DEBUG_VALUE: fully_mapped <- 1
	//DEBUG_VALUE: ext4_mas_mpage_readpages:relative_block <- 0
	//DEBUG_VALUE: PageUptodate:page <- $x22
	//DEBUG_VALUE: compound_head:page <- $x22
	.loc	181 228 23                      // kernel/include/linux/page-flags.h:228:23
	ldr	x8, [x22, #8]
.Ltmp334:
	//DEBUG_VALUE: compound_head:head <- $x8
	.loc	181 230 6                       // kernel/include/linux/page-flags.h:230:6
	sub	x9, x8, #1                      // =1
	tst	x8, #0x1
	csel	x8, x22, x9, eq
.Ltmp335:
	//DEBUG_VALUE: test_bit:nr <- 2
	//DEBUG_VALUE: test_bit:addr <- $x8
	//DEBUG_VALUE: PageUptodate:page <- $x8
	.loc	188 106 16                      // kernel/include/asm-generic/bitops/non-atomic.h:106:16
	ldr	x8, [x8]
.Ltmp336:
	//DEBUG_VALUE: PageUptodate:ret <- [DW_OP_constu 2, DW_OP_shr, DW_OP_LLVM_convert 64 7, DW_OP_LLVM_convert 32 7, DW_OP_constu 1, DW_OP_and, DW_OP_stack_value] $x8
	.loc	181 638 6                       // kernel/include/linux/page-flags.h:638:6
	tbnz	w8, #2, .LBB14_42
.Ltmp337:
// %bb.41:                              //   in Loop: Header=BB14_7 Depth=1
	//DEBUG_VALUE: ext4_mas_mpage_readpages:bio <- $x25
	//DEBUG_VALUE: ext4_mas_mpage_readpages:rac <- $x24
	//DEBUG_VALUE: pch_confused:page <- $x22
	//DEBUG_VALUE: ext4_mas_mpage_readpages:page <- $x22
	//DEBUG_VALUE: ext4_mas_mpage_readpages:nr_pages <- $x19
	//DEBUG_VALUE: ext4_mas_mpage_readpages:blocks_per_page <- $w28
	//DEBUG_VALUE: ext4_mas_mpage_readpages:bdev <- [DW_OP_plus_uconst 32] [$sp+0]
	//DEBUG_VALUE: ext4_mas_mpage_readpages:blkbits <- [DW_OP_plus_uconst 80] [$sp+0]
	//DEBUG_VALUE: fully_mapped <- 1
	//DEBUG_VALUE: ext4_mas_mpage_readpages:relative_block <- 0
	.loc	1 377 3                         // kernel/platform_source/basicplatform/fs/filemap_manager/pagecache_manage.c:377:3
	adrp	x1, ext4_get_block
	mov	x0, x22
	add	x1, x1, :lo12:ext4_get_block
	bl	block_read_full_page
.Ltmp338:
	.loc	1 0 3 is_stmt 0                 // kernel/platform_source/basicplatform/fs/filemap_manager/pagecache_manage.c:0:3
	b	.LBB14_48
.Ltmp339:
.LBB14_42:                              //   in Loop: Header=BB14_7 Depth=1
	//DEBUG_VALUE: ext4_mas_mpage_readpages:bio <- $x25
	//DEBUG_VALUE: ext4_mas_mpage_readpages:rac <- $x24
	//DEBUG_VALUE: pch_confused:page <- $x22
	//DEBUG_VALUE: ext4_mas_mpage_readpages:page <- $x22
	//DEBUG_VALUE: ext4_mas_mpage_readpages:nr_pages <- $x19
	//DEBUG_VALUE: PageUptodate:ret <- [DW_OP_constu 2, DW_OP_shr, DW_OP_LLVM_convert 64 7, DW_OP_LLVM_convert 32 7, DW_OP_constu 1, DW_OP_and, DW_OP_stack_value] $x8
	//DEBUG_VALUE: ext4_mas_mpage_readpages:blocks_per_page <- $w28
	//DEBUG_VALUE: ext4_mas_mpage_readpages:bdev <- [DW_OP_plus_uconst 32] [$sp+0]
	//DEBUG_VALUE: ext4_mas_mpage_readpages:blkbits <- [DW_OP_plus_uconst 80] [$sp+0]
	//DEBUG_VALUE: fully_mapped <- 1
	//DEBUG_VALUE: ext4_mas_mpage_readpages:relative_block <- 0
	.loc	181 639 3 is_stmt 1             // kernel/include/linux/page-flags.h:639:3
	//APP
	dmb	ishld
	//NO_APP
.Ltmp340:
	.loc	1 379 3                         // kernel/platform_source/basicplatform/fs/filemap_manager/pagecache_manage.c:379:3
	mov	x0, x22
	bl	unlock_page
.Ltmp341:
	.loc	1 0 3 is_stmt 0                 // kernel/platform_source/basicplatform/fs/filemap_manager/pagecache_manage.c:0:3
	b	.LBB14_48
.Ltmp342:
.LBB14_43:                              //   in Loop: Header=BB14_7 Depth=1
	//DEBUG_VALUE: ext4_mas_mpage_readpages:rac <- $x24
	//DEBUG_VALUE: ext4_mas_mpage_readpages:page <- $x22
	//DEBUG_VALUE: ext4_mas_mpage_readpages:last_block <- $x20
	//DEBUG_VALUE: ext4_mas_mpage_readpages:nr_pages <- $x19
	//DEBUG_VALUE: pch_update_blcoks:blocks_per_page <- $w28
	//DEBUG_VALUE: ext4_mas_mpage_readpages:blocks_per_page <- $w28
	//DEBUG_VALUE: pch_update_blcoks:map <- [DW_OP_plus_uconst 96, DW_OP_stack_value] $sp
	//DEBUG_VALUE: ext4_mas_mpage_readpages:bdev <- [DW_OP_plus_uconst 32] [$sp+0]
	//DEBUG_VALUE: ext4_mas_mpage_readpages:blkbits <- [DW_OP_plus_uconst 80] [$sp+0]
	//DEBUG_VALUE: pch_update_blcoks:blocks <- [DW_OP_constu 72, DW_OP_minus, DW_OP_stack_value] $fp
	//DEBUG_VALUE: fully_mapped <- 1
	//DEBUG_VALUE: ext4_mas_mpage_readpages:relative_block <- 0
	ldr	w27, [sp, #44]                  // 4-byte Folded Reload
.Ltmp343:
.LBB14_44:                              //   in Loop: Header=BB14_7 Depth=1
	//DEBUG_VALUE: ext4_mas_mpage_readpages:rac <- $x24
	//DEBUG_VALUE: ext4_mas_mpage_readpages:page <- $x22
	//DEBUG_VALUE: ext4_mas_mpage_readpages:nr_pages <- $x19
	//DEBUG_VALUE: ext4_mas_mpage_readpages:blocks_per_page <- $w28
	//DEBUG_VALUE: ext4_mas_mpage_readpages:bdev <- [DW_OP_plus_uconst 32] [$sp+0]
	//DEBUG_VALUE: ext4_mas_mpage_readpages:blkbits <- [DW_OP_plus_uconst 80] [$sp+0]
	//DEBUG_VALUE: fully_mapped <- 1
	//DEBUG_VALUE: ext4_mas_mpage_readpages:relative_block <- 0
	mov	w26, w28
.Ltmp344:
.LBB14_45:                              //   in Loop: Header=BB14_7 Depth=1
	//DEBUG_VALUE: ext4_mas_mpage_readpages:rac <- $x24
	//DEBUG_VALUE: ext4_mas_mpage_readpages:page <- $x22
	//DEBUG_VALUE: ext4_mas_mpage_readpages:nr_pages <- $x19
	//DEBUG_VALUE: ext4_mas_mpage_readpages:blocks_per_page <- $w28
	//DEBUG_VALUE: ext4_mas_mpage_readpages:bdev <- [DW_OP_plus_uconst 32] [$sp+0]
	//DEBUG_VALUE: ext4_mas_mpage_readpages:blkbits <- [DW_OP_plus_uconst 80] [$sp+0]
	//DEBUG_VALUE: fully_mapped <- 1
	//DEBUG_VALUE: ext4_mas_mpage_readpages:relative_block <- 0
	//DEBUG_VALUE: ext4_mas_mpage_readpages:page <- $x22
	//DEBUG_VALUE: fully_mapped <- $w27
	//DEBUG_VALUE: first_hole <- $w26
	ldp	x5, x4, [sp, #80]               // 16-byte Folded Reload
	.loc	1 503 9 is_stmt 1               // kernel/platform_source/basicplatform/fs/filemap_manager/pagecache_manage.c:503:9
	mov	w0, w26
	mov	w1, w28
	mov	x2, x22
	mov	w3, w27
                                        // kill: def $w5 killed $w5 killed $x5
	bl	pch_map_more_blocks
.Ltmp345:
	//DEBUG_VALUE: ret <- $w0
	.loc	1 504 6                         // kernel/platform_source/basicplatform/fs/filemap_manager/pagecache_manage.c:504:6
	cmp	w0, #1                          // =1
	b.eq	.LBB14_48
.Ltmp346:
// %bb.46:                              //   in Loop: Header=BB14_7 Depth=1
	//DEBUG_VALUE: ext4_mas_mpage_readpages:rac <- $x24
	//DEBUG_VALUE: ext4_mas_mpage_readpages:page <- $x22
	//DEBUG_VALUE: ext4_mas_mpage_readpages:nr_pages <- $x19
	//DEBUG_VALUE: ext4_mas_mpage_readpages:blocks_per_page <- $w28
	//DEBUG_VALUE: fully_mapped <- $w27
	//DEBUG_VALUE: first_hole <- $w26
	//DEBUG_VALUE: ret <- $w0
	//DEBUG_VALUE: ext4_mas_mpage_readpages:bdev <- [DW_OP_plus_uconst 32] [$sp+0]
	//DEBUG_VALUE: ext4_mas_mpage_readpages:blkbits <- [DW_OP_plus_uconst 80] [$sp+0]
	//DEBUG_VALUE: ext4_mas_mpage_readpages:relative_block <- 0
	cmp	w0, #2                          // =2
	b.ne	.LBB14_55
.Ltmp347:
.LBB14_47:                              //   in Loop: Header=BB14_7 Depth=1
	//DEBUG_VALUE: ext4_mas_mpage_readpages:rac <- $x24
	//DEBUG_VALUE: ext4_mas_mpage_readpages:page <- $x22
	//DEBUG_VALUE: ext4_mas_mpage_readpages:nr_pages <- $x19
	//DEBUG_VALUE: ext4_mas_mpage_readpages:blocks_per_page <- $w28
	//DEBUG_VALUE: ext4_mas_mpage_readpages:bdev <- [DW_OP_plus_uconst 32] [$sp+0]
	//DEBUG_VALUE: ext4_mas_mpage_readpages:blkbits <- [DW_OP_plus_uconst 80] [$sp+0]
	//DEBUG_VALUE: ext4_mas_mpage_readpages:relative_block <- 0
	//DEBUG_VALUE: ext4_mas_mpage_readpages:page <- $x22
	//DEBUG_LABEL: set_error_page
	.loc	1 490 6                         // kernel/platform_source/basicplatform/fs/filemap_manager/pagecache_manage.c:490:6
	mov	x0, x22
	bl	pch_set_error_page
.Ltmp348:
.LBB14_48:                              //   in Loop: Header=BB14_7 Depth=1
	//DEBUG_VALUE: ext4_mas_mpage_readpages:rac <- $x24
	//DEBUG_VALUE: ext4_mas_mpage_readpages:page <- $x22
	//DEBUG_VALUE: ext4_mas_mpage_readpages:nr_pages <- $x19
	//DEBUG_VALUE: ext4_mas_mpage_readpages:blocks_per_page <- $w28
	//DEBUG_VALUE: ext4_mas_mpage_readpages:bdev <- [DW_OP_plus_uconst 32] [$sp+0]
	//DEBUG_VALUE: ext4_mas_mpage_readpages:blkbits <- [DW_OP_plus_uconst 80] [$sp+0]
	//DEBUG_VALUE: ext4_mas_mpage_readpages:relative_block <- 0
	.loc	1 0 6 is_stmt 0                 // kernel/platform_source/basicplatform/fs/filemap_manager/pagecache_manage.c:0:6
	ldr	x21, [sp, #64]                  // 8-byte Folded Reload
.Ltmp349:
.LBB14_49:                              //   in Loop: Header=BB14_7 Depth=1
	//DEBUG_VALUE: ext4_mas_mpage_readpages:rac <- $x24
	//DEBUG_VALUE: ext4_mas_mpage_readpages:page <- $x22
	//DEBUG_VALUE: ext4_mas_mpage_readpages:nr_pages <- $x19
	//DEBUG_VALUE: ext4_mas_mpage_readpages:blocks_per_page <- $w28
	//DEBUG_VALUE: ext4_mas_mpage_readpages:bdev <- [DW_OP_plus_uconst 32] [$sp+0]
	//DEBUG_VALUE: ext4_mas_mpage_readpages:blkbits <- [DW_OP_plus_uconst 80] [$sp+0]
	//DEBUG_VALUE: ext4_mas_mpage_readpages:relative_block <- 0
	//DEBUG_LABEL: next_page
	.loc	1 539 7 is_stmt 1               // kernel/platform_source/basicplatform/fs/filemap_manager/pagecache_manage.c:539:7
	cbz	x24, .LBB14_6
.Ltmp350:
// %bb.50:                              //   in Loop: Header=BB14_7 Depth=1
	//DEBUG_VALUE: ext4_mas_mpage_readpages:rac <- $x24
	//DEBUG_VALUE: ext4_mas_mpage_readpages:page <- $x22
	//DEBUG_VALUE: ext4_mas_mpage_readpages:nr_pages <- $x19
	//DEBUG_VALUE: ext4_mas_mpage_readpages:blocks_per_page <- $w28
	//DEBUG_VALUE: ext4_mas_mpage_readpages:bdev <- [DW_OP_plus_uconst 32] [$sp+0]
	//DEBUG_VALUE: ext4_mas_mpage_readpages:blkbits <- [DW_OP_plus_uconst 80] [$sp+0]
	//DEBUG_VALUE: ext4_mas_mpage_readpages:relative_block <- 0
	//DEBUG_VALUE: ext4_mas_mpage_readpages:page <- $x22
	//DEBUG_VALUE: put_page:page <- $x22
	//DEBUG_VALUE: compound_head:page <- $x22
	.loc	181 228 23                      // kernel/include/linux/page-flags.h:228:23
	ldr	x8, [x22, #8]
.Ltmp351:
	//DEBUG_VALUE: compound_head:head <- $x8
	.loc	183 112 1                       // kernel/arch/arm64/include/asm/atomic_ll_sc.h:112:1
	mov	w10, #1
.Ltmp352:
	.loc	181 230 6                       // kernel/include/linux/page-flags.h:230:6
	sub	x9, x8, #1                      // =1
	tst	x8, #0x1
	csel	x26, x22, x9, eq
.Ltmp353:
	//DEBUG_VALUE: __ll_sc_atomic_sub_return:i <- 1
	//DEBUG_VALUE: arch_atomic_sub_return:i <- 1
	//DEBUG_VALUE: __ll_sc_atomic_sub_return:v <- [DW_OP_plus_uconst 52, DW_OP_stack_value] $x26
	//DEBUG_VALUE: arch_atomic_sub_return:v <- [DW_OP_plus_uconst 52, DW_OP_stack_value] $x26
	//DEBUG_VALUE: arch_atomic_dec_return:v <- [DW_OP_plus_uconst 52, DW_OP_stack_value] $x26
	//DEBUG_VALUE: arch_atomic_dec_and_test:v <- [DW_OP_plus_uconst 52, DW_OP_stack_value] $x26
	//DEBUG_VALUE: atomic_dec_and_test:v <- [DW_OP_plus_uconst 52, DW_OP_stack_value] $x26
	//DEBUG_VALUE: page_ref_dec_and_test:page <- $x26
	//DEBUG_VALUE: put_page_testzero:page <- $x26
	//DEBUG_VALUE: put_page:page <- $x26
	.loc	183 112 1                       // kernel/arch/arm64/include/asm/atomic_ll_sc.h:112:1
	add	x8, x26, #52                    // =52
.Ltmp354:
	//APP
	// atomic_sub_return
	prfm	pstl1strm, [x8]
.Ltmp355:
	ldxr	w20, [x8]
	sub	w20, w20, w10
	stlxr	w9, w20, [x8]
	cbnz	w9, .Ltmp355
	dmb	ish
	//NO_APP
.Ltmp356:
	//DEBUG_VALUE: page_ref_dec_and_test:ret <- [DW_OP_LLVM_convert 1 7, DW_OP_LLVM_convert 32 7, DW_OP_stack_value] undef
	//DEBUG_VALUE: __ll_sc_atomic_sub_return:tmp <- undef
	//DEBUG_VALUE: __ll_sc_atomic_sub_return:result <- undef
	.file	195 "/mnt/disk/jenkins/ci/workspace/chipset_pipeline_release/opensource/component_code/vendor/huawei/extra/build/build_script/kirin_kernel_release" "kernel/include/linux/page_ref.h"
	.loc	195 180 6                       // kernel/include/linux/page_ref.h:180:6
	bl	get_himntn_cma_trace_flag
.Ltmp357:
	.loc	195 180 6 is_stmt 0             // kernel/include/linux/page_ref.h:180:6
	cbz	w0, .LBB14_52
.Ltmp358:
// %bb.51:                              //   in Loop: Header=BB14_7 Depth=1
	//DEBUG_VALUE: put_page:page <- $x26
	//DEBUG_VALUE: put_page_testzero:page <- $x26
	//DEBUG_VALUE: page_ref_dec_and_test:page <- $x26
	//DEBUG_VALUE: ext4_mas_mpage_readpages:rac <- $x24
	//DEBUG_VALUE: ext4_mas_mpage_readpages:page <- $x22
	//DEBUG_VALUE: ext4_mas_mpage_readpages:nr_pages <- $x19
	//DEBUG_VALUE: ext4_mas_mpage_readpages:blocks_per_page <- $w28
	//DEBUG_VALUE: ext4_mas_mpage_readpages:bdev <- [DW_OP_plus_uconst 32] [$sp+0]
	//DEBUG_VALUE: ext4_mas_mpage_readpages:blkbits <- [DW_OP_plus_uconst 80] [$sp+0]
	//DEBUG_VALUE: ext4_mas_mpage_readpages:relative_block <- 0
	.loc	195 181 3 is_stmt 1             // kernel/include/linux/page_ref.h:181:3
	mov	w1, #-1
	mov	x0, x26
	mov	w2, wzr
	bl	cma_page_count_stack_saved
.Ltmp359:
.LBB14_52:                              //   in Loop: Header=BB14_7 Depth=1
	//DEBUG_VALUE: put_page:page <- $x26
	//DEBUG_VALUE: ext4_mas_mpage_readpages:rac <- $x24
	//DEBUG_VALUE: ext4_mas_mpage_readpages:page <- $x22
	//DEBUG_VALUE: ext4_mas_mpage_readpages:nr_pages <- $x19
	//DEBUG_VALUE: ext4_mas_mpage_readpages:blocks_per_page <- $w28
	//DEBUG_VALUE: ext4_mas_mpage_readpages:bdev <- [DW_OP_plus_uconst 32] [$sp+0]
	//DEBUG_VALUE: ext4_mas_mpage_readpages:blkbits <- [DW_OP_plus_uconst 80] [$sp+0]
	//DEBUG_VALUE: ext4_mas_mpage_readpages:relative_block <- 0
	//DEBUG_VALUE: __ll_sc_atomic_sub_return:result <- $w20
	//DEBUG_VALUE: page_ref_dec_and_test:ret <- [DW_OP_LLVM_convert 1 7, DW_OP_LLVM_convert 32 7, DW_OP_stack_value] undef
	//DEBUG_VALUE: put_page_testzero:ret <- [DW_OP_LLVM_convert 1 7, DW_OP_LLVM_convert 32 7, DW_OP_stack_value] undef
	.loc	64 1277 6                       // kernel/include/linux/mm.h:1277:6
	cbnz	w20, .LBB14_6
.Ltmp360:
// %bb.53:                              //   in Loop: Header=BB14_7 Depth=1
	//DEBUG_VALUE: put_page:page <- $x26
	//DEBUG_VALUE: ext4_mas_mpage_readpages:rac <- $x24
	//DEBUG_VALUE: ext4_mas_mpage_readpages:page <- $x22
	//DEBUG_VALUE: ext4_mas_mpage_readpages:nr_pages <- $x19
	//DEBUG_VALUE: ext4_mas_mpage_readpages:blocks_per_page <- $w28
	//DEBUG_VALUE: ext4_mas_mpage_readpages:bdev <- [DW_OP_plus_uconst 32] [$sp+0]
	//DEBUG_VALUE: ext4_mas_mpage_readpages:blkbits <- [DW_OP_plus_uconst 80] [$sp+0]
	//DEBUG_VALUE: ext4_mas_mpage_readpages:relative_block <- 0
	//DEBUG_VALUE: PageLB:page <- $x26
	//DEBUG_VALUE: test_bit:addr <- $x26
	//DEBUG_VALUE: test_bit:nr <- 25
	.loc	188 106 16                      // kernel/include/asm-generic/bitops/non-atomic.h:106:16
	ldr	x8, [x26]
.Ltmp361:
	.loc	64 1279 7                       // kernel/include/linux/mm.h:1279:7
	tbz	w8, #25, .LBB14_5
.Ltmp362:
// %bb.54:                              //   in Loop: Header=BB14_7 Depth=1
	//DEBUG_VALUE: put_page:page <- $x26
	//DEBUG_VALUE: ext4_mas_mpage_readpages:rac <- $x24
	//DEBUG_VALUE: ext4_mas_mpage_readpages:page <- $x22
	//DEBUG_VALUE: ext4_mas_mpage_readpages:nr_pages <- $x19
	//DEBUG_VALUE: ext4_mas_mpage_readpages:blocks_per_page <- $w28
	//DEBUG_VALUE: ext4_mas_mpage_readpages:bdev <- [DW_OP_plus_uconst 32] [$sp+0]
	//DEBUG_VALUE: ext4_mas_mpage_readpages:blkbits <- [DW_OP_plus_uconst 80] [$sp+0]
	//DEBUG_VALUE: ext4_mas_mpage_readpages:relative_block <- 0
	.loc	64 1280 20                      // kernel/include/linux/mm.h:1280:20
	mov	x0, x26
	bl	lb_page_to_gid
.Ltmp363:
	.loc	64 1280 4 is_stmt 0             // kernel/include/linux/mm.h:1280:4
	mov	w2, #1
	mov	x1, x26
	bl	lb_pages_detach
.Ltmp364:
	.loc	64 0 4                          // kernel/include/linux/mm.h:0:4
	b	.LBB14_5
.Ltmp365:
.LBB14_55:                              //   in Loop: Header=BB14_7 Depth=1
	//DEBUG_VALUE: ext4_mas_mpage_readpages:rac <- $x24
	//DEBUG_VALUE: ext4_mas_mpage_readpages:page <- $x22
	//DEBUG_VALUE: ext4_mas_mpage_readpages:nr_pages <- $x19
	//DEBUG_VALUE: ext4_mas_mpage_readpages:blocks_per_page <- $w28
	//DEBUG_VALUE: fully_mapped <- $w27
	//DEBUG_VALUE: first_hole <- $w26
	//DEBUG_VALUE: ret <- $w0
	//DEBUG_VALUE: ext4_mas_mpage_readpages:bdev <- [DW_OP_plus_uconst 32] [$sp+0]
	//DEBUG_VALUE: ext4_mas_mpage_readpages:blkbits <- [DW_OP_plus_uconst 80] [$sp+0]
	//DEBUG_VALUE: ext4_mas_mpage_readpages:relative_block <- 0
	//DEBUG_VALUE: fully_mapped <- $w27
	.loc	1 509 20 is_stmt 1              // kernel/platform_source/basicplatform/fs/filemap_manager/pagecache_manage.c:509:20
	cmp	w28, #1                         // =1
	b.ne	.LBB14_59
.Ltmp366:
// %bb.56:                              //   in Loop: Header=BB14_7 Depth=1
	//DEBUG_VALUE: ext4_mas_mpage_readpages:rac <- $x24
	//DEBUG_VALUE: ext4_mas_mpage_readpages:page <- $x22
	//DEBUG_VALUE: ext4_mas_mpage_readpages:nr_pages <- $x19
	//DEBUG_VALUE: ext4_mas_mpage_readpages:blocks_per_page <- $w28
	//DEBUG_VALUE: fully_mapped <- $w27
	//DEBUG_VALUE: first_hole <- $w26
	//DEBUG_VALUE: ret <- $w0
	//DEBUG_VALUE: ext4_mas_mpage_readpages:bdev <- [DW_OP_plus_uconst 32] [$sp+0]
	//DEBUG_VALUE: ext4_mas_mpage_readpages:blkbits <- [DW_OP_plus_uconst 80] [$sp+0]
	//DEBUG_VALUE: ext4_mas_mpage_readpages:relative_block <- 0
	cbz	w27, .LBB14_59
.Ltmp367:
// %bb.57:                              //   in Loop: Header=BB14_7 Depth=1
	//DEBUG_VALUE: ext4_mas_mpage_readpages:rac <- $x24
	//DEBUG_VALUE: ext4_mas_mpage_readpages:page <- $x22
	//DEBUG_VALUE: ext4_mas_mpage_readpages:nr_pages <- $x19
	//DEBUG_VALUE: ext4_mas_mpage_readpages:blocks_per_page <- $w28
	//DEBUG_VALUE: fully_mapped <- $w27
	//DEBUG_VALUE: first_hole <- $w26
	//DEBUG_VALUE: ret <- $w0
	//DEBUG_VALUE: ext4_mas_mpage_readpages:bdev <- [DW_OP_plus_uconst 32] [$sp+0]
	//DEBUG_VALUE: ext4_mas_mpage_readpages:blkbits <- [DW_OP_plus_uconst 80] [$sp+0]
	//DEBUG_VALUE: ext4_mas_mpage_readpages:relative_block <- 0
	//DEBUG_VALUE: ext4_mas_mpage_readpages:page <- $x22
	//DEBUG_VALUE: PageUptodate:page <- $x22
	//DEBUG_VALUE: compound_head:page <- $x22
	.loc	181 228 23                      // kernel/include/linux/page-flags.h:228:23
	ldr	x8, [x22, #8]
.Ltmp368:
	//DEBUG_VALUE: compound_head:head <- $x8
	.loc	181 230 6                       // kernel/include/linux/page-flags.h:230:6
	sub	x9, x8, #1                      // =1
	tst	x8, #0x1
	csel	x8, x22, x9, eq
.Ltmp369:
	//DEBUG_VALUE: test_bit:nr <- 2
	//DEBUG_VALUE: test_bit:addr <- $x8
	//DEBUG_VALUE: PageUptodate:page <- $x8
	.loc	188 106 16                      // kernel/include/asm-generic/bitops/non-atomic.h:106:16
	ldr	x8, [x8]
.Ltmp370:
	//DEBUG_VALUE: PageUptodate:ret <- [DW_OP_constu 2, DW_OP_shr, DW_OP_LLVM_convert 64 7, DW_OP_LLVM_convert 32 7, DW_OP_constu 1, DW_OP_and, DW_OP_stack_value] $x8
	.loc	181 638 6                       // kernel/include/linux/page-flags.h:638:6
	tbz	w8, #2, .LBB14_59
.Ltmp371:
// %bb.58:                              //   in Loop: Header=BB14_7 Depth=1
	//DEBUG_VALUE: ext4_mas_mpage_readpages:rac <- $x24
	//DEBUG_VALUE: ext4_mas_mpage_readpages:page <- $x22
	//DEBUG_VALUE: ext4_mas_mpage_readpages:nr_pages <- $x19
	//DEBUG_VALUE: PageUptodate:ret <- [DW_OP_constu 2, DW_OP_shr, DW_OP_LLVM_convert 64 7, DW_OP_LLVM_convert 32 7, DW_OP_constu 1, DW_OP_and, DW_OP_stack_value] $x8
	//DEBUG_VALUE: ext4_mas_mpage_readpages:blocks_per_page <- $w28
	//DEBUG_VALUE: fully_mapped <- $w27
	//DEBUG_VALUE: first_hole <- $w26
	//DEBUG_VALUE: ret <- $w0
	//DEBUG_VALUE: ext4_mas_mpage_readpages:bdev <- [DW_OP_plus_uconst 32] [$sp+0]
	//DEBUG_VALUE: ext4_mas_mpage_readpages:blkbits <- [DW_OP_plus_uconst 80] [$sp+0]
	//DEBUG_VALUE: ext4_mas_mpage_readpages:relative_block <- 0
	.loc	181 639 3                       // kernel/include/linux/page-flags.h:639:3
	//APP
	dmb	ishld
	//NO_APP
.Ltmp372:
.LBB14_59:                              //   in Loop: Header=BB14_7 Depth=1
	//DEBUG_VALUE: ext4_mas_mpage_readpages:rac <- $x24
	//DEBUG_VALUE: ext4_mas_mpage_readpages:page <- $x22
	//DEBUG_VALUE: ext4_mas_mpage_readpages:nr_pages <- $x19
	//DEBUG_VALUE: ext4_mas_mpage_readpages:blocks_per_page <- $w28
	//DEBUG_VALUE: fully_mapped <- $w27
	//DEBUG_VALUE: first_hole <- $w26
	//DEBUG_VALUE: ret <- $w0
	//DEBUG_VALUE: ext4_mas_mpage_readpages:bdev <- [DW_OP_plus_uconst 32] [$sp+0]
	//DEBUG_VALUE: ext4_mas_mpage_readpages:blkbits <- [DW_OP_plus_uconst 80] [$sp+0]
	//DEBUG_VALUE: ext4_mas_mpage_readpages:relative_block <- 0
	//DEBUG_VALUE: ext4_mas_mpage_readpages:bio <- $x25
	.loc	1 515 11                        // kernel/platform_source/basicplatform/fs/filemap_manager/pagecache_manage.c:515:11
	cbz	x25, .LBB14_61
.Ltmp373:
// %bb.60:                              //   in Loop: Header=BB14_7 Depth=1
	//DEBUG_VALUE: ext4_mas_mpage_readpages:bio <- $x25
	//DEBUG_VALUE: ext4_mas_mpage_readpages:rac <- $x24
	//DEBUG_VALUE: ext4_mas_mpage_readpages:page <- $x22
	//DEBUG_VALUE: ext4_mas_mpage_readpages:nr_pages <- $x19
	//DEBUG_VALUE: ext4_mas_mpage_readpages:blocks_per_page <- $w28
	//DEBUG_VALUE: fully_mapped <- $w27
	//DEBUG_VALUE: first_hole <- $w26
	//DEBUG_VALUE: ret <- $w0
	//DEBUG_VALUE: ext4_mas_mpage_readpages:bdev <- [DW_OP_plus_uconst 32] [$sp+0]
	//DEBUG_VALUE: ext4_mas_mpage_readpages:blkbits <- [DW_OP_plus_uconst 80] [$sp+0]
	//DEBUG_VALUE: ext4_mas_mpage_readpages:relative_block <- 0
	//DEBUG_VALUE: ext4_mas_mpage_readpages:last_block_in_bio <- [DW_OP_plus_uconst 24] [$sp+0]
	.loc	1 515 36 is_stmt 0              // kernel/platform_source/basicplatform/fs/filemap_manager/pagecache_manage.c:515:36
	ldur	x8, [x29, #-72]
	ldr	x9, [sp, #24]                   // 8-byte Folded Reload
.Ltmp374:
	//DEBUG_VALUE: ext4_mas_mpage_readpages:last_block_in_bio <- $x9
	.loc	1 0 36                          // kernel/platform_source/basicplatform/fs/filemap_manager/pagecache_manage.c:0:36
	ldr	x21, [sp, #64]                  // 8-byte Folded Reload
	.loc	1 515 46                        // kernel/platform_source/basicplatform/fs/filemap_manager/pagecache_manage.c:515:46
	sub	x8, x8, #1                      // =1
	.loc	1 515 50                        // kernel/platform_source/basicplatform/fs/filemap_manager/pagecache_manage.c:515:50
	cmp	x9, x8
.Ltmp375:
	//DEBUG_VALUE: ext4_mas_mpage_readpages:last_block_in_bio <- [DW_OP_plus_uconst 24] [$sp+0]
	b.eq	.LBB14_63
	b	.LBB14_62
.Ltmp376:
.LBB14_61:                              //   in Loop: Header=BB14_7 Depth=1
	//DEBUG_VALUE: ext4_mas_mpage_readpages:bio <- $x25
	//DEBUG_VALUE: ext4_mas_mpage_readpages:rac <- $x24
	//DEBUG_VALUE: ext4_mas_mpage_readpages:page <- $x22
	//DEBUG_VALUE: ext4_mas_mpage_readpages:nr_pages <- $x19
	//DEBUG_VALUE: ext4_mas_mpage_readpages:blocks_per_page <- $w28
	//DEBUG_VALUE: fully_mapped <- $w27
	//DEBUG_VALUE: first_hole <- $w26
	//DEBUG_VALUE: ret <- $w0
	//DEBUG_VALUE: ext4_mas_mpage_readpages:bdev <- [DW_OP_plus_uconst 32] [$sp+0]
	//DEBUG_VALUE: ext4_mas_mpage_readpages:blkbits <- [DW_OP_plus_uconst 80] [$sp+0]
	//DEBUG_VALUE: ext4_mas_mpage_readpages:relative_block <- 0
	.loc	1 0 50                          // kernel/platform_source/basicplatform/fs/filemap_manager/pagecache_manage.c:0:50
	ldr	x21, [sp, #64]                  // 8-byte Folded Reload
	b	.LBB14_63
.Ltmp377:
.LBB14_62:                              //   in Loop: Header=BB14_7 Depth=1
	//DEBUG_VALUE: ext4_mas_mpage_readpages:bio <- $x25
	//DEBUG_VALUE: ext4_mas_mpage_readpages:rac <- $x24
	//DEBUG_VALUE: ext4_mas_mpage_readpages:page <- $x22
	//DEBUG_VALUE: ext4_mas_mpage_readpages:nr_pages <- $x19
	//DEBUG_VALUE: ext4_mas_mpage_readpages:blocks_per_page <- $w28
	//DEBUG_VALUE: first_hole <- $w26
	//DEBUG_VALUE: ext4_mas_mpage_readpages:bdev <- [DW_OP_plus_uconst 32] [$sp+0]
	//DEBUG_VALUE: ext4_mas_mpage_readpages:blkbits <- [DW_OP_plus_uconst 80] [$sp+0]
	//DEBUG_VALUE: ext4_mas_mpage_readpages:relative_block <- 0
	//DEBUG_VALUE: ext4_mas_mpage_readpages:io_submited <- [DW_OP_plus_uconst 76] [$sp+0]
	//DEBUG_LABEL: submit_and_realloc
	ldr	w8, [sp, #76]                   // 4-byte Folded Reload
.Ltmp378:
	//DEBUG_VALUE: ext4_mas_mpage_readpages:io_submited <- $w8
	.loc	1 521 4 is_stmt 1               // kernel/platform_source/basicplatform/fs/filemap_manager/pagecache_manage.c:521:4
	mov	x0, x25
	.loc	1 519 15                        // kernel/platform_source/basicplatform/fs/filemap_manager/pagecache_manage.c:519:15
	add	w8, w8, #1                      // =1
.Ltmp379:
	//DEBUG_VALUE: ext4_mas_mpage_readpages:io_submited <- $w8
	//DEBUG_VALUE: ext4_mas_mpage_readpages:bio <- $x25
	.loc	1 0 15 is_stmt 0                // kernel/platform_source/basicplatform/fs/filemap_manager/pagecache_manage.c:0:15
	str	w8, [sp, #76]                   // 4-byte Folded Spill
.Ltmp380:
	//DEBUG_VALUE: ext4_mas_mpage_readpages:io_submited <- [DW_OP_plus_uconst 76] [$sp+0]
	//DEBUG_VALUE: ext4_mas_mpage_readpages:io_submited <- [DW_OP_plus_uconst 76] [$sp+0]
	//DEBUG_VALUE: ext4_mas_mpage_readpages:io_submited <- [DW_OP_plus_uconst 76] [$sp+0]
	.loc	1 521 4 is_stmt 1               // kernel/platform_source/basicplatform/fs/filemap_manager/pagecache_manage.c:521:4
	bl	ext4_submit_bio_read
.Ltmp381:
	//DEBUG_VALUE: ext4_mas_mpage_readpages:bio <- 0
	.loc	1 0 0 is_stmt 0                 // kernel/platform_source/basicplatform/fs/filemap_manager/pagecache_manage.c:0:0
	mov	x25, xzr
.Ltmp382:
.LBB14_63:                              //   in Loop: Header=BB14_7 Depth=1
	//DEBUG_VALUE: ext4_mas_mpage_readpages:rac <- $x24
	//DEBUG_VALUE: ext4_mas_mpage_readpages:page <- $x22
	//DEBUG_VALUE: ext4_mas_mpage_readpages:nr_pages <- $x19
	//DEBUG_VALUE: ext4_mas_mpage_readpages:blocks_per_page <- $w28
	//DEBUG_VALUE: first_hole <- $w26
	//DEBUG_VALUE: ext4_mas_mpage_readpages:bdev <- [DW_OP_plus_uconst 32] [$sp+0]
	//DEBUG_VALUE: ext4_mas_mpage_readpages:blkbits <- [DW_OP_plus_uconst 80] [$sp+0]
	//DEBUG_VALUE: ext4_mas_mpage_readpages:relative_block <- 0
	//DEBUG_VALUE: ext4_mas_mpage_readpages:bio <- $x25
	.loc	1 524 7 is_stmt 1               // kernel/platform_source/basicplatform/fs/filemap_manager/pagecache_manage.c:524:7
	cbnz	x25, .LBB14_67
.Ltmp383:
// %bb.64:                              //   in Loop: Header=BB14_7 Depth=1
	//DEBUG_VALUE: ext4_mas_mpage_readpages:bio <- $x25
	//DEBUG_VALUE: ext4_mas_mpage_readpages:rac <- $x24
	//DEBUG_VALUE: ext4_mas_mpage_readpages:page <- $x22
	//DEBUG_VALUE: ext4_mas_mpage_readpages:nr_pages <- $x19
	//DEBUG_VALUE: ext4_mas_mpage_readpages:blocks_per_page <- $w28
	//DEBUG_VALUE: first_hole <- $w26
	//DEBUG_VALUE: ext4_mas_mpage_readpages:bdev <- [DW_OP_plus_uconst 32] [$sp+0]
	//DEBUG_VALUE: ext4_mas_mpage_readpages:blkbits <- [DW_OP_plus_uconst 80] [$sp+0]
	//DEBUG_VALUE: ext4_mas_mpage_readpages:relative_block <- 0
	//DEBUG_VALUE: ext4_mas_mpage_readpages:page <- $x22
	//DEBUG_VALUE: ext4_mas_mpage_readpages:next_block <- undef
	//DEBUG_VALUE: pch_set_bio:bio <- undef
	//DEBUG_VALUE: pch_set_bio:next_block <- undef
	//DEBUG_VALUE: pch_set_bio:inode <- [DW_OP_plus_uconst 88] [$sp+0]
	//DEBUG_VALUE: pch_set_bio:blocks <- undef
	//DEBUG_VALUE: pch_set_bio:blkbits <- undef
	//DEBUG_VALUE: pch_set_bio:bdev <- [DW_OP_plus_uconst 32] [$sp+0]
	//DEBUG_VALUE: pch_set_bio:nr_pages <- $x19
	//DEBUG_VALUE: pch_set_bio:page <- $x22
	//DEBUG_VALUE: pch_set_bio:rac <- $x24
	//DEBUG_VALUE: __UNIQUE_ID___x432 <- $x19
	//DEBUG_VALUE: __UNIQUE_ID___y433 <- 256
	.loc	1 297 3                         // kernel/platform_source/basicplatform/fs/filemap_manager/pagecache_manage.c:297:3
	cmp	w19, #256                       // =256
	mov	w8, #256
.Ltmp384:
	.loc	129 410 9                       // kernel/include/linux/bio.h:410:9
	adrp	x2, fs_bio_set
.Ltmp385:
	.loc	1 297 3                         // kernel/platform_source/basicplatform/fs/filemap_manager/pagecache_manage.c:297:3
	csel	w1, w19, w8, lt
.Ltmp386:
	//DEBUG_VALUE: bio_alloc:gfp_mask <- 3264
	//DEBUG_VALUE: bio_alloc:nr_iovecs <- $w1
	.loc	129 410 9                       // kernel/include/linux/bio.h:410:9
	mov	w0, #3264
	add	x2, x2, :lo12:fs_bio_set
	bl	bio_alloc_bioset
.Ltmp387:
	.loc	1 300 48                        // kernel/platform_source/basicplatform/fs/filemap_manager/pagecache_manage.c:300:48
	ldr	x2, [x22, #32]
	ldr	x1, [sp, #88]                   // 8-byte Folded Reload
.Ltmp388:
	.loc	129 410 9                       // kernel/include/linux/bio.h:410:9
	mov	x25, x0
.Ltmp389:
	//DEBUG_VALUE: bio_alloc:gfp_mask <- 3264
	.loc	1 300 2                         // kernel/platform_source/basicplatform/fs/filemap_manager/pagecache_manage.c:300:2
	bl	ext4_set_bio_post_read_ctx
.Ltmp390:
	.loc	1 0 2 is_stmt 0                 // kernel/platform_source/basicplatform/fs/filemap_manager/pagecache_manage.c:0:2
	ldr	x10, [sp, #32]                  // 8-byte Folded Reload
.Ltmp391:
	.loc	1 301 2 is_stmt 1               // kernel/platform_source/basicplatform/fs/filemap_manager/pagecache_manage.c:301:2
	ldr	x8, [x25, #8]
	ldr	x9, [x10, #176]
.Ltmp392:
	.loc	1 301 2 is_stmt 0               // kernel/platform_source/basicplatform/fs/filemap_manager/pagecache_manage.c:301:2
	cmp	x8, x9
	b.eq	.LBB14_66
.Ltmp393:
// %bb.65:                              //   in Loop: Header=BB14_7 Depth=1
	//DEBUG_VALUE: pch_set_bio:rac <- $x24
	//DEBUG_VALUE: ext4_mas_mpage_readpages:rac <- $x24
	//DEBUG_VALUE: pch_set_bio:page <- $x22
	//DEBUG_VALUE: ext4_mas_mpage_readpages:page <- $x22
	//DEBUG_VALUE: pch_set_bio:nr_pages <- $x19
	//DEBUG_VALUE: ext4_mas_mpage_readpages:nr_pages <- $x19
	//DEBUG_VALUE: ext4_mas_mpage_readpages:blocks_per_page <- $w28
	//DEBUG_VALUE: first_hole <- $w26
	//DEBUG_VALUE: pch_set_bio:bdev <- [DW_OP_plus_uconst 32] [$sp+0]
	//DEBUG_VALUE: pch_set_bio:inode <- [DW_OP_plus_uconst 88] [$sp+0]
	//DEBUG_VALUE: ext4_mas_mpage_readpages:bdev <- [DW_OP_plus_uconst 32] [$sp+0]
	//DEBUG_VALUE: ext4_mas_mpage_readpages:blkbits <- [DW_OP_plus_uconst 80] [$sp+0]
	//DEBUG_VALUE: ext4_mas_mpage_readpages:relative_block <- 0
	//DEBUG_VALUE: bio_clear_flag:bio <- $x25
	//DEBUG_VALUE: bio_clear_flag:bit <- 7
	.loc	129 250 16 is_stmt 1            // kernel/include/linux/bio.h:250:16
	ldrh	w8, [x25, #20]
	and	w8, w8, #0xffffff7f
	strh	w8, [x25, #20]
.Ltmp394:
	.loc	1 301 2                         // kernel/platform_source/basicplatform/fs/filemap_manager/pagecache_manage.c:301:2
	ldr	x8, [x10, #176]
.Ltmp395:
.LBB14_66:                              //   in Loop: Header=BB14_7 Depth=1
	//DEBUG_VALUE: pch_set_bio:rac <- $x24
	//DEBUG_VALUE: ext4_mas_mpage_readpages:rac <- $x24
	//DEBUG_VALUE: pch_set_bio:page <- $x22
	//DEBUG_VALUE: ext4_mas_mpage_readpages:page <- $x22
	//DEBUG_VALUE: pch_set_bio:nr_pages <- $x19
	//DEBUG_VALUE: ext4_mas_mpage_readpages:nr_pages <- $x19
	//DEBUG_VALUE: ext4_mas_mpage_readpages:blocks_per_page <- $w28
	//DEBUG_VALUE: first_hole <- $w26
	//DEBUG_VALUE: pch_set_bio:bdev <- [DW_OP_plus_uconst 32] [$sp+0]
	//DEBUG_VALUE: pch_set_bio:inode <- [DW_OP_plus_uconst 88] [$sp+0]
	//DEBUG_VALUE: ext4_mas_mpage_readpages:bdev <- [DW_OP_plus_uconst 32] [$sp+0]
	//DEBUG_VALUE: ext4_mas_mpage_readpages:blkbits <- [DW_OP_plus_uconst 80] [$sp+0]
	//DEBUG_VALUE: ext4_mas_mpage_readpages:relative_block <- 0
	str	x8, [x25, #8]
	ldrb	w8, [x10, #128]
	mov	x0, x25
	strb	w8, [x25, #27]
	bl	bio_associate_blkg
.Ltmp396:
	.loc	1 0 2 is_stmt 0                 // kernel/platform_source/basicplatform/fs/filemap_manager/pagecache_manage.c:0:2
	ldr	w8, [sp, #20]                   // 4-byte Folded Reload
.Ltmp397:
	//DEBUG_VALUE: bio_set_op_attrs:op_flags <- $w8
	//DEBUG_VALUE: bio_set_op_attrs:op <- 0
	//DEBUG_VALUE: bio_set_op_attrs:bio <- $x25
	.loc	1 527 19 is_stmt 1              // kernel/platform_source/basicplatform/fs/filemap_manager/pagecache_manage.c:527:19
	adrp	x9, mpage_end_io
	add	x9, x9, :lo12:mpage_end_io
.Ltmp398:
	.loc	7 702 14                        // kernel/include/linux/blk_types.h:702:14
	str	w8, [x25, #16]
.Ltmp399:
	//DEBUG_VALUE: bio_set_op_attrs:op_flags <- [DW_OP_plus_uconst 20] [$sp+0]
	.loc	1 526 29                        // kernel/platform_source/basicplatform/fs/filemap_manager/pagecache_manage.c:526:29
	ldur	x8, [x29, #-72]
	.loc	1 527 19                        // kernel/platform_source/basicplatform/fs/filemap_manager/pagecache_manage.c:527:19
	str	x9, [x25, #56]
	ldr	x9, [sp, #8]                    // 8-byte Folded Reload
	.loc	1 526 39                        // kernel/platform_source/basicplatform/fs/filemap_manager/pagecache_manage.c:526:39
	lsl	x8, x8, x9
.Ltmp400:
	//DEBUG_VALUE: ext4_mas_mpage_readpages:bio <- $x25
	.loc	1 526 27 is_stmt 0              // kernel/platform_source/basicplatform/fs/filemap_manager/pagecache_manage.c:526:27
	str	x8, [x25, #32]
.Ltmp401:
.LBB14_67:                              //   in Loop: Header=BB14_7 Depth=1
	//DEBUG_VALUE: ext4_mas_mpage_readpages:bio <- $x25
	//DEBUG_VALUE: ext4_mas_mpage_readpages:rac <- $x24
	//DEBUG_VALUE: ext4_mas_mpage_readpages:page <- $x22
	//DEBUG_VALUE: ext4_mas_mpage_readpages:nr_pages <- $x19
	//DEBUG_VALUE: ext4_mas_mpage_readpages:blocks_per_page <- $w28
	//DEBUG_VALUE: first_hole <- $w26
	//DEBUG_VALUE: ext4_mas_mpage_readpages:bdev <- [DW_OP_plus_uconst 32] [$sp+0]
	//DEBUG_VALUE: ext4_mas_mpage_readpages:blkbits <- [DW_OP_plus_uconst 80] [$sp+0]
	//DEBUG_VALUE: ext4_mas_mpage_readpages:relative_block <- 0
	//DEBUG_VALUE: first_hole <- $w26
	.loc	1 0 27                          // kernel/platform_source/basicplatform/fs/filemap_manager/pagecache_manage.c:0:27
	ldr	x8, [sp, #80]                   // 8-byte Folded Reload
.Ltmp402:
	.loc	1 531 7 is_stmt 1               // kernel/platform_source/basicplatform/fs/filemap_manager/pagecache_manage.c:531:7
	mov	x0, x25
	mov	x1, x22
	mov	w3, wzr
.Ltmp403:
	.loc	1 530 23                        // kernel/platform_source/basicplatform/fs/filemap_manager/pagecache_manage.c:530:23
	lsl	w27, w26, w8
.Ltmp404:
	//DEBUG_VALUE: ext4_mas_mpage_readpages:length <- $w27
	//DEBUG_VALUE: ext4_mas_mpage_readpages:bio <- $x25
	//DEBUG_VALUE: ext4_mas_mpage_readpages:page <- $x22
	.loc	1 531 7                         // kernel/platform_source/basicplatform/fs/filemap_manager/pagecache_manage.c:531:7
	mov	w2, w27
	bl	bio_add_page
.Ltmp405:
	.loc	1 531 7 is_stmt 0               // kernel/platform_source/basicplatform/fs/filemap_manager/pagecache_manage.c:531:7
	cmp	w0, w27
	b.lt	.LBB14_62
.Ltmp406:
// %bb.68:                              //   in Loop: Header=BB14_7 Depth=1
	//DEBUG_VALUE: ext4_mas_mpage_readpages:bio <- $x25
	//DEBUG_VALUE: ext4_mas_mpage_readpages:rac <- $x24
	//DEBUG_VALUE: ext4_mas_mpage_readpages:page <- $x22
	//DEBUG_VALUE: ext4_mas_mpage_readpages:nr_pages <- $x19
	//DEBUG_VALUE: ext4_mas_mpage_readpages:blocks_per_page <- $w28
	//DEBUG_VALUE: ext4_mas_mpage_readpages:length <- $w27
	//DEBUG_VALUE: first_hole <- $w26
	//DEBUG_VALUE: ext4_mas_mpage_readpages:bdev <- [DW_OP_plus_uconst 32] [$sp+0]
	//DEBUG_VALUE: ext4_mas_mpage_readpages:blkbits <- [DW_OP_plus_uconst 80] [$sp+0]
	//DEBUG_VALUE: ext4_mas_mpage_readpages:relative_block <- 0
	//DEBUG_VALUE: ext4_mas_mpage_readpages:bio <- $x25
	//DEBUG_VALUE: first_hole <- $w26
	//DEBUG_VALUE: pch_map_boundry:map <- [DW_OP_plus_uconst 96, DW_OP_stack_value] $sp
	//DEBUG_VALUE: pch_map_boundry:relative_block <- 0
	//DEBUG_VALUE: pch_map_boundry:blocks_per_page <- $w28
	//DEBUG_VALUE: pch_map_boundry:bio <- $x25
	//DEBUG_VALUE: pch_map_boundry:last_block_in_bio <- undef
	//DEBUG_VALUE: pch_map_boundry:blocks <- [DW_OP_constu 72, DW_OP_minus, DW_OP_stack_value] $fp
	//DEBUG_VALUE: pch_map_boundry:io_submited <- undef
	//DEBUG_VALUE: pch_map_boundry:first_hole <- $w26
	.loc	1 354 42 is_stmt 1              // kernel/platform_source/basicplatform/fs/filemap_manager/pagecache_manage.c:354:42
	ldrb	w8, [sp, #113]
	tbnz	w8, #1, .LBB14_70
.Ltmp407:
// %bb.69:                              //   in Loop: Header=BB14_7 Depth=1
	//DEBUG_VALUE: pch_map_boundry:bio <- $x25
	//DEBUG_VALUE: ext4_mas_mpage_readpages:bio <- $x25
	//DEBUG_VALUE: ext4_mas_mpage_readpages:rac <- $x24
	//DEBUG_VALUE: ext4_mas_mpage_readpages:page <- $x22
	//DEBUG_VALUE: ext4_mas_mpage_readpages:nr_pages <- $x19
	//DEBUG_VALUE: pch_map_boundry:blocks_per_page <- $w28
	//DEBUG_VALUE: ext4_mas_mpage_readpages:blocks_per_page <- $w28
	//DEBUG_VALUE: ext4_mas_mpage_readpages:length <- $w27
	//DEBUG_VALUE: pch_map_boundry:first_hole <- $w26
	//DEBUG_VALUE: first_hole <- $w26
	//DEBUG_VALUE: pch_map_boundry:map <- [DW_OP_plus_uconst 96, DW_OP_stack_value] $sp
	//DEBUG_VALUE: ext4_mas_mpage_readpages:bdev <- [DW_OP_plus_uconst 32] [$sp+0]
	//DEBUG_VALUE: ext4_mas_mpage_readpages:blkbits <- [DW_OP_plus_uconst 80] [$sp+0]
	//DEBUG_VALUE: pch_map_boundry:blocks <- [DW_OP_constu 72, DW_OP_minus, DW_OP_stack_value] $fp
	//DEBUG_VALUE: pch_map_boundry:relative_block <- 0
	//DEBUG_VALUE: ext4_mas_mpage_readpages:relative_block <- 0
	.loc	1 354 6 is_stmt 0               // kernel/platform_source/basicplatform/fs/filemap_manager/pagecache_manage.c:354:6
	cmp	w26, w28
	b.eq	.LBB14_72
	b	.LBB14_73
.Ltmp408:
.LBB14_70:                              //   in Loop: Header=BB14_7 Depth=1
	//DEBUG_VALUE: pch_map_boundry:bio <- $x25
	//DEBUG_VALUE: ext4_mas_mpage_readpages:bio <- $x25
	//DEBUG_VALUE: ext4_mas_mpage_readpages:rac <- $x24
	//DEBUG_VALUE: ext4_mas_mpage_readpages:page <- $x22
	//DEBUG_VALUE: ext4_mas_mpage_readpages:nr_pages <- $x19
	//DEBUG_VALUE: pch_map_boundry:blocks_per_page <- $w28
	//DEBUG_VALUE: ext4_mas_mpage_readpages:blocks_per_page <- $w28
	//DEBUG_VALUE: ext4_mas_mpage_readpages:length <- $w27
	//DEBUG_VALUE: pch_map_boundry:first_hole <- $w26
	//DEBUG_VALUE: first_hole <- $w26
	//DEBUG_VALUE: pch_map_boundry:map <- [DW_OP_plus_uconst 96, DW_OP_stack_value] $sp
	//DEBUG_VALUE: ext4_mas_mpage_readpages:bdev <- [DW_OP_plus_uconst 32] [$sp+0]
	//DEBUG_VALUE: ext4_mas_mpage_readpages:blkbits <- [DW_OP_plus_uconst 80] [$sp+0]
	//DEBUG_VALUE: pch_map_boundry:blocks <- [DW_OP_constu 72, DW_OP_minus, DW_OP_stack_value] $fp
	//DEBUG_VALUE: pch_map_boundry:relative_block <- 0
	//DEBUG_VALUE: ext4_mas_mpage_readpages:relative_block <- 0
	.loc	1 355 39 is_stmt 1              // kernel/platform_source/basicplatform/fs/filemap_manager/pagecache_manage.c:355:39
	cmp	w26, w28
	b.ne	.LBB14_73
.Ltmp409:
// %bb.71:                              //   in Loop: Header=BB14_7 Depth=1
	//DEBUG_VALUE: pch_map_boundry:bio <- $x25
	//DEBUG_VALUE: ext4_mas_mpage_readpages:bio <- $x25
	//DEBUG_VALUE: ext4_mas_mpage_readpages:rac <- $x24
	//DEBUG_VALUE: ext4_mas_mpage_readpages:page <- $x22
	//DEBUG_VALUE: ext4_mas_mpage_readpages:nr_pages <- $x19
	//DEBUG_VALUE: pch_map_boundry:blocks_per_page <- $w28
	//DEBUG_VALUE: ext4_mas_mpage_readpages:blocks_per_page <- $w28
	//DEBUG_VALUE: ext4_mas_mpage_readpages:length <- $w27
	//DEBUG_VALUE: pch_map_boundry:first_hole <- $w26
	//DEBUG_VALUE: first_hole <- $w26
	//DEBUG_VALUE: pch_map_boundry:map <- [DW_OP_plus_uconst 96, DW_OP_stack_value] $sp
	//DEBUG_VALUE: ext4_mas_mpage_readpages:bdev <- [DW_OP_plus_uconst 32] [$sp+0]
	//DEBUG_VALUE: ext4_mas_mpage_readpages:blkbits <- [DW_OP_plus_uconst 80] [$sp+0]
	//DEBUG_VALUE: pch_map_boundry:blocks <- [DW_OP_constu 72, DW_OP_minus, DW_OP_stack_value] $fp
	//DEBUG_VALUE: pch_map_boundry:relative_block <- 0
	//DEBUG_VALUE: ext4_mas_mpage_readpages:relative_block <- 0
	.loc	1 0 0 is_stmt 0                 // kernel/platform_source/basicplatform/fs/filemap_manager/pagecache_manage.c:0:0
	ldr	w8, [sp, #108]
	.loc	1 355 39                        // kernel/platform_source/basicplatform/fs/filemap_manager/pagecache_manage.c:355:39
	cbz	w8, .LBB14_73
.Ltmp410:
.LBB14_72:                              //   in Loop: Header=BB14_7 Depth=1
	//DEBUG_VALUE: pch_map_boundry:bio <- $x25
	//DEBUG_VALUE: ext4_mas_mpage_readpages:bio <- $x25
	//DEBUG_VALUE: ext4_mas_mpage_readpages:rac <- $x24
	//DEBUG_VALUE: ext4_mas_mpage_readpages:page <- $x22
	//DEBUG_VALUE: ext4_mas_mpage_readpages:nr_pages <- $x19
	//DEBUG_VALUE: pch_map_boundry:blocks_per_page <- $w28
	//DEBUG_VALUE: ext4_mas_mpage_readpages:blocks_per_page <- $w28
	//DEBUG_VALUE: ext4_mas_mpage_readpages:length <- $w27
	//DEBUG_VALUE: pch_map_boundry:first_hole <- $w26
	//DEBUG_VALUE: first_hole <- $w26
	//DEBUG_VALUE: pch_map_boundry:map <- [DW_OP_plus_uconst 96, DW_OP_stack_value] $sp
	//DEBUG_VALUE: ext4_mas_mpage_readpages:bdev <- [DW_OP_plus_uconst 32] [$sp+0]
	//DEBUG_VALUE: ext4_mas_mpage_readpages:blkbits <- [DW_OP_plus_uconst 80] [$sp+0]
	//DEBUG_VALUE: pch_map_boundry:blocks <- [DW_OP_constu 72, DW_OP_minus, DW_OP_stack_value] $fp
	//DEBUG_VALUE: pch_map_boundry:relative_block <- 0
	//DEBUG_VALUE: ext4_mas_mpage_readpages:relative_block <- 0
	.loc	1 0 39                          // kernel/platform_source/basicplatform/fs/filemap_manager/pagecache_manage.c:0:39
	ldr	x9, [sp]                        // 8-byte Folded Reload
	sub	x8, x29, #72                    // =72
.Ltmp411:
	.loc	1 363 24 is_stmt 1              // kernel/platform_source/basicplatform/fs/filemap_manager/pagecache_manage.c:363:24
	ldr	x8, [x8, x9, lsl #3]
	str	x8, [sp, #24]                   // 8-byte Folded Spill
	b	.LBB14_49
.Ltmp412:
.LBB14_73:                              //   in Loop: Header=BB14_7 Depth=1
	//DEBUG_VALUE: pch_map_boundry:bio <- $x25
	//DEBUG_VALUE: ext4_mas_mpage_readpages:bio <- $x25
	//DEBUG_VALUE: ext4_mas_mpage_readpages:rac <- $x24
	//DEBUG_VALUE: ext4_mas_mpage_readpages:page <- $x22
	//DEBUG_VALUE: ext4_mas_mpage_readpages:nr_pages <- $x19
	//DEBUG_VALUE: pch_map_boundry:blocks_per_page <- $w28
	//DEBUG_VALUE: ext4_mas_mpage_readpages:blocks_per_page <- $w28
	//DEBUG_VALUE: ext4_mas_mpage_readpages:length <- $w27
	//DEBUG_VALUE: pch_map_boundry:first_hole <- $w26
	//DEBUG_VALUE: first_hole <- $w26
	//DEBUG_VALUE: pch_map_boundry:map <- [DW_OP_plus_uconst 96, DW_OP_stack_value] $sp
	//DEBUG_VALUE: ext4_mas_mpage_readpages:bdev <- [DW_OP_plus_uconst 32] [$sp+0]
	//DEBUG_VALUE: ext4_mas_mpage_readpages:blkbits <- [DW_OP_plus_uconst 80] [$sp+0]
	//DEBUG_VALUE: pch_map_boundry:blocks <- [DW_OP_constu 72, DW_OP_minus, DW_OP_stack_value] $fp
	//DEBUG_VALUE: pch_map_boundry:relative_block <- 0
	//DEBUG_VALUE: ext4_mas_mpage_readpages:relative_block <- 0
	.loc	1 0 24 is_stmt 0                // kernel/platform_source/basicplatform/fs/filemap_manager/pagecache_manage.c:0:24
	ldr	w8, [sp, #76]                   // 4-byte Folded Reload
.Ltmp413:
	.loc	1 360 4 is_stmt 1               // kernel/platform_source/basicplatform/fs/filemap_manager/pagecache_manage.c:360:4
	mov	x0, x25
	.loc	1 358 18                        // kernel/platform_source/basicplatform/fs/filemap_manager/pagecache_manage.c:358:18
	add	w8, w8, #1                      // =1
	str	w8, [sp, #76]                   // 4-byte Folded Spill
	.loc	1 360 4                         // kernel/platform_source/basicplatform/fs/filemap_manager/pagecache_manage.c:360:4
	bl	ext4_submit_bio_read
.Ltmp414:
	//DEBUG_VALUE: pch_map_boundry:bio <- 0
	.loc	1 0 4 is_stmt 0                 // kernel/platform_source/basicplatform/fs/filemap_manager/pagecache_manage.c:0:4
	b	.LBB14_49
.Ltmp415:
.LBB14_74:
	//DEBUG_VALUE: ext4_mas_mpage_readpages:rac <- $x24
	//DEBUG_VALUE: ext4_mas_mpage_readpages:page <- $x22
	//DEBUG_VALUE: ext4_mas_mpage_readpages:blocks_per_page <- $w28
	//DEBUG_VALUE: ext4_mas_mpage_readpages:nr_pages <- $w19
	//DEBUG_VALUE: ext4_mas_mpage_readpages:bdev <- [DW_OP_plus_uconst 32] [$sp+0]
	//DEBUG_VALUE: ext4_mas_mpage_readpages:blkbits <- [DW_OP_plus_uconst 80] [$sp+0]
	//DEBUG_VALUE: ext4_mas_mpage_readpages:relative_block <- 0
	//DEBUG_VALUE: ext4_mas_mpage_readpages:bio <- $x25
	//DEBUG_VALUE: pch_submit_bio:bio <- $x25
	//DEBUG_VALUE: pch_submit_bio:io_submited <- undef
	.loc	1 415 6 is_stmt 1               // kernel/platform_source/basicplatform/fs/filemap_manager/pagecache_manage.c:415:6
	cbz	x25, .LBB14_76
.Ltmp416:
// %bb.75:
	//DEBUG_VALUE: pch_submit_bio:bio <- $x25
	//DEBUG_VALUE: ext4_mas_mpage_readpages:bio <- $x25
	//DEBUG_VALUE: ext4_mas_mpage_readpages:rac <- $x24
	//DEBUG_VALUE: ext4_mas_mpage_readpages:page <- $x22
	//DEBUG_VALUE: ext4_mas_mpage_readpages:blocks_per_page <- $w28
	//DEBUG_VALUE: ext4_mas_mpage_readpages:nr_pages <- $w19
	//DEBUG_VALUE: ext4_mas_mpage_readpages:bdev <- [DW_OP_plus_uconst 32] [$sp+0]
	//DEBUG_VALUE: ext4_mas_mpage_readpages:blkbits <- [DW_OP_plus_uconst 80] [$sp+0]
	//DEBUG_VALUE: ext4_mas_mpage_readpages:relative_block <- 0
	.loc	1 0 6 is_stmt 0                 // kernel/platform_source/basicplatform/fs/filemap_manager/pagecache_manage.c:0:6
	ldr	w19, [sp, #76]                  // 4-byte Folded Reload
.Ltmp417:
	.loc	1 419 3 is_stmt 1               // kernel/platform_source/basicplatform/fs/filemap_manager/pagecache_manage.c:419:3
	mov	x0, x25
	.loc	1 417 17                        // kernel/platform_source/basicplatform/fs/filemap_manager/pagecache_manage.c:417:17
	add	w19, w19, #1                    // =1
	.loc	1 419 3                         // kernel/platform_source/basicplatform/fs/filemap_manager/pagecache_manage.c:419:3
	bl	ext4_submit_bio_read
.Ltmp418:
	.loc	1 0 3 is_stmt 0                 // kernel/platform_source/basicplatform/fs/filemap_manager/pagecache_manage.c:0:3
	ldr	x20, [sp, #32]                  // 8-byte Folded Reload
.Ltmp419:
	//DEBUG_VALUE: ext4_mas_mpage_readpages:io_submited <- $w19
	//DEBUG_VALUE: pch_io_smart_end:io_submited <- $w19
	//DEBUG_VALUE: pch_io_smart_end:bdev <- $x20
	//DEBUG_VALUE: blk_throtl_get_quotas:bdev <- $x20
	//DEBUG_VALUE: blk_throtl_get_quotas:size <- undef
	//DEBUG_VALUE: blk_throtl_get_quotas:jiffies_time_out <- 25
	//DEBUG_VALUE: blk_throtl_get_quotas:wait <- 1
	//DEBUG_VALUE: blk_throtl_get_quotas:cnt <- [DW_OP_constu 1, DW_OP_minus, DW_OP_stack_value] undef
	.loc	1 307 6 is_stmt 1               // kernel/platform_source/basicplatform/fs/filemap_manager/pagecache_manage.c:307:6
	cbnz	w19, .LBB14_77
	b	.LBB14_79
.Ltmp420:
.LBB14_76:
	//DEBUG_VALUE: ext4_mas_mpage_readpages:bio <- $x25
	//DEBUG_VALUE: ext4_mas_mpage_readpages:rac <- $x24
	//DEBUG_VALUE: ext4_mas_mpage_readpages:page <- $x22
	//DEBUG_VALUE: ext4_mas_mpage_readpages:blocks_per_page <- $w28
	//DEBUG_VALUE: ext4_mas_mpage_readpages:nr_pages <- $w19
	//DEBUG_VALUE: ext4_mas_mpage_readpages:bdev <- [DW_OP_plus_uconst 32] [$sp+0]
	//DEBUG_VALUE: ext4_mas_mpage_readpages:blkbits <- [DW_OP_plus_uconst 80] [$sp+0]
	//DEBUG_VALUE: ext4_mas_mpage_readpages:relative_block <- 0
	.loc	1 0 6 is_stmt 0                 // kernel/platform_source/basicplatform/fs/filemap_manager/pagecache_manage.c:0:6
	ldr	x20, [sp, #32]                  // 8-byte Folded Reload
	ldr	w19, [sp, #76]                  // 4-byte Folded Reload
.Ltmp421:
	//DEBUG_VALUE: ext4_mas_mpage_readpages:io_submited <- $w19
	//DEBUG_VALUE: pch_io_smart_end:io_submited <- $w19
	//DEBUG_VALUE: pch_io_smart_end:bdev <- $x20
	//DEBUG_VALUE: blk_throtl_get_quotas:bdev <- $x20
	//DEBUG_VALUE: blk_throtl_get_quotas:size <- undef
	//DEBUG_VALUE: blk_throtl_get_quotas:jiffies_time_out <- 25
	//DEBUG_VALUE: blk_throtl_get_quotas:wait <- 1
	//DEBUG_VALUE: blk_throtl_get_quotas:cnt <- [DW_OP_constu 1, DW_OP_minus, DW_OP_stack_value] undef
	.loc	1 307 6                         // kernel/platform_source/basicplatform/fs/filemap_manager/pagecache_manage.c:307:6
	cbz	w19, .LBB14_79
.Ltmp422:
.LBB14_77:
	//DEBUG_VALUE: ext4_mas_mpage_readpages:bio <- $x25
	//DEBUG_VALUE: ext4_mas_mpage_readpages:rac <- $x24
	//DEBUG_VALUE: ext4_mas_mpage_readpages:page <- $x22
	//DEBUG_VALUE: pch_io_smart_end:bdev <- $x20
	//DEBUG_VALUE: ext4_mas_mpage_readpages:blocks_per_page <- $w28
	//DEBUG_VALUE: pch_io_smart_end:io_submited <- $w19
	//DEBUG_VALUE: ext4_mas_mpage_readpages:io_submited <- $w19
	//DEBUG_VALUE: ext4_mas_mpage_readpages:bdev <- [DW_OP_plus_uconst 32] [$sp+0]
	//DEBUG_VALUE: ext4_mas_mpage_readpages:blkbits <- [DW_OP_plus_uconst 80] [$sp+0]
	//DEBUG_VALUE: ext4_mas_mpage_readpages:relative_block <- 0
	.loc	1 0 6                           // kernel/platform_source/basicplatform/fs/filemap_manager/pagecache_manage.c:0:6
	sub	w19, w19, #1                    // =1
.Ltmp423:
	//DEBUG_VALUE: blk_throtl_get_quotas:cnt <- [DW_OP_constu 1, DW_OP_minus, DW_OP_stack_value] $w19
	.loc	1 307 6                         // kernel/platform_source/basicplatform/fs/filemap_manager/pagecache_manage.c:307:6
	cbz	w19, .LBB14_79
.Ltmp424:
.LBB14_78:                              // =>This Inner Loop Header: Depth=1
	//DEBUG_VALUE: ext4_mas_mpage_readpages:bio <- $x25
	//DEBUG_VALUE: ext4_mas_mpage_readpages:rac <- $x24
	//DEBUG_VALUE: ext4_mas_mpage_readpages:page <- $x22
	//DEBUG_VALUE: pch_io_smart_end:bdev <- $x20
	//DEBUG_VALUE: ext4_mas_mpage_readpages:blocks_per_page <- $w28
	//DEBUG_VALUE: blk_throtl_get_quotas:cnt <- [DW_OP_constu 1, DW_OP_minus, DW_OP_stack_value] $w19
	//DEBUG_VALUE: ext4_mas_mpage_readpages:bdev <- [DW_OP_plus_uconst 32] [$sp+0]
	//DEBUG_VALUE: ext4_mas_mpage_readpages:blkbits <- [DW_OP_plus_uconst 80] [$sp+0]
	//DEBUG_VALUE: ext4_mas_mpage_readpages:relative_block <- 0
	//DEBUG_VALUE: blk_throtl_get_quotas:cnt <- $w19
	.loc	17 3067 3 is_stmt 1             // kernel/include/linux/fs.h:3067:3
	mov	w1, #4096
	mov	w2, #25
	mov	w3, #1
	mov	x0, x20
	.loc	17 3066 12                      // kernel/include/linux/fs.h:3066:12
	sub	w19, w19, #1                    // =1
.Ltmp425:
	//DEBUG_VALUE: blk_throtl_get_quotas:cnt <- $w19
	.loc	17 3067 3                       // kernel/include/linux/fs.h:3067:3
	bl	blk_throtl_get_quota
.Ltmp426:
	//DEBUG_VALUE: blk_throtl_get_quotas:cnt <- [DW_OP_constu 1, DW_OP_minus, DW_OP_stack_value] $w19
	.loc	17 3066 2                       // kernel/include/linux/fs.h:3066:2
	cbnz	w19, .LBB14_78
.Ltmp427:
.LBB14_79:
	//DEBUG_VALUE: ext4_mas_mpage_readpages:rac <- $x24
	//DEBUG_VALUE: ext4_mas_mpage_readpages:page <- $x22
	//DEBUG_VALUE: ext4_mas_mpage_readpages:bdev <- [DW_OP_plus_uconst 32] [$sp+0]
	//DEBUG_VALUE: ext4_mas_mpage_readpages:blkbits <- [DW_OP_plus_uconst 80] [$sp+0]
	//DEBUG_VALUE: ext4_mas_mpage_readpages:relative_block <- 0
	.loc	1 547 2                         // kernel/platform_source/basicplatform/fs/filemap_manager/pagecache_manage.c:547:2
	ldp	x20, x19, [sp, #272]            // 16-byte Folded Reload
	ldp	x22, x21, [sp, #256]            // 16-byte Folded Reload
.Ltmp428:
	ldp	x24, x23, [sp, #240]            // 16-byte Folded Reload
.Ltmp429:
	//DEBUG_VALUE: ext4_mas_mpage_readpages:rac <- [DW_OP_LLVM_entry_value 1] $x1
	ldp	x26, x25, [sp, #224]            // 16-byte Folded Reload
	ldp	x28, x27, [sp, #208]            // 16-byte Folded Reload
	ldp	x29, x30, [sp, #192]            // 16-byte Folded Reload
	mov	w0, wzr
	add	sp, sp, #288                    // =288
.Ltmp430:
	hint	#29
	ret
.Ltmp431:
.Lfunc_end14:
	.size	ext4_mas_mpage_readpages, .Lfunc_end14-ext4_mas_mpage_readpages
	.cfi_endproc
	.file	196 "/mnt/disk/jenkins/ci/workspace/chipset_pipeline_release/opensource/component_code/vendor/huawei/extra/build/build_script/kirin_kernel_release" "kernel/include/../fs/ext4/ext4.h"
	.file	197 "/mnt/disk/jenkins/ci/workspace/chipset_pipeline_release/opensource/component_code/vendor/huawei/extra/build/build_script/kirin_kernel_release" "kernel/include/linux/atomic-arch-fallback.h"
                                        // -- End function
	.globl	pch_lowmem_check                // -- Begin function pch_lowmem_check
	.p2align	2
	.type	pch_lowmem_check,@function
pch_lowmem_check:                       // @pch_lowmem_check
.Lfunc_begin15:
	.loc	1 571 0                         // kernel/platform_source/basicplatform/fs/filemap_manager/pagecache_manage.c:571:0
	.cfi_startproc
// %bb.0:
	hint	#25
	.cfi_negate_ra_state
	stp	x29, x30, [sp, #-32]!           // 16-byte Folded Spill
	stp	x20, x19, [sp, #16]             // 16-byte Folded Spill
	mov	x29, sp
	.cfi_def_cfa w29, 32
	.cfi_offset w19, -8
	.cfi_offset w20, -16
	.cfi_offset w30, -24
	.cfi_offset w29, -32
.Ltmp432:
	//DEBUG_VALUE: pch_lowmem_check:zone <- 0
	//DEBUG_VALUE: pch_lowmem_check:ret <- 0
	.loc	1 576 10 prologue_end           // kernel/platform_source/basicplatform/fs/filemap_manager/pagecache_manage.c:576:10
	bl	first_online_pgdat
.Ltmp433:
	//DEBUG_VALUE: pch_lowmem_check:zone <- $x0
	.loc	1 577 6                         // kernel/platform_source/basicplatform/fs/filemap_manager/pagecache_manage.c:577:6
	cbz	x0, .LBB15_2
.Ltmp434:
// %bb.1:
	//DEBUG_VALUE: pch_lowmem_check:zone <- $x0
	//DEBUG_VALUE: pch_lowmem_check:ret <- 0
	.loc	1 580 14                        // kernel/platform_source/basicplatform/fs/filemap_manager/pagecache_manage.c:580:14
	ldp	x8, x9, [x0, #16]
.Ltmp435:
	.loc	1 581 7                         // kernel/platform_source/basicplatform/fs/filemap_manager/pagecache_manage.c:581:7
	mov	w1, wzr
	mov	w3, wzr
	mov	w4, wzr
.Ltmp436:
	.loc	1 580 14                        // kernel/platform_source/basicplatform/fs/filemap_manager/pagecache_manage.c:580:14
	add	x8, x8, x9
	.loc	1 580 37 is_stmt 0              // kernel/platform_source/basicplatform/fs/filemap_manager/pagecache_manage.c:580:37
	add	x2, x8, #2                      // =2
.Ltmp437:
	//DEBUG_VALUE: pch_lowmem_check:watermark <- $x2
	.loc	1 0 0                           // kernel/platform_source/basicplatform/fs/filemap_manager/pagecache_manage.c:0:0
	mov	x19, x0
.Ltmp438:
	//DEBUG_VALUE: pch_lowmem_check:zone <- $x19
	.loc	1 581 7 is_stmt 1               // kernel/platform_source/basicplatform/fs/filemap_manager/pagecache_manage.c:581:7
	bl	zone_watermark_ok
.Ltmp439:
	.loc	1 584 14                        // kernel/platform_source/basicplatform/fs/filemap_manager/pagecache_manage.c:584:14
	ldr	x8, [x19, #8]
	ldr	x9, [x19, #24]
	.loc	1 581 6                         // kernel/platform_source/basicplatform/fs/filemap_manager/pagecache_manage.c:581:6
	mvn	w10, w0
.Ltmp440:
	.loc	1 585 7                         // kernel/platform_source/basicplatform/fs/filemap_manager/pagecache_manage.c:585:7
	mov	x0, x19
	mov	w1, wzr
.Ltmp441:
	.loc	1 584 14                        // kernel/platform_source/basicplatform/fs/filemap_manager/pagecache_manage.c:584:14
	add	x2, x9, x8
.Ltmp442:
	//DEBUG_VALUE: pch_lowmem_check:watermark <- $x2
	.loc	1 585 7                         // kernel/platform_source/basicplatform/fs/filemap_manager/pagecache_manage.c:585:7
	mov	w3, wzr
	mov	w4, wzr
.Ltmp443:
	.loc	1 581 6                         // kernel/platform_source/basicplatform/fs/filemap_manager/pagecache_manage.c:581:6
	and	w20, w10, #0x1
.Ltmp444:
	//DEBUG_VALUE: pch_lowmem_check:ret <- $w20
	.loc	1 585 7                         // kernel/platform_source/basicplatform/fs/filemap_manager/pagecache_manage.c:585:7
	bl	zone_watermark_ok
.Ltmp445:
	.loc	1 585 6 is_stmt 0               // kernel/platform_source/basicplatform/fs/filemap_manager/pagecache_manage.c:585:6
	tst	w0, #0x1
	mov	w8, #2
	csel	w0, w20, w8, ne
.Ltmp446:
.LBB15_2:
	.loc	1 589 1 is_stmt 1               // kernel/platform_source/basicplatform/fs/filemap_manager/pagecache_manage.c:589:1
	ldp	x20, x19, [sp, #16]             // 16-byte Folded Reload
	ldp	x29, x30, [sp], #32             // 16-byte Folded Reload
	hint	#29
	ret
.Ltmp447:
.Lfunc_end15:
	.size	pch_lowmem_check, .Lfunc_end15-pch_lowmem_check
	.cfi_endproc
                                        // -- End function
	.globl	pch_lowmem_check2               // -- Begin function pch_lowmem_check2
	.p2align	2
	.type	pch_lowmem_check2,@function
pch_lowmem_check2:                      // @pch_lowmem_check2
.Lfunc_begin16:
	.loc	1 602 0                         // kernel/platform_source/basicplatform/fs/filemap_manager/pagecache_manage.c:602:0
	.cfi_startproc
// %bb.0:
	//DEBUG_VALUE: global_node_page_state:item <- 21
	//DEBUG_VALUE: global_node_page_state_pages:item <- 21
	//DEBUG_VALUE: atomic_long_read:v <- undef
	//DEBUG_VALUE: atomic64_read:v <- undef
	hint	#25
	.cfi_negate_ra_state
	stp	x29, x30, [sp, #-32]!           // 16-byte Folded Spill
	stp	x20, x19, [sp, #16]             // 16-byte Folded Spill
	mov	x29, sp
	.cfi_def_cfa w29, 32
	.cfi_offset w19, -8
	.cfi_offset w20, -16
	.cfi_offset w30, -24
	.cfi_offset w29, -32
.Ltmp448:
	//DEBUG_VALUE: pch_lowmem_check2:array_size <- 4
	//DEBUG_VALUE: pch_lowmem_check2:minfree <- 0
	.loc	190 838 9 prologue_end          // kernel/include/asm-generic/atomic-instrumented.h:838:9
	adrp	x8, vm_node_stat+168
	add	x8, x8, :lo12:vm_node_stat+168
	ldr	x9, [x8]
.Ltmp449:
	//DEBUG_VALUE: global_node_page_state_pages:x <- $x9
	.loc	190 838 9 is_stmt 0             // kernel/include/asm-generic/atomic-instrumented.h:838:9
	ldr	x8, [x8, #32]
.Ltmp450:
	//DEBUG_VALUE: global_node_page_state_pages:x <- $x8
	.file	198 "/mnt/disk/jenkins/ci/workspace/chipset_pipeline_release/opensource/component_code/vendor/huawei/extra/build/build_script/kirin_kernel_release" "kernel/include/linux/vmstat.h"
	.loc	198 201 6 is_stmt 1             // kernel/include/linux/vmstat.h:201:6
	bic	x19, x9, x9, asr #63
.Ltmp451:
	//DEBUG_VALUE: atomic64_read:v <- undef
	//DEBUG_VALUE: atomic_long_read:v <- undef
	//DEBUG_VALUE: global_node_page_state_pages:item <- 25
	//DEBUG_VALUE: global_node_page_state:item <- 25
	//DEBUG_VALUE: global_node_page_state_pages:x <- $x19
	//DEBUG_VALUE: global_node_page_state_pages:x <- $x9
	//DEBUG_VALUE: global_node_page_state_pages:item <- 21
	//DEBUG_VALUE: global_node_page_state:item <- 21
	.loc	198 201 6 is_stmt 0             // kernel/include/linux/vmstat.h:201:6
	bic	x20, x8, x8, asr #63
.Ltmp452:
	//DEBUG_VALUE: global_node_page_state_pages:x <- $x20
	//DEBUG_VALUE: global_node_page_state_pages:x <- $x8
	.loc	1 609 5 is_stmt 1               // kernel/platform_source/basicplatform/fs/filemap_manager/pagecache_manage.c:609:5
	bl	total_swapcache_pages
.Ltmp453:
	.loc	190 838 9                       // kernel/include/asm-generic/atomic-instrumented.h:838:9
	adrp	x9, vm_zone_stat
	add	x9, x9, :lo12:vm_zone_stat
.Ltmp454:
	.loc	1 612 5                         // kernel/platform_source/basicplatform/fs/filemap_manager/pagecache_manage.c:612:5
	adrp	x10, totalreserve_pages
.Ltmp455:
	.loc	190 838 9                       // kernel/include/asm-generic/atomic-instrumented.h:838:9
	ldr	x11, [x9]
.Ltmp456:
	//DEBUG_VALUE: global_zone_page_state:x <- $x11
	.loc	190 838 9 is_stmt 0             // kernel/include/asm-generic/atomic-instrumented.h:838:9
	ldr	x9, [x9, #88]
.Ltmp457:
	//DEBUG_VALUE: global_zone_page_state:x <- $x9
	.loc	1 612 5 is_stmt 1               // kernel/platform_source/basicplatform/fs/filemap_manager/pagecache_manage.c:612:5
	ldr	x10, [x10, :lo12:totalreserve_pages]
	.loc	1 607 67                        // kernel/platform_source/basicplatform/fs/filemap_manager/pagecache_manage.c:607:67
	sub	x8, x19, x0
.Ltmp458:
	.loc	198 190 6                       // kernel/include/linux/vmstat.h:190:6
	bic	x11, x11, x11, asr #63
.Ltmp459:
	//DEBUG_VALUE: atomic64_read:v <- undef
	//DEBUG_VALUE: atomic_long_read:v <- undef
	//DEBUG_VALUE: global_zone_page_state:item <- 11
	//DEBUG_VALUE: global_zone_page_state:x <- $x11
	//DEBUG_VALUE: global_zone_page_state:x <- $x11
	.loc	198 190 6 is_stmt 0             // kernel/include/linux/vmstat.h:190:6
	bic	x9, x9, x9, asr #63
.Ltmp460:
	//DEBUG_VALUE: global_zone_page_state:x <- $x9
	//DEBUG_VALUE: global_zone_page_state:x <- $x9
	.loc	1 610 67 is_stmt 1              // kernel/platform_source/basicplatform/fs/filemap_manager/pagecache_manage.c:610:67
	sub	x10, x11, x10
	.loc	1 611 47                        // kernel/platform_source/basicplatform/fs/filemap_manager/pagecache_manage.c:611:47
	sub	x9, x10, x9
.Ltmp461:
	//DEBUG_VALUE: pch_lowmem_check2:i <- 0
	//DEBUG_VALUE: pch_lowmem_check2:other_free <- $x9
	//DEBUG_VALUE: pch_lowmem_check2:minfree <- 1536
	.loc	1 608 38                        // kernel/platform_source/basicplatform/fs/filemap_manager/pagecache_manage.c:608:38
	sub	x8, x8, x20
	//DEBUG_VALUE: atomic64_read:v <- undef
	//DEBUG_VALUE: atomic_long_read:v <- undef
	//DEBUG_VALUE: global_zone_page_state:item <- 0
.Ltmp462:
	//DEBUG_VALUE: pch_lowmem_check2:other_file <- $x8
	.loc	1 620 18                        // kernel/platform_source/basicplatform/fs/filemap_manager/pagecache_manage.c:620:18
	cmp	x9, #1536                       // =1536
	.loc	1 620 28 is_stmt 0              // kernel/platform_source/basicplatform/fs/filemap_manager/pagecache_manage.c:620:28
	orr	x9, x9, x8
.Ltmp463:
	.loc	1 620 18                        // kernel/platform_source/basicplatform/fs/filemap_manager/pagecache_manage.c:620:18
	cset	w10, lo
	cmp	x8, #1536                       // =1536
	cset	w8, lo
.Ltmp464:
	.loc	1 620 28                        // kernel/platform_source/basicplatform/fs/filemap_manager/pagecache_manage.c:620:28
	cmp	x9, #2048                       // =2048
	and	w8, w10, w8
.Ltmp465:
	//DEBUG_VALUE: pch_lowmem_check2:i <- [DW_OP_plus_uconst 1, DW_OP_stack_value] 0
	cset	w10, lo
	cmp	x9, #1, lsl #12                 // =4096
.Ltmp466:
	.loc	1 625 1 is_stmt 1               // kernel/platform_source/basicplatform/fs/filemap_manager/pagecache_manage.c:625:1
	ldp	x20, x19, [sp, #16]             // 16-byte Folded Reload
.Ltmp467:
	.loc	1 620 28                        // kernel/platform_source/basicplatform/fs/filemap_manager/pagecache_manage.c:620:28
	orr	w8, w8, w10
.Ltmp468:
	//DEBUG_VALUE: pch_lowmem_check2:i <- [DW_OP_plus_uconst 1, DW_OP_stack_value] 1
	//DEBUG_VALUE: pch_lowmem_check2:minfree <- 2048
	cset	w10, lo
	cmp	x9, #4, lsl #12                 // =16384
	orr	w8, w8, w10
.Ltmp469:
	//DEBUG_VALUE: pch_lowmem_check2:i <- [DW_OP_plus_uconst 1, DW_OP_stack_value] 2
	//DEBUG_VALUE: pch_lowmem_check2:minfree <- 4096
	cset	w9, lo
	orr	w0, w8, w9
.Ltmp470:
	//DEBUG_VALUE: pch_lowmem_check2:i <- [DW_OP_plus_uconst 1, DW_OP_stack_value] 3
	//DEBUG_VALUE: pch_lowmem_check2:minfree <- 16384
	.loc	1 625 1                         // kernel/platform_source/basicplatform/fs/filemap_manager/pagecache_manage.c:625:1
	ldp	x29, x30, [sp], #32             // 16-byte Folded Reload
	hint	#29
	ret
.Ltmp471:
.Lfunc_end16:
	.size	pch_lowmem_check2, .Lfunc_end16-pch_lowmem_check2
	.cfi_endproc
                                        // -- End function
	.globl	pch_get_page                    // -- Begin function pch_get_page
	.p2align	2
	.type	pch_get_page,@function
pch_get_page:                           // @pch_get_page
.Lfunc_begin17:
	.loc	1 655 0                         // kernel/platform_source/basicplatform/fs/filemap_manager/pagecache_manage.c:655:0
	.cfi_startproc
// %bb.0:
	//DEBUG_VALUE: pch_get_page:mapping <- $x0
	//DEBUG_VALUE: pch_get_page:mapping <- $x0
	//DEBUG_VALUE: pch_get_page:offset <- $x1
	//DEBUG_VALUE: pch_get_page:offset <- $x1
	//DEBUG_VALUE: pch_get_page:fgp_flags <- $w2
	//DEBUG_VALUE: pch_get_page:fgp_flags <- $w2
	//DEBUG_VALUE: pch_get_page:gfp_mask <- $w3
	//DEBUG_VALUE: pch_get_page:gfp_mask <- $w3
	//DEBUG_VALUE: pch_get_page:gfp_mask <- $w3
	//DEBUG_VALUE: pch_get_page:fgp_flags <- $w2
	//DEBUG_VALUE: pch_get_page:offset <- $x1
	//DEBUG_VALUE: pch_get_page:mapping <- $x0
	hint	#25
	.cfi_negate_ra_state
	stp	x29, x30, [sp, #-16]!           // 16-byte Folded Spill
	mov	x29, sp
	.cfi_def_cfa w29, 16
	.cfi_offset w30, -8
	.cfi_offset w29, -16
.Ltmp472:
	.loc	1 683 9 prologue_end            // kernel/platform_source/basicplatform/fs/filemap_manager/pagecache_manage.c:683:9
	bl	pagecache_get_page
.Ltmp473:
	//DEBUG_VALUE: pch_get_page:offset <- [DW_OP_LLVM_entry_value 1] $x1
	//DEBUG_VALUE: pch_get_page:mapping <- [DW_OP_LLVM_entry_value 1] $x0
	//DEBUG_VALUE: pch_get_page:gfp_mask <- [DW_OP_LLVM_entry_value 1] $w3
	//DEBUG_VALUE: pch_get_page:fgp_flags <- [DW_OP_LLVM_entry_value 1] $w2
	.loc	1 683 2 is_stmt 0               // kernel/platform_source/basicplatform/fs/filemap_manager/pagecache_manage.c:683:2
	ldp	x29, x30, [sp], #16             // 16-byte Folded Reload
	hint	#29
	ret
.Ltmp474:
.Lfunc_end17:
	.size	pch_get_page, .Lfunc_end17-pch_get_page
	.cfi_endproc
                                        // -- End function
	.globl	pch_shrink_read_pages           // -- Begin function pch_shrink_read_pages
	.p2align	2
	.type	pch_shrink_read_pages,@function
pch_shrink_read_pages:                  // @pch_shrink_read_pages
.Lfunc_begin18:
	.loc	1 696 0 is_stmt 1               // kernel/platform_source/basicplatform/fs/filemap_manager/pagecache_manage.c:696:0
	.cfi_startproc
// %bb.0:
	//DEBUG_VALUE: pch_shrink_read_pages:nr <- $x0
	hint	#25
	.cfi_negate_ra_state
	stp	x29, x30, [sp, #-48]!           // 16-byte Folded Spill
	stp	x22, x21, [sp, #16]             // 16-byte Folded Spill
	stp	x20, x19, [sp, #32]             // 16-byte Folded Spill
	mov	x29, sp
	.cfi_def_cfa w29, 48
	.cfi_offset w19, -8
	.cfi_offset w20, -16
	.cfi_offset w21, -24
	.cfi_offset w22, -32
	.cfi_offset w30, -40
	.cfi_offset w29, -48
.Ltmp475:
	.loc	1 699 7 prologue_end            // kernel/platform_source/basicplatform/fs/filemap_manager/pagecache_manage.c:699:7
	adrp	x22, pch_info
	ldr	x8, [x22, :lo12:pch_info]
	mov	x19, x0
.Ltmp476:
	//DEBUG_VALUE: pch_shrink_read_pages:nr <- $x19
	//DEBUG_VALUE: pch_shrink_read_pages:nr <- $x19
	.loc	1 699 16 is_stmt 0              // kernel/platform_source/basicplatform/fs/filemap_manager/pagecache_manage.c:699:16
	cbz	x8, .LBB18_8
.Ltmp477:
// %bb.1:
	//DEBUG_VALUE: pch_shrink_read_pages:nr <- $x19
	.loc	1 699 30                        // kernel/platform_source/basicplatform/fs/filemap_manager/pagecache_manage.c:699:30
	ldr	w9, [x8, #200]
.Ltmp478:
	.loc	1 699 6                         // kernel/platform_source/basicplatform/fs/filemap_manager/pagecache_manage.c:699:6
	cbz	w9, .LBB18_8
.Ltmp479:
// %bb.2:
	//DEBUG_VALUE: pch_shrink_read_pages:nr <- $x19
	.loc	1 702 16 is_stmt 1              // kernel/platform_source/basicplatform/fs/filemap_manager/pagecache_manage.c:702:16
	ldr	w9, [x8, #212]
.Ltmp480:
	.loc	1 702 6 is_stmt 0               // kernel/platform_source/basicplatform/fs/filemap_manager/pagecache_manage.c:702:6
	cmp	x9, x19
	b.hs	.LBB18_4
.Ltmp481:
// %bb.3:
	//DEBUG_VALUE: pch_shrink_read_pages:nr <- $x19
	.loc	1 703 24 is_stmt 1              // kernel/platform_source/basicplatform/fs/filemap_manager/pagecache_manage.c:703:24
	ldr	w19, [x8, #208]
.Ltmp482:
	//DEBUG_VALUE: pch_shrink_read_pages:nr <- [DW_OP_LLVM_entry_value 1] $x0
	//DEBUG_VALUE: pch_shrink_read_pages:ra_pages <- $x19
.LBB18_4:
	//DEBUG_VALUE: pch_shrink_read_pages:ra_pages <- $x19
	//DEBUG_VALUE: pch_lowmem_check:zone <- 0
	//DEBUG_VALUE: pch_lowmem_check:ret <- 0
	.loc	1 576 10                        // kernel/platform_source/basicplatform/fs/filemap_manager/pagecache_manage.c:576:10
	bl	first_online_pgdat
.Ltmp483:
	//DEBUG_VALUE: pch_lowmem_check:zone <- $x0
	.loc	1 577 6                         // kernel/platform_source/basicplatform/fs/filemap_manager/pagecache_manage.c:577:6
	cbz	x0, .LBB18_8
.Ltmp484:
// %bb.5:
	//DEBUG_VALUE: pch_shrink_read_pages:ra_pages <- $x19
	//DEBUG_VALUE: pch_lowmem_check:zone <- $x0
	//DEBUG_VALUE: pch_lowmem_check:ret <- 0
	.loc	1 580 14                        // kernel/platform_source/basicplatform/fs/filemap_manager/pagecache_manage.c:580:14
	ldp	x8, x9, [x0, #16]
.Ltmp485:
	.loc	1 581 7                         // kernel/platform_source/basicplatform/fs/filemap_manager/pagecache_manage.c:581:7
	mov	w1, wzr
	mov	w3, wzr
	mov	w4, wzr
.Ltmp486:
	.loc	1 580 14                        // kernel/platform_source/basicplatform/fs/filemap_manager/pagecache_manage.c:580:14
	add	x8, x8, x9
	.loc	1 580 37 is_stmt 0              // kernel/platform_source/basicplatform/fs/filemap_manager/pagecache_manage.c:580:37
	add	x2, x8, #2                      // =2
.Ltmp487:
	//DEBUG_VALUE: pch_lowmem_check:watermark <- $x2
	.loc	1 0 0                           // kernel/platform_source/basicplatform/fs/filemap_manager/pagecache_manage.c:0:0
	mov	x20, x0
.Ltmp488:
	//DEBUG_VALUE: pch_lowmem_check:zone <- $x20
	.loc	1 581 7 is_stmt 1               // kernel/platform_source/basicplatform/fs/filemap_manager/pagecache_manage.c:581:7
	bl	zone_watermark_ok
.Ltmp489:
	.loc	1 584 14                        // kernel/platform_source/basicplatform/fs/filemap_manager/pagecache_manage.c:584:14
	ldr	x8, [x20, #8]
	ldr	x9, [x20, #24]
.Ltmp490:
	.loc	1 581 7                         // kernel/platform_source/basicplatform/fs/filemap_manager/pagecache_manage.c:581:7
	mov	w21, w0
.Ltmp491:
	//DEBUG_VALUE: pch_lowmem_check:ret <- [DW_OP_constu 18446744073709551615, DW_OP_xor, DW_OP_LLVM_convert 1 7, DW_OP_LLVM_convert 32 7, DW_OP_stack_value] $w21
	.loc	1 585 7                         // kernel/platform_source/basicplatform/fs/filemap_manager/pagecache_manage.c:585:7
	mov	x0, x20
	mov	w1, wzr
.Ltmp492:
	.loc	1 584 14                        // kernel/platform_source/basicplatform/fs/filemap_manager/pagecache_manage.c:584:14
	add	x2, x9, x8
.Ltmp493:
	//DEBUG_VALUE: pch_lowmem_check:watermark <- $x2
	.loc	1 585 7                         // kernel/platform_source/basicplatform/fs/filemap_manager/pagecache_manage.c:585:7
	mov	w3, wzr
	mov	w4, wzr
	bl	zone_watermark_ok
.Ltmp494:
	.loc	1 0 7 is_stmt 0                 // kernel/platform_source/basicplatform/fs/filemap_manager/pagecache_manage.c:0:7
	tbz	w21, #0, .LBB18_7
.Ltmp495:
// %bb.6:
	//DEBUG_VALUE: pch_lowmem_check:zone <- $x20
	//DEBUG_VALUE: pch_shrink_read_pages:ra_pages <- $x19
	//DEBUG_VALUE: pch_lowmem_check:ret <- [DW_OP_constu 18446744073709551615, DW_OP_xor, DW_OP_LLVM_convert 1 7, DW_OP_LLVM_convert 32 7, DW_OP_stack_value] $w21
	tbnz	w0, #0, .LBB18_8
.Ltmp496:
.LBB18_7:
	//DEBUG_VALUE: pch_shrink_read_pages:ra_pages <- $x19
	.loc	1 708 5 is_stmt 1               // kernel/platform_source/basicplatform/fs/filemap_manager/pagecache_manage.c:708:5
	ldr	x8, [x22, :lo12:pch_info]
	.loc	1 708 15 is_stmt 0              // kernel/platform_source/basicplatform/fs/filemap_manager/pagecache_manage.c:708:15
	ldr	w8, [x8, #220]
.Ltmp497:
	.loc	1 707 6 is_stmt 1               // kernel/platform_source/basicplatform/fs/filemap_manager/pagecache_manage.c:707:6
	cmp	x19, x8
	csel	x19, x8, x19, hi
.Ltmp498:
.LBB18_8:
	.loc	1 0 0 is_stmt 0                 // kernel/platform_source/basicplatform/fs/filemap_manager/pagecache_manage.c:0:0
	cmp	x19, #512                       // =512
	mov	w8, #512
	csel	x0, x19, x8, lo
	.loc	1 712 1 is_stmt 1               // kernel/platform_source/basicplatform/fs/filemap_manager/pagecache_manage.c:712:1
	ldp	x20, x19, [sp, #32]             // 16-byte Folded Reload
	ldp	x22, x21, [sp, #16]             // 16-byte Folded Reload
	ldp	x29, x30, [sp], #48             // 16-byte Folded Reload
	hint	#29
	ret
.Ltmp499:
.Lfunc_end18:
	.size	pch_shrink_read_pages, .Lfunc_end18-pch_shrink_read_pages
	.cfi_endproc
                                        // -- End function
	.globl	pch_shrink_mmap_pages           // -- Begin function pch_shrink_mmap_pages
	.p2align	2
	.type	pch_shrink_mmap_pages,@function
pch_shrink_mmap_pages:                  // @pch_shrink_mmap_pages
.Lfunc_begin19:
	.loc	1 723 0                         // kernel/platform_source/basicplatform/fs/filemap_manager/pagecache_manage.c:723:0
	.cfi_startproc
// %bb.0:
	//DEBUG_VALUE: pch_shrink_mmap_pages:nr <- $x0
	hint	#25
	.cfi_negate_ra_state
	stp	x29, x30, [sp, #-48]!           // 16-byte Folded Spill
	stp	x22, x21, [sp, #16]             // 16-byte Folded Spill
	stp	x20, x19, [sp, #32]             // 16-byte Folded Spill
	mov	x29, sp
	.cfi_def_cfa w29, 48
	.cfi_offset w19, -8
	.cfi_offset w20, -16
	.cfi_offset w21, -24
	.cfi_offset w22, -32
	.cfi_offset w30, -40
	.cfi_offset w29, -48
.Ltmp500:
	.loc	1 726 7 prologue_end            // kernel/platform_source/basicplatform/fs/filemap_manager/pagecache_manage.c:726:7
	adrp	x22, pch_info
	ldr	x8, [x22, :lo12:pch_info]
	mov	x19, x0
.Ltmp501:
	//DEBUG_VALUE: pch_shrink_mmap_pages:nr <- $x19
	//DEBUG_VALUE: pch_shrink_mmap_pages:nr <- $x19
	.loc	1 726 16 is_stmt 0              // kernel/platform_source/basicplatform/fs/filemap_manager/pagecache_manage.c:726:16
	cbz	x8, .LBB19_6
.Ltmp502:
// %bb.1:
	//DEBUG_VALUE: pch_shrink_mmap_pages:nr <- $x19
	.loc	1 726 30                        // kernel/platform_source/basicplatform/fs/filemap_manager/pagecache_manage.c:726:30
	ldr	w9, [x8, #200]
.Ltmp503:
	.loc	1 726 6                         // kernel/platform_source/basicplatform/fs/filemap_manager/pagecache_manage.c:726:6
	cbz	w9, .LBB19_6
.Ltmp504:
// %bb.2:
	//DEBUG_VALUE: pch_shrink_mmap_pages:nr <- $x19
	.loc	1 729 16 is_stmt 1              // kernel/platform_source/basicplatform/fs/filemap_manager/pagecache_manage.c:729:16
	ldr	w8, [x8, #208]
.Ltmp505:
	.loc	1 729 6 is_stmt 0               // kernel/platform_source/basicplatform/fs/filemap_manager/pagecache_manage.c:729:6
	cmp	x8, x19
	csel	x19, x8, x19, lo
.Ltmp506:
	//DEBUG_VALUE: pch_shrink_mmap_pages:nr <- [DW_OP_LLVM_entry_value 1] $x0
	//DEBUG_VALUE: pch_lowmem_check:ret <- 0
	//DEBUG_VALUE: pch_lowmem_check:zone <- 0
	//DEBUG_VALUE: pch_shrink_mmap_pages:ra_pages <- $x19
	.loc	1 576 10 is_stmt 1              // kernel/platform_source/basicplatform/fs/filemap_manager/pagecache_manage.c:576:10
	bl	first_online_pgdat
.Ltmp507:
	//DEBUG_VALUE: pch_lowmem_check:zone <- $x0
	.loc	1 577 6                         // kernel/platform_source/basicplatform/fs/filemap_manager/pagecache_manage.c:577:6
	cbz	x0, .LBB19_6
.Ltmp508:
// %bb.3:
	//DEBUG_VALUE: pch_shrink_mmap_pages:ra_pages <- $x19
	//DEBUG_VALUE: pch_lowmem_check:zone <- $x0
	//DEBUG_VALUE: pch_lowmem_check:ret <- 0
	//DEBUG_VALUE: pch_shrink_mmap_pages:nr <- [DW_OP_LLVM_entry_value 1] $x0
	.loc	1 580 14                        // kernel/platform_source/basicplatform/fs/filemap_manager/pagecache_manage.c:580:14
	ldp	x8, x9, [x0, #16]
.Ltmp509:
	.loc	1 581 7                         // kernel/platform_source/basicplatform/fs/filemap_manager/pagecache_manage.c:581:7
	mov	w1, wzr
	mov	w3, wzr
	mov	w4, wzr
.Ltmp510:
	.loc	1 580 14                        // kernel/platform_source/basicplatform/fs/filemap_manager/pagecache_manage.c:580:14
	add	x8, x8, x9
	.loc	1 580 37 is_stmt 0              // kernel/platform_source/basicplatform/fs/filemap_manager/pagecache_manage.c:580:37
	add	x2, x8, #2                      // =2
.Ltmp511:
	//DEBUG_VALUE: pch_lowmem_check:watermark <- $x2
	.loc	1 0 0                           // kernel/platform_source/basicplatform/fs/filemap_manager/pagecache_manage.c:0:0
	mov	x20, x0
.Ltmp512:
	//DEBUG_VALUE: pch_lowmem_check:zone <- $x20
	.loc	1 581 7 is_stmt 1               // kernel/platform_source/basicplatform/fs/filemap_manager/pagecache_manage.c:581:7
	bl	zone_watermark_ok
.Ltmp513:
	.loc	1 584 14                        // kernel/platform_source/basicplatform/fs/filemap_manager/pagecache_manage.c:584:14
	ldr	x8, [x20, #8]
	ldr	x9, [x20, #24]
.Ltmp514:
	.loc	1 581 7                         // kernel/platform_source/basicplatform/fs/filemap_manager/pagecache_manage.c:581:7
