	.text
	.section	.note.gnu.property,"a",@note
	.p2align	3
	.word	4
	.word	16
	.word	5
	.asciz	"GNU"
	.word	3221225472
	.word	4
	.word	3
	.word	0
.Lsec_end0:
	.text
	.file	"mas_blk_dump.c"
	.file	1 "/mnt/disk/jenkins/ci/workspace/chipset_pipeline_release/opensource/component_code/vendor/huawei/extra/build/build_script/kirin_kernel_release" "kernel/include/linux/types.h"
	.file	2 "/mnt/disk/jenkins/ci/workspace/chipset_pipeline_release/opensource/component_code/vendor/huawei/extra/build/build_script/kirin_kernel_release" "kernel/include/asm-generic/qspinlock_types.h"
	.file	3 "/mnt/disk/jenkins/ci/workspace/chipset_pipeline_release/opensource/component_code/vendor/huawei/extra/build/build_script/kirin_kernel_release" "kernel/include/uapi/asm-generic/int-ll64.h"
	.file	4 "/mnt/disk/jenkins/ci/workspace/chipset_pipeline_release/opensource/component_code/vendor/huawei/extra/build/build_script/kirin_kernel_release" "kernel/include/asm-generic/int-ll64.h"
	.file	5 "/mnt/disk/jenkins/ci/workspace/chipset_pipeline_release/opensource/component_code/vendor/huawei/extra/build/build_script/kirin_kernel_release" "kernel/include/linux/spinlock_types.h"
	.file	6 "/mnt/disk/jenkins/ci/workspace/chipset_pipeline_release/opensource/component_code/vendor/huawei/extra/build/build_script/kirin_kernel_release" "kernel/platform_source/basicplatform/block/mas_blk_dump.c"
	.file	7 "/mnt/disk/jenkins/ci/workspace/chipset_pipeline_release/opensource/component_code/vendor/huawei/extra/build/build_script/kirin_kernel_release" "kernel/include/linux/notifier.h"
	.file	8 "/mnt/disk/jenkins/ci/workspace/chipset_pipeline_release/opensource/component_code/vendor/huawei/extra/build/build_script/kirin_kernel_release" "kernel/include/linux/module.h"
	.file	9 "/mnt/disk/jenkins/ci/workspace/chipset_pipeline_release/opensource/component_code/vendor/huawei/extra/build/build_script/kirin_kernel_release" "kernel/include/linux/quota.h"
	.file	10 "/mnt/disk/jenkins/ci/workspace/chipset_pipeline_release/opensource/component_code/vendor/huawei/extra/build/build_script/kirin_kernel_release" "kernel/include/linux/hrtimer.h"
	.file	11 "/mnt/disk/jenkins/ci/workspace/chipset_pipeline_release/opensource/component_code/vendor/huawei/extra/build/build_script/kirin_kernel_release" "kernel/include/linux/mm.h"
	.file	12 "/mnt/disk/jenkins/ci/workspace/chipset_pipeline_release/opensource/component_code/vendor/huawei/extra/build/build_script/kirin_kernel_release" "kernel/include/linux/restart_block.h"
	.file	13 "/mnt/disk/jenkins/ci/workspace/chipset_pipeline_release/opensource/component_code/vendor/huawei/extra/build/build_script/kirin_kernel_release" "kernel/include/linux/device/driver.h"
	.file	14 "/mnt/disk/jenkins/ci/workspace/chipset_pipeline_release/opensource/component_code/vendor/huawei/extra/build/build_script/kirin_kernel_release" "kernel/include/linux/device.h"
	.file	15 "/mnt/disk/jenkins/ci/workspace/chipset_pipeline_release/opensource/component_code/vendor/huawei/extra/build/build_script/kirin_kernel_release" "kernel/include/linux/pm.h"
	.file	16 "/mnt/disk/jenkins/ci/workspace/chipset_pipeline_release/opensource/component_code/vendor/huawei/extra/build/build_script/kirin_kernel_release" "kernel/include/linux/kobject_ns.h"
	.file	17 "/mnt/disk/jenkins/ci/workspace/chipset_pipeline_release/opensource/component_code/vendor/huawei/extra/build/build_script/kirin_kernel_release" "kernel/include/linux/backing-dev-defs.h"
	.file	18 "/mnt/disk/jenkins/ci/workspace/chipset_pipeline_release/opensource/component_code/vendor/huawei/extra/build/build_script/kirin_kernel_release" "kernel/include/linux/migrate_mode.h"
	.file	19 "/mnt/disk/jenkins/ci/workspace/chipset_pipeline_release/opensource/component_code/vendor/huawei/extra/build/build_script/kirin_kernel_release" "kernel/include/linux/memremap.h"
	.file	20 "/mnt/disk/jenkins/ci/workspace/chipset_pipeline_release/opensource/component_code/vendor/huawei/extra/build/build_script/kirin_kernel_release" "kernel/include/linux/fs.h"
	.file	21 "/mnt/disk/jenkins/ci/workspace/chipset_pipeline_release/opensource/component_code/vendor/huawei/extra/build/build_script/kirin_kernel_release" "kernel/include/linux/pid.h"
	.file	22 "/mnt/disk/jenkins/ci/workspace/chipset_pipeline_release/opensource/component_code/vendor/huawei/extra/build/build_script/kirin_kernel_release" "kernel/include/linux/blkdev.h"
	.file	23 "/mnt/disk/jenkins/ci/workspace/chipset_pipeline_release/opensource/component_code/vendor/huawei/extra/build/build_script/kirin_kernel_release" "kernel/include/platform_include/basicplatform/linux/mas/mas_blk.h"
	.file	24 "/mnt/disk/jenkins/ci/workspace/chipset_pipeline_release/opensource/component_code/vendor/huawei/extra/build/build_script/kirin_kernel_release" "kernel/include/linux/elevator.h"
	.file	25 "/mnt/disk/jenkins/ci/workspace/chipset_pipeline_release/opensource/component_code/vendor/huawei/extra/build/build_script/kirin_kernel_release" "kernel/include/linux/blk_types.h"
	.file	26 "/mnt/disk/jenkins/ci/workspace/chipset_pipeline_release/opensource/component_code/vendor/huawei/extra/build/build_script/kirin_kernel_release" "kernel/include/linux/stddef.h"
	.file	27 "/mnt/disk/jenkins/ci/workspace/chipset_pipeline_release/opensource/component_code/vendor/huawei/extra/build/build_script/kirin_kernel_release" "kernel/include/linux/blk-mq.h"
	.file	28 "/mnt/disk/jenkins/ci/workspace/chipset_pipeline_release/opensource/component_code/vendor/huawei/extra/build/build_script/kirin_kernel_release" "kernel/include/uapi/asm-generic/posix_types.h"
	.file	29 "/mnt/disk/jenkins/ci/workspace/chipset_pipeline_release/opensource/component_code/vendor/huawei/extra/build/build_script/kirin_kernel_release" "kernel/block/blk-mq.h"
	.file	30 "/mnt/disk/jenkins/ci/workspace/chipset_pipeline_release/opensource/component_code/vendor/huawei/extra/build/build_script/kirin_kernel_release" "kernel/include/asm-generic/atomic-long.h"
	.file	31 "/mnt/disk/jenkins/ci/workspace/chipset_pipeline_release/opensource/component_code/vendor/huawei/extra/build/build_script/kirin_kernel_release" "kernel/include/linux/workqueue.h"
	.file	32 "/mnt/disk/jenkins/ci/workspace/chipset_pipeline_release/opensource/component_code/vendor/huawei/extra/build/build_script/kirin_kernel_release" "kernel/include/linux/timer.h"
	.file	33 "/mnt/disk/jenkins/ci/workspace/chipset_pipeline_release/opensource/component_code/vendor/huawei/extra/build/build_script/kirin_kernel_release" "kernel/include/linux/cpumask.h"
	.file	34 "/mnt/disk/jenkins/ci/workspace/chipset_pipeline_release/opensource/component_code/vendor/huawei/extra/build/build_script/kirin_kernel_release" "kernel/block/blk.h"
	.file	35 "/mnt/disk/jenkins/ci/workspace/chipset_pipeline_release/opensource/component_code/vendor/huawei/extra/build/build_script/kirin_kernel_release" "kernel/include/linux/lockdep_types.h"
	.file	36 "/mnt/disk/jenkins/ci/workspace/chipset_pipeline_release/opensource/component_code/vendor/huawei/extra/build/build_script/kirin_kernel_release" "kernel/include/linux/sbitmap.h"
	.file	37 "/mnt/disk/jenkins/ci/workspace/chipset_pipeline_release/opensource/component_code/vendor/huawei/extra/build/build_script/kirin_kernel_release" "kernel/include/linux/wait.h"
	.file	38 "/mnt/disk/jenkins/ci/workspace/chipset_pipeline_release/opensource/component_code/vendor/huawei/extra/build/build_script/kirin_kernel_release" "kernel/block/blk-mq-tag.h"
	.file	39 "/mnt/disk/jenkins/ci/workspace/chipset_pipeline_release/opensource/component_code/vendor/huawei/extra/build/build_script/kirin_kernel_release" "kernel/include/linux/rwsem.h"
	.file	40 "/mnt/disk/jenkins/ci/workspace/chipset_pipeline_release/opensource/component_code/vendor/huawei/extra/build/build_script/kirin_kernel_release" "kernel/include/linux/osq_lock.h"
	.file	41 "/mnt/disk/jenkins/ci/workspace/chipset_pipeline_release/opensource/component_code/vendor/huawei/extra/build/build_script/kirin_kernel_release" "kernel/arch/arm64/include/asm/thread_info.h"
	.file	42 "/mnt/disk/jenkins/ci/workspace/chipset_pipeline_release/opensource/component_code/vendor/huawei/extra/build/build_script/kirin_kernel_release" "kernel/include/linux/sched.h"
	.file	43 "/mnt/disk/jenkins/ci/workspace/chipset_pipeline_release/opensource/component_code/vendor/huawei/extra/build/build_script/kirin_kernel_release" "kernel/include/linux/refcount.h"
	.file	44 "/mnt/disk/jenkins/ci/workspace/chipset_pipeline_release/opensource/component_code/vendor/huawei/extra/build/build_script/kirin_kernel_release" "kernel/include/linux/llist.h"
	.file	45 "/mnt/disk/jenkins/ci/workspace/chipset_pipeline_release/opensource/component_code/vendor/huawei/extra/build/build_script/kirin_kernel_release" "kernel/include/linux/smp_types.h"
	.file	46 "/mnt/disk/jenkins/ci/workspace/chipset_pipeline_release/opensource/component_code/vendor/huawei/extra/build/build_script/kirin_kernel_release" "kernel/include/linux/rbtree.h"
	.file	47 "/mnt/disk/jenkins/ci/workspace/chipset_pipeline_release/opensource/component_code/vendor/huawei/extra/build/build_script/kirin_kernel_release" "kernel/include/linux/timerqueue.h"
	.file	48 "/mnt/disk/jenkins/ci/workspace/chipset_pipeline_release/opensource/component_code/vendor/huawei/extra/build/build_script/kirin_kernel_release" "kernel/include/linux/ktime.h"
	.file	49 "/mnt/disk/jenkins/ci/workspace/chipset_pipeline_release/opensource/component_code/vendor/huawei/extra/build/build_script/kirin_kernel_release" "kernel/include/linux/seqlock.h"
	.file	50 "/mnt/disk/jenkins/ci/workspace/chipset_pipeline_release/opensource/component_code/vendor/huawei/extra/build/build_script/kirin_kernel_release" "kernel/include/linux/plist.h"
	.file	51 "/mnt/disk/jenkins/ci/workspace/chipset_pipeline_release/opensource/component_code/vendor/huawei/extra/build/build_script/kirin_kernel_release" "kernel/include/linux/mm_types.h"
	.file	52 "/mnt/disk/jenkins/ci/workspace/chipset_pipeline_release/opensource/component_code/vendor/huawei/extra/build/build_script/kirin_kernel_release" "kernel/arch/arm64/include/asm/pgtable-types.h"
	.file	53 "/mnt/disk/jenkins/ci/workspace/chipset_pipeline_release/opensource/component_code/vendor/huawei/extra/build/build_script/kirin_kernel_release" "kernel/include/asm-generic/pgtable-nop4d.h"
	.file	54 "/mnt/disk/jenkins/ci/workspace/chipset_pipeline_release/opensource/component_code/vendor/huawei/extra/build/build_script/kirin_kernel_release" "kernel/include/asm-generic/pgtable-nopud.h"
	.file	55 "/mnt/disk/jenkins/ci/workspace/chipset_pipeline_release/opensource/component_code/vendor/huawei/extra/build/build_script/kirin_kernel_release" "kernel/include/linux/uidgid.h"
	.file	56 "/mnt/disk/jenkins/ci/workspace/chipset_pipeline_release/opensource/component_code/vendor/huawei/extra/build/build_script/kirin_kernel_release" "kernel/include/linux/dcache.h"
	.file	57 "/mnt/disk/jenkins/ci/workspace/chipset_pipeline_release/opensource/component_code/vendor/huawei/extra/build/build_script/kirin_kernel_release" "kernel/include/linux/list_bl.h"
	.file	58 "/mnt/disk/jenkins/ci/workspace/chipset_pipeline_release/opensource/component_code/vendor/huawei/extra/build/build_script/kirin_kernel_release" "kernel/include/linux/lockref.h"
	.file	59 "/mnt/disk/jenkins/ci/workspace/chipset_pipeline_release/opensource/component_code/vendor/huawei/extra/build/build_script/kirin_kernel_release" "kernel/include/linux/path.h"
	.file	60 "/mnt/disk/jenkins/ci/workspace/chipset_pipeline_release/opensource/component_code/vendor/huawei/extra/build/build_script/kirin_kernel_release" "kernel/include/linux/kobject.h"
	.file	61 "/mnt/disk/jenkins/ci/workspace/chipset_pipeline_release/opensource/component_code/vendor/huawei/extra/build/build_script/kirin_kernel_release" "kernel/include/linux/sysfs.h"
	.file	62 "/mnt/disk/jenkins/ci/workspace/chipset_pipeline_release/opensource/component_code/vendor/huawei/extra/build/build_script/kirin_kernel_release" "kernel/include/linux/pagemap.h"
	.file	63 "/mnt/disk/jenkins/ci/workspace/chipset_pipeline_release/opensource/component_code/vendor/huawei/extra/build/build_script/kirin_kernel_release" "kernel/include/linux/uio.h"
	.file	64 "/mnt/disk/jenkins/ci/workspace/chipset_pipeline_release/opensource/component_code/vendor/huawei/extra/build/build_script/kirin_kernel_release" "kernel/include/uapi/linux/uio.h"
	.file	65 "/mnt/disk/jenkins/ci/workspace/chipset_pipeline_release/opensource/component_code/vendor/huawei/extra/build/build_script/kirin_kernel_release" "kernel/include/linux/bvec.h"
	.file	66 "/mnt/disk/jenkins/ci/workspace/chipset_pipeline_release/opensource/component_code/vendor/huawei/extra/build/build_script/kirin_kernel_release" "kernel/include/uapi/linux/types.h"
	.file	67 "/mnt/disk/jenkins/ci/workspace/chipset_pipeline_release/opensource/component_code/vendor/huawei/extra/build/build_script/kirin_kernel_release" "kernel/include/asm-generic/qrwlock_types.h"
	.file	68 "/mnt/disk/jenkins/ci/workspace/chipset_pipeline_release/opensource/component_code/vendor/huawei/extra/build/build_script/kirin_kernel_release" "kernel/include/linux/rwlock_types.h"
	.file	69 "/mnt/disk/jenkins/ci/workspace/chipset_pipeline_release/opensource/component_code/vendor/huawei/extra/build/build_script/kirin_kernel_release" "kernel/include/linux/nfs_fs_i.h"
	.file	70 "/mnt/disk/jenkins/ci/workspace/chipset_pipeline_release/opensource/component_code/vendor/huawei/extra/build/build_script/kirin_kernel_release" "kernel/include/linux/mutex.h"
	.file	71 "/mnt/disk/jenkins/ci/workspace/chipset_pipeline_release/opensource/component_code/vendor/huawei/extra/build/build_script/kirin_kernel_release" "kernel/include/linux/kref.h"
	.file	72 "/mnt/disk/jenkins/ci/workspace/chipset_pipeline_release/opensource/component_code/vendor/huawei/extra/build/build_script/kirin_kernel_release" "kernel/include/linux/pid_namespace.h"
	.file	73 "/mnt/disk/jenkins/ci/workspace/chipset_pipeline_release/opensource/component_code/vendor/huawei/extra/build/build_script/kirin_kernel_release" "kernel/include/linux/xarray.h"
	.file	74 "/mnt/disk/jenkins/ci/workspace/chipset_pipeline_release/opensource/component_code/vendor/huawei/extra/build/build_script/kirin_kernel_release" "kernel/include/linux/idr.h"
	.file	75 "/mnt/disk/jenkins/ci/workspace/chipset_pipeline_release/opensource/component_code/vendor/huawei/extra/build/build_script/kirin_kernel_release" "kernel/include/linux/ns_common.h"
	.file	76 "/mnt/disk/jenkins/ci/workspace/chipset_pipeline_release/opensource/component_code/vendor/huawei/extra/build/build_script/kirin_kernel_release" "kernel/include/linux/cred.h"
	.file	77 "/mnt/disk/jenkins/ci/workspace/chipset_pipeline_release/opensource/component_code/vendor/huawei/extra/build/build_script/kirin_kernel_release" "kernel/include/linux/capability.h"
	.file	78 "/mnt/disk/jenkins/ci/workspace/chipset_pipeline_release/opensource/component_code/vendor/huawei/extra/build/build_script/kirin_kernel_release" "kernel/include/linux/key.h"
	.file	79 "/mnt/disk/jenkins/ci/workspace/chipset_pipeline_release/opensource/component_code/vendor/huawei/extra/build/build_script/kirin_kernel_release" "kernel/include/linux/time64.h"
	.file	80 "/mnt/disk/jenkins/ci/workspace/chipset_pipeline_release/opensource/component_code/vendor/huawei/extra/build/build_script/kirin_kernel_release" "kernel/include/linux/assoc_array.h"
	.file	81 "/mnt/disk/jenkins/ci/workspace/chipset_pipeline_release/opensource/component_code/vendor/huawei/extra/build/build_script/kirin_kernel_release" "kernel/include/linux/sched/user.h"
	.file	82 "/mnt/disk/jenkins/ci/workspace/chipset_pipeline_release/opensource/component_code/vendor/huawei/extra/build/build_script/kirin_kernel_release" "kernel/include/linux/ratelimit_types.h"
	.file	83 "/mnt/disk/jenkins/ci/workspace/chipset_pipeline_release/opensource/component_code/vendor/huawei/extra/build/build_script/kirin_kernel_release" "kernel/include/linux/errseq.h"
	.file	84 "/mnt/disk/jenkins/ci/workspace/chipset_pipeline_release/opensource/component_code/vendor/huawei/extra/build/build_script/kirin_kernel_release" "kernel/include/linux/kernfs.h"
	.file	85 "/mnt/disk/jenkins/ci/workspace/chipset_pipeline_release/opensource/component_code/vendor/huawei/extra/build/build_script/kirin_kernel_release" "kernel/include/linux/completion.h"
	.file	86 "/mnt/disk/jenkins/ci/workspace/chipset_pipeline_release/opensource/component_code/vendor/huawei/extra/build/build_script/kirin_kernel_release" "kernel/include/linux/swait.h"
	.file	87 "/mnt/disk/jenkins/ci/workspace/chipset_pipeline_release/opensource/component_code/vendor/huawei/extra/build/build_script/kirin_kernel_release" "kernel/include/linux/export.h"
	.file	88 "/mnt/disk/jenkins/ci/workspace/chipset_pipeline_release/opensource/component_code/vendor/huawei/extra/build/build_script/kirin_kernel_release" "kernel/include/linux/moduleparam.h"
	.file	89 "/mnt/disk/jenkins/ci/workspace/chipset_pipeline_release/opensource/component_code/vendor/huawei/extra/build/build_script/kirin_kernel_release" "kernel/arch/arm64/include/asm/extable.h"
	.file	90 "/mnt/disk/jenkins/ci/workspace/chipset_pipeline_release/opensource/component_code/vendor/huawei/extra/build/build_script/kirin_kernel_release" "kernel/include/linux/rbtree_latch.h"
	.file	91 "/mnt/disk/jenkins/ci/workspace/chipset_pipeline_release/opensource/component_code/vendor/huawei/extra/build/build_script/kirin_kernel_release" "kernel/arch/arm64/include/asm/module.h"
	.file	92 "/mnt/disk/jenkins/ci/workspace/chipset_pipeline_release/opensource/component_code/vendor/huawei/extra/build/build_script/kirin_kernel_release" "kernel/include/uapi/linux/elf.h"
	.file	93 "/mnt/disk/jenkins/ci/workspace/chipset_pipeline_release/opensource/component_code/vendor/huawei/extra/build/build_script/kirin_kernel_release" "kernel/include/asm-generic/bug.h"
	.file	94 "/mnt/disk/jenkins/ci/workspace/chipset_pipeline_release/opensource/component_code/vendor/huawei/extra/build/build_script/kirin_kernel_release" "kernel/include/linux/tracepoint-defs.h"
	.file	95 "/mnt/disk/jenkins/ci/workspace/chipset_pipeline_release/opensource/component_code/vendor/huawei/extra/build/build_script/kirin_kernel_release" "kernel/include/linux/srcutree.h"
	.file	96 "/mnt/disk/jenkins/ci/workspace/chipset_pipeline_release/opensource/component_code/vendor/huawei/extra/build/build_script/kirin_kernel_release" "kernel/include/linux/rcu_segcblist.h"
	.file	97 "/mnt/disk/jenkins/ci/workspace/chipset_pipeline_release/opensource/component_code/vendor/huawei/extra/build/build_script/kirin_kernel_release" "kernel/include/linux/tracepoint.h"
	.file	98 "/mnt/disk/jenkins/ci/workspace/chipset_pipeline_release/opensource/component_code/vendor/huawei/extra/build/build_script/kirin_kernel_release" "kernel/include/linux/projid.h"
	.file	99 "/mnt/disk/jenkins/ci/workspace/chipset_pipeline_release/opensource/component_code/vendor/huawei/extra/build/build_script/kirin_kernel_release" "kernel/include/linux/shrinker.h"
	.file	100 "/mnt/disk/jenkins/ci/workspace/chipset_pipeline_release/opensource/component_code/vendor/huawei/extra/build/build_script/kirin_kernel_release" "kernel/include/linux/genhd.h"
	.file	101 "/mnt/disk/jenkins/ci/workspace/chipset_pipeline_release/opensource/component_code/vendor/huawei/extra/build/build_script/kirin_kernel_release" "kernel/include/linux/part_stat.h"
	.file	102 "/mnt/disk/jenkins/ci/workspace/chipset_pipeline_release/opensource/component_code/vendor/huawei/extra/build/build_script/kirin_kernel_release" "kernel/include/asm-generic/local.h"
	.file	103 "/mnt/disk/jenkins/ci/workspace/chipset_pipeline_release/opensource/component_code/vendor/huawei/extra/build/build_script/kirin_kernel_release" "kernel/include/linux/percpu-refcount.h"
	.file	104 "/mnt/disk/jenkins/ci/workspace/chipset_pipeline_release/opensource/component_code/vendor/huawei/extra/build/build_script/kirin_kernel_release" "kernel/include/linux/device/bus.h"
	.file	105 "/mnt/disk/jenkins/ci/workspace/chipset_pipeline_release/opensource/component_code/vendor/huawei/extra/build/build_script/kirin_kernel_release" "kernel/include/linux/pm_wakeup.h"
	.file	106 "/mnt/disk/jenkins/ci/workspace/chipset_pipeline_release/opensource/component_code/vendor/huawei/extra/build/build_script/kirin_kernel_release" "kernel/include/linux/energy_model.h"
	.file	107 "/mnt/disk/jenkins/ci/workspace/chipset_pipeline_release/opensource/component_code/vendor/huawei/extra/build/build_script/kirin_kernel_release" "kernel/arch/arm64/include/asm/device.h"
	.file	108 "/mnt/disk/jenkins/ci/workspace/chipset_pipeline_release/opensource/component_code/vendor/huawei/extra/build/build_script/kirin_kernel_release" "kernel/include/linux/fwnode.h"
	.file	109 "/mnt/disk/jenkins/ci/workspace/chipset_pipeline_release/opensource/component_code/vendor/huawei/extra/build/build_script/kirin_kernel_release" "kernel/include/linux/device/class.h"
	.file	110 "/mnt/disk/jenkins/ci/workspace/chipset_pipeline_release/opensource/component_code/vendor/huawei/extra/build/build_script/kirin_kernel_release" "kernel/include/linux/bio.h"
	.file	111 "/mnt/disk/jenkins/ci/workspace/chipset_pipeline_release/opensource/component_code/vendor/huawei/extra/build/build_script/kirin_kernel_release" "kernel/include/linux/mempool.h"
	.file	112 "/mnt/disk/jenkins/ci/workspace/chipset_pipeline_release/opensource/component_code/vendor/huawei/extra/build/build_script/kirin_kernel_release" "kernel/include/uapi/linux/blkzoned.h"
	.file	113 "/mnt/disk/jenkins/ci/workspace/chipset_pipeline_release/opensource/component_code/vendor/huawei/extra/build/build_script/kirin_kernel_release" "kernel/include/linux/percpu_counter.h"
	.file	114 "/mnt/disk/jenkins/ci/workspace/chipset_pipeline_release/opensource/component_code/vendor/huawei/extra/build/build_script/kirin_kernel_release" "kernel/include/linux/flex_proportions.h"
	.file	115 "/mnt/disk/jenkins/ci/workspace/chipset_pipeline_release/opensource/component_code/vendor/huawei/extra/build/build_script/kirin_kernel_release" "kernel/include/linux/rcu_sync.h"
	.file	116 "/mnt/disk/jenkins/ci/workspace/chipset_pipeline_release/opensource/component_code/vendor/huawei/extra/build/build_script/kirin_kernel_release" "kernel/include/linux/percpu-rwsem.h"
	.file	117 "/mnt/disk/jenkins/ci/workspace/chipset_pipeline_release/opensource/component_code/vendor/huawei/extra/build/build_script/kirin_kernel_release" "kernel/include/linux/rcuwait.h"
	.file	118 "/mnt/disk/jenkins/ci/workspace/chipset_pipeline_release/opensource/component_code/vendor/huawei/extra/build/build_script/kirin_kernel_release" "kernel/include/linux/uuid.h"
	.file	119 "/mnt/disk/jenkins/ci/workspace/chipset_pipeline_release/opensource/component_code/vendor/huawei/extra/build/build_script/kirin_kernel_release" "kernel/include/linux/list_lru.h"
	.file	120 "/mnt/disk/jenkins/ci/workspace/chipset_pipeline_release/opensource/component_code/vendor/huawei/extra/build/build_script/kirin_kernel_release" "kernel/include/linux/delayed_call.h"
	.file	121 "/mnt/disk/jenkins/ci/workspace/chipset_pipeline_release/opensource/component_code/vendor/huawei/extra/build/build_script/kirin_kernel_release" "kernel/include/linux/stat.h"
	.file	122 "/mnt/disk/jenkins/ci/workspace/chipset_pipeline_release/opensource/component_code/vendor/huawei/extra/build/build_script/kirin_kernel_release" "kernel/include/linux/mmzone.h"
	.file	123 "/mnt/disk/jenkins/ci/workspace/chipset_pipeline_release/opensource/component_code/vendor/huawei/extra/build/build_script/kirin_kernel_release" "kernel/arch/arm64/include/asm/page.h"
	.file	124 "/mnt/disk/jenkins/ci/workspace/chipset_pipeline_release/opensource/component_code/vendor/huawei/extra/build/build_script/kirin_kernel_release" "kernel/include/linux/range.h"
	.file	125 "/mnt/disk/jenkins/ci/workspace/chipset_pipeline_release/opensource/component_code/vendor/huawei/extra/build/build_script/kirin_kernel_release" "kernel/include/linux/mm_types_task.h"
	.file	126 "/mnt/disk/jenkins/ci/workspace/chipset_pipeline_release/opensource/component_code/vendor/huawei/extra/build/build_script/kirin_kernel_release" "kernel/arch/arm64/include/asm/mmu.h"
	.file	127 "/mnt/disk/jenkins/ci/workspace/chipset_pipeline_release/opensource/component_code/vendor/huawei/extra/build/build_script/kirin_kernel_release" "kernel/include/linux/uprobes.h"
	.file	128 "/mnt/disk/jenkins/ci/workspace/chipset_pipeline_release/opensource/component_code/vendor/huawei/extra/build/build_script/kirin_kernel_release" "kernel/include/linux/xreclaimer_types.h"
	.file	129 "/mnt/disk/jenkins/ci/workspace/chipset_pipeline_release/opensource/component_code/vendor/huawei/extra/build/build_script/kirin_kernel_release" "kernel/include/uapi/linux/time_types.h"
	.file	130 "/mnt/disk/jenkins/ci/workspace/chipset_pipeline_release/opensource/component_code/vendor/huawei/extra/build/build_script/kirin_kernel_release" "kernel/include/vdso/time32.h"
	.file	131 "/mnt/disk/jenkins/ci/workspace/chipset_pipeline_release/opensource/component_code/vendor/huawei/extra/build/build_script/kirin_kernel_release" "kernel/include/linux/posix-timers.h"
	.file	132 "/mnt/disk/jenkins/ci/workspace/chipset_pipeline_release/opensource/component_code/vendor/huawei/extra/build/build_script/kirin_kernel_release" "kernel/include/linux/nsproxy.h"
	.file	133 "/mnt/disk/jenkins/ci/workspace/chipset_pipeline_release/opensource/component_code/vendor/huawei/extra/build/build_script/kirin_kernel_release" "kernel/include/linux/sched/signal.h"
	.file	134 "/mnt/disk/jenkins/ci/workspace/chipset_pipeline_release/opensource/component_code/vendor/huawei/extra/build/build_script/kirin_kernel_release" "kernel/include/linux/signal_types.h"
	.file	135 "/mnt/disk/jenkins/ci/workspace/chipset_pipeline_release/opensource/component_code/vendor/huawei/extra/build/build_script/kirin_kernel_release" "kernel/include/uapi/asm-generic/signal.h"
	.file	136 "/mnt/disk/jenkins/ci/workspace/chipset_pipeline_release/opensource/component_code/vendor/huawei/extra/build/build_script/kirin_kernel_release" "kernel/include/linux/task_io_accounting.h"
	.file	137 "/mnt/disk/jenkins/ci/workspace/chipset_pipeline_release/opensource/component_code/vendor/huawei/extra/build/build_script/kirin_kernel_release" "kernel/include/uapi/linux/resource.h"
	.file	138 "/mnt/disk/jenkins/ci/workspace/chipset_pipeline_release/opensource/component_code/vendor/huawei/extra/build/build_script/kirin_kernel_release" "kernel/include/uapi/asm-generic/signal-defs.h"
	.file	139 "/mnt/disk/jenkins/ci/workspace/chipset_pipeline_release/opensource/component_code/vendor/huawei/extra/build/build_script/kirin_kernel_release" "kernel/include/linux/seccomp.h"
	.file	140 "/mnt/disk/jenkins/ci/workspace/chipset_pipeline_release/opensource/component_code/vendor/huawei/extra/build/build_script/kirin_kernel_release" "kernel/include/linux/iocontext.h"
	.file	141 "/mnt/disk/jenkins/ci/workspace/chipset_pipeline_release/opensource/component_code/vendor/huawei/extra/build/build_script/kirin_kernel_release" "kernel/include/uapi/asm-generic/siginfo.h"
	.file	142 "/mnt/disk/jenkins/ci/workspace/chipset_pipeline_release/opensource/component_code/vendor/huawei/extra/build/build_script/kirin_kernel_release" "kernel/include/linux/nodemask.h"
	.file	143 "/mnt/disk/jenkins/ci/workspace/chipset_pipeline_release/opensource/component_code/vendor/huawei/extra/build/build_script/kirin_kernel_release" "kernel/include/asm-generic/compat.h"
	.file	144 "/mnt/disk/jenkins/ci/workspace/chipset_pipeline_release/opensource/component_code/vendor/huawei/extra/build/build_script/kirin_kernel_release" "kernel/include/linux/compat.h"
	.file	145 "/mnt/disk/jenkins/ci/workspace/chipset_pipeline_release/opensource/component_code/vendor/huawei/extra/build/build_script/kirin_kernel_release" "kernel/arch/arm64/include/asm/tlbbatch.h"
	.file	146 "/mnt/disk/jenkins/ci/workspace/chipset_pipeline_release/opensource/component_code/vendor/huawei/extra/build/build_script/kirin_kernel_release" "kernel/arch/arm64/include/asm/processor.h"
	.file	147 "/mnt/disk/jenkins/ci/workspace/chipset_pipeline_release/opensource/component_code/vendor/huawei/extra/build/build_script/kirin_kernel_release" "kernel/arch/arm64/include/uapi/asm/ptrace.h"
	.file	148 "/mnt/disk/jenkins/ci/workspace/chipset_pipeline_release/opensource/component_code/vendor/huawei/extra/build/build_script/kirin_kernel_release" "kernel/arch/arm64/include/asm/pointer_auth.h"
	.file	149 "/mnt/disk/jenkins/ci/workspace/chipset_pipeline_release/opensource/component_code/vendor/huawei/extra/build/build_script/kirin_kernel_release" "kernel/include/linux/smp.h"
	.file	150 "/mnt/disk/jenkins/ci/workspace/chipset_pipeline_release/opensource/component_code/vendor/huawei/extra/build/build_script/kirin_kernel_release" "kernel/block/blk-stat.h"
	.file	151 "/mnt/disk/jenkins/ci/workspace/chipset_pipeline_release/opensource/component_code/vendor/huawei/extra/build/build_script/kirin_kernel_release" "kernel/include/linux/bsg.h"
	.file	152 "/mnt/disk/jenkins/ci/workspace/chipset_pipeline_release/opensource/component_code/vendor/huawei/extra/build/build_script/kirin_kernel_release" "kernel/include/uapi/linux/bsg.h"
	.globl	mas_blk_dump_request            // -- Begin function mas_blk_dump_request
	.p2align	2
	.type	mas_blk_dump_request,@function
mas_blk_dump_request:                   // @mas_blk_dump_request
.Lfunc_begin0:
	.loc	6 237 0                         // kernel/platform_source/basicplatform/block/mas_blk_dump.c:237:0
	.cfi_sections .debug_frame
	.cfi_startproc
// %bb.0:
	//DEBUG_VALUE: mas_blk_dump_request:rq <- $x0
	//DEBUG_VALUE: mas_blk_dump_request:s <- $w1
	hint	#25
	.cfi_negate_ra_state
	stp	x29, x30, [sp, #-96]!           // 16-byte Folded Spill
	str	x28, [sp, #16]                  // 8-byte Folded Spill
	stp	x26, x25, [sp, #32]             // 16-byte Folded Spill
	stp	x24, x23, [sp, #48]             // 16-byte Folded Spill
	stp	x22, x21, [sp, #64]             // 16-byte Folded Spill
	stp	x20, x19, [sp, #80]             // 16-byte Folded Spill
	mov	x29, sp
	sub	sp, sp, #560                    // =560
	.cfi_def_cfa w29, 96
	.cfi_offset w19, -8
	.cfi_offset w20, -16
	.cfi_offset w21, -24
	.cfi_offset w22, -32
	.cfi_offset w23, -40
	.cfi_offset w24, -48
	.cfi_offset w25, -56
	.cfi_offset w26, -64
	.cfi_offset w28, -80
	.cfi_offset w30, -88
	.cfi_offset w29, -96
	adrp	x8, __stack_chk_guard
	ldr	x8, [x8, :lo12:__stack_chk_guard]
	mov	w19, w1
.Ltmp0:
	//DEBUG_VALUE: mas_blk_dump_request:s <- $w19
	mov	x20, x0
.Ltmp1:
	.loc	6 218 9 prologue_end            // kernel/platform_source/basicplatform/block/mas_blk_dump.c:218:9
	add	x3, sp, #28                     // =28
	stur	x8, [x29, #-8]
.Ltmp2:
	//DEBUG_VALUE: mas_blk_io_type_rq:len <- 10
	//DEBUG_VALUE: mas_blk_io_type_rq:rq <- $x20
	//DEBUG_VALUE: mas_blk_dump_request:count <- 0
	//DEBUG_VALUE: mas_blk_dump_request:cmp_type <- 0
	//DEBUG_VALUE: mas_blk_dump_request:s <- $w19
	//DEBUG_VALUE: mas_blk_dump_request:rq <- $x20
	.loc	6 219 3                         // kernel/platform_source/basicplatform/block/mas_blk_dump.c:219:3
	ldr	w1, [x0, #24]
	.loc	6 219 34 is_stmt 0              // kernel/platform_source/basicplatform/block/mas_blk_dump.c:219:34
	ldr	x2, [x0, #192]
	.loc	6 219 3                         // kernel/platform_source/basicplatform/block/mas_blk_dump.c:219:3
	and	x0, x1, #0xff
.Ltmp3:
	//DEBUG_VALUE: mas_blk_dump_request:type <- [DW_OP_plus_uconst 28, DW_OP_stack_value] $sp
	//DEBUG_VALUE: mas_blk_io_type_rq:type_buf <- [DW_OP_plus_uconst 28, DW_OP_stack_value] $sp
	.loc	6 218 9 is_stmt 1               // kernel/platform_source/basicplatform/block/mas_blk_dump.c:218:9
	bl	mas_blk_io_type
.Ltmp4:
	//DEBUG_VALUE: blk_rq_is_scsi:rq <- $x20
	//DEBUG_VALUE: get_cmp_type:rq <- $x20
	//DEBUG_VALUE: mas_blk_dump_request:prefix <- undef
	//DEBUG_VALUE: mas_blk_prefix_str:s <- undef
	.loc	22 442 24                       // kernel/include/linux/blkdev.h:442:24
	ldr	w8, [x20, #24]
.Ltmp5:
	.loc	6 225 6                         // kernel/platform_source/basicplatform/block/mas_blk_dump.c:225:6
	adrp	x9, .L.str.20
	adrp	x10, .L.str.19
.Ltmp6:
	.loc	6 250 46                        // kernel/platform_source/basicplatform/block/mas_blk_dump.c:250:46
	ldr	w5, [x20, #40]
	.loc	6 251 16                        // kernel/platform_source/basicplatform/block/mas_blk_dump.c:251:16
	ldr	w7, [x20, #252]
	.loc	6 251 36 is_stmt 0              // kernel/platform_source/basicplatform/block/mas_blk_dump.c:251:36
	ldr	w12, [x20, #32]
	.loc	6 251 45                        // kernel/platform_source/basicplatform/block/mas_blk_dump.c:251:45
	ldr	w13, [x20, #200]
.Ltmp7:
	//DEBUG_VALUE: blk_op_is_scsi:op <- [DW_OP_constu 255, DW_OP_and, DW_OP_stack_value] $w8
	.loc	22 432 30 is_stmt 1             // kernel/include/linux/blkdev.h:432:30
	and	w8, w8, #0xfe
.Ltmp8:
	//DEBUG_VALUE: blk_rq_is_scsi:rq <- $x20
	//DEBUG_VALUE: get_cmp_type:rq <- $x20
	.loc	6 225 6                         // kernel/platform_source/basicplatform/block/mas_blk_dump.c:225:6
	add	x9, x9, :lo12:.L.str.20
	add	x10, x10, :lo12:.L.str.19
	adrp	x11, .L.str.18
	cmp	w8, #34                         // =34
	add	x11, x11, :lo12:.L.str.18
	csel	x9, x10, x9, eq
	cmp	w8, #32                         // =32
.Ltmp9:
	.loc	6 248 11                        // kernel/platform_source/basicplatform/block/mas_blk_dump.c:248:11
	adrp	x2, .L.str
.Ltmp10:
	.loc	6 225 6                         // kernel/platform_source/basicplatform/block/mas_blk_dump.c:225:6
	csel	x6, x11, x9, eq
.Ltmp11:
	//DEBUG_VALUE: mas_blk_dump_request:cmp_type <- $x6
	.loc	6 248 11                        // kernel/platform_source/basicplatform/block/mas_blk_dump.c:248:11
	add	x2, x2, :lo12:.L.str
	add	x0, sp, #40                     // =40
	add	x4, sp, #28                     // =28
	mov	w1, #512
	mov	x3, xzr
	str	w13, [sp, #8]
	str	w12, [sp]
	mov	w23, #512
	add	x24, sp, #40                    // =40
	bl	snprintf
.Ltmp12:
	.loc	6 255 4                         // kernel/platform_source/basicplatform/block/mas_blk_dump.c:255:4
	ldr	x8, [x20, #240]
	.loc	6 253 24                        // kernel/platform_source/basicplatform/block/mas_blk_dump.c:253:24
	mov	w9, w0
	.loc	6 253 11 is_stmt 0              // kernel/platform_source/basicplatform/block/mas_blk_dump.c:253:11
	adrp	x2, .L.str.1
	.loc	6 248 11 is_stmt 1              // kernel/platform_source/basicplatform/block/mas_blk_dump.c:248:11
	mov	w21, w0
.Ltmp13:
	//DEBUG_VALUE: mas_blk_dump_request:count <- $w21
	.loc	6 253 24                        // kernel/platform_source/basicplatform/block/mas_blk_dump.c:253:24
	add	x0, x24, x9
	.loc	6 253 54 is_stmt 0              // kernel/platform_source/basicplatform/block/mas_blk_dump.c:253:54
	sub	x1, x23, x9
	.loc	6 255 4 is_stmt 1               // kernel/platform_source/basicplatform/block/mas_blk_dump.c:255:4
	and	x3, x8, #0x1
	.loc	6 255 17 is_stmt 0              // kernel/platform_source/basicplatform/block/mas_blk_dump.c:255:17
	and	x4, x8, #0x2
	.loc	6 253 11 is_stmt 1              // kernel/platform_source/basicplatform/block/mas_blk_dump.c:253:11
	add	x2, x2, :lo12:.L.str.1
	bl	snprintf
.Ltmp14:
	.loc	6 257 18                        // kernel/platform_source/basicplatform/block/mas_blk_dump.c:257:18
	ldr	x8, [x20, #208]
.Ltmp15:
	.loc	6 253 8                         // kernel/platform_source/basicplatform/block/mas_blk_dump.c:253:8
	add	w22, w0, w21
.Ltmp16:
	//DEBUG_VALUE: mas_blk_dump_request:count <- $w22
	.loc	6 0 0 is_stmt 0                 // kernel/platform_source/basicplatform/block/mas_blk_dump.c:0:0
	add	x0, x24, x22
	sub	x1, x23, x22
.Ltmp17:
	.loc	6 257 6 is_stmt 1               // kernel/platform_source/basicplatform/block/mas_blk_dump.c:257:6
	cbnz	x8, .LBB0_2
.Ltmp18:
// %bb.1:
	//DEBUG_VALUE: mas_blk_dump_request:rq <- $x20
	//DEBUG_VALUE: mas_blk_dump_request:count <- $w22
	//DEBUG_VALUE: mas_blk_dump_request:s <- $w19
	//DEBUG_VALUE: mas_blk_dump_request:type <- [DW_OP_plus_uconst 28, DW_OP_stack_value] $sp
	.loc	6 267 12                        // kernel/platform_source/basicplatform/block/mas_blk_dump.c:267:12
	adrp	x2, .L.str.3
	add	x2, x2, :lo12:.L.str.3
	bl	snprintf
.Ltmp19:
	//DEBUG_VALUE: mas_blk_dump_request:count <- undef
	.loc	6 0 12 is_stmt 0                // kernel/platform_source/basicplatform/block/mas_blk_dump.c:0:12
	b	.LBB0_3
.Ltmp20:
.LBB0_2:
	//DEBUG_VALUE: mas_blk_dump_request:rq <- $x20
	//DEBUG_VALUE: mas_blk_dump_request:count <- $w22
	//DEBUG_VALUE: mas_blk_dump_request:s <- $w19
	//DEBUG_VALUE: mas_blk_dump_request:type <- [DW_OP_plus_uconst 28, DW_OP_stack_value] $sp
	.loc	6 260 21 is_stmt 1              // kernel/platform_source/basicplatform/block/mas_blk_dump.c:260:21
	ldr	w3, [x20, #216]
	.loc	6 258 12                        // kernel/platform_source/basicplatform/block/mas_blk_dump.c:258:12
	adrp	x2, .L.str.2
	.loc	6 260 31                        // kernel/platform_source/basicplatform/block/mas_blk_dump.c:260:31
	add	x4, x20, #224                   // =224
	.loc	6 258 12                        // kernel/platform_source/basicplatform/block/mas_blk_dump.c:258:12
	add	x2, x2, :lo12:.L.str.2
	mov	x5, xzr
	bl	snprintf
.Ltmp21:
	//DEBUG_VALUE: mas_blk_dump_request:count <- undef
.LBB0_3:
	//DEBUG_VALUE: mas_blk_dump_request:rq <- $x20
	//DEBUG_VALUE: mas_blk_dump_request:s <- $w19
	//DEBUG_VALUE: mas_blk_dump_request:type <- [DW_OP_plus_uconst 28, DW_OP_stack_value] $sp
	.loc	6 271 2                         // kernel/platform_source/basicplatform/block/mas_blk_dump.c:271:2
	add	x23, x20, #280                  // =280
	adrp	x24, req_stage_cfg
	adrp	x20, .L.str.4
.Ltmp22:
	.loc	6 0 2 is_stmt 0                 // kernel/platform_source/basicplatform/block/mas_blk_dump.c:0:2
	mov	x21, xzr
.Ltmp23:
	add	w22, w0, w22
.Ltmp24:
	//DEBUG_VALUE: mas_blk_dump_request:i <- 0
	//DEBUG_VALUE: mas_blk_dump_request:count <- $w22
	add	x24, x24, :lo12:req_stage_cfg
	add	x25, sp, #40                    // =40
	mov	w26, #512
	add	x20, x20, :lo12:.L.str.4
	b	.LBB0_5
.Ltmp25:
.LBB0_4:                                //   in Loop: Header=BB0_5 Depth=1
	//DEBUG_VALUE: mas_blk_dump_request:count <- $w22
	//DEBUG_VALUE: mas_blk_dump_request:s <- $w19
	//DEBUG_VALUE: mas_blk_dump_request:type <- [DW_OP_plus_uconst 28, DW_OP_stack_value] $sp
	//DEBUG_VALUE: mas_blk_dump_request:count <- $w22
	//DEBUG_VALUE: mas_blk_dump_request:i <- [DW_OP_plus_uconst 1, DW_OP_stack_value] undef
	.loc	6 271 16                        // kernel/platform_source/basicplatform/block/mas_blk_dump.c:271:16
	add	x21, x21, #8                    // =8
.Ltmp26:
	.loc	6 271 2                         // kernel/platform_source/basicplatform/block/mas_blk_dump.c:271:2
	cmp	x21, #320                       // =320
.Ltmp27:
	.loc	6 271 16                        // kernel/platform_source/basicplatform/block/mas_blk_dump.c:271:16
	add	x24, x24, #16                   // =16
.Ltmp28:
	.loc	6 271 2                         // kernel/platform_source/basicplatform/block/mas_blk_dump.c:271:2
	b.eq	.LBB0_7
.Ltmp29:
.LBB0_5:                                // =>This Inner Loop Header: Depth=1
	//DEBUG_VALUE: mas_blk_dump_request:count <- $w22
	//DEBUG_VALUE: mas_blk_dump_request:s <- $w19
	//DEBUG_VALUE: mas_blk_dump_request:type <- [DW_OP_plus_uconst 28, DW_OP_stack_value] $sp
	//DEBUG_VALUE: mas_blk_dump_request:count <- $w22
	//DEBUG_VALUE: mas_blk_dump_request:i <- undef
	.loc	6 272 8 is_stmt 1               // kernel/platform_source/basicplatform/block/mas_blk_dump.c:272:8
	ldr	x4, [x23, x21]
.Ltmp30:
	.loc	6 272 7 is_stmt 0               // kernel/platform_source/basicplatform/block/mas_blk_dump.c:272:7
	cbz	x4, .LBB0_4
.Ltmp31:
// %bb.6:                               //   in Loop: Header=BB0_5 Depth=1
	//DEBUG_VALUE: mas_blk_dump_request:count <- $w22
	//DEBUG_VALUE: mas_blk_dump_request:s <- $w19
	//DEBUG_VALUE: mas_blk_dump_request:type <- [DW_OP_plus_uconst 28, DW_OP_stack_value] $sp
	.loc	6 276 34 is_stmt 1              // kernel/platform_source/basicplatform/block/mas_blk_dump.c:276:34
	ldr	x3, [x24]
	.loc	6 274 25                        // kernel/platform_source/basicplatform/block/mas_blk_dump.c:274:25
	mov	w8, w22
	add	x0, x25, x8
	.loc	6 275 34                        // kernel/platform_source/basicplatform/block/mas_blk_dump.c:275:34
	sub	x1, x26, x8
	.loc	6 274 12                        // kernel/platform_source/basicplatform/block/mas_blk_dump.c:274:12
	mov	x2, x20
	bl	snprintf
.Ltmp32:
	.loc	6 274 9 is_stmt 0               // kernel/platform_source/basicplatform/block/mas_blk_dump.c:274:9
	add	w22, w0, w22
.Ltmp33:
	//DEBUG_VALUE: mas_blk_dump_request:count <- $w22
	.loc	6 0 9                           // kernel/platform_source/basicplatform/block/mas_blk_dump.c:0:9
	b	.LBB0_4
.Ltmp34:
.LBB0_7:
	//DEBUG_VALUE: mas_blk_dump_request:count <- $w22
	//DEBUG_VALUE: mas_blk_dump_request:s <- $w19
	//DEBUG_VALUE: mas_blk_dump_request:type <- [DW_OP_plus_uconst 28, DW_OP_stack_value] $sp
	.loc	22 2351 9 is_stmt 1             // kernel/include/linux/blkdev.h:2351:9
	adrp	x8, .L.str.17
	adrp	x9, .L.str.16
	add	x8, x8, :lo12:.L.str.17
	add	x9, x9, :lo12:.L.str.16
	cmp	w19, #1                         // =1
.Ltmp35:
	.loc	6 281 2                         // kernel/platform_source/basicplatform/block/mas_blk_dump.c:281:2
	adrp	x0, .L.str.5
.Ltmp36:
	.loc	22 2351 9                       // kernel/include/linux/blkdev.h:2351:9
	csel	x1, x9, x8, eq
.Ltmp37:
	//DEBUG_VALUE: mas_blk_dump_request:prefix <- $x1
	.loc	6 281 2                         // kernel/platform_source/basicplatform/block/mas_blk_dump.c:281:2
	add	x0, x0, :lo12:.L.str.5
	add	x2, sp, #40                     // =40
	.loc	6 280 32                        // kernel/platform_source/basicplatform/block/mas_blk_dump.c:280:32
	strb	wzr, [sp, #551]
	.loc	6 281 2                         // kernel/platform_source/basicplatform/block/mas_blk_dump.c:281:2
	bl	printk
.Ltmp38:
	.loc	6 0 2 is_stmt 0                 // kernel/platform_source/basicplatform/block/mas_blk_dump.c:0:2
	adrp	x9, __stack_chk_guard
	ldur	x8, [x29, #-8]
	ldr	x9, [x9, :lo12:__stack_chk_guard]
	cmp	x9, x8
	b.ne	.LBB0_9
.Ltmp39:
// %bb.8:
	//DEBUG_VALUE: mas_blk_dump_request:count <- $w22
	//DEBUG_VALUE: mas_blk_dump_request:s <- $w19
	//DEBUG_VALUE: mas_blk_dump_request:type <- [DW_OP_plus_uconst 28, DW_OP_stack_value] $sp
	.loc	6 282 1 is_stmt 1               // kernel/platform_source/basicplatform/block/mas_blk_dump.c:282:1
	add	sp, sp, #560                    // =560
.Ltmp40:
	ldp	x20, x19, [sp, #80]             // 16-byte Folded Reload
.Ltmp41:
	ldp	x22, x21, [sp, #64]             // 16-byte Folded Reload
.Ltmp42:
	ldp	x24, x23, [sp, #48]             // 16-byte Folded Reload
	ldp	x26, x25, [sp, #32]             // 16-byte Folded Reload
	ldr	x28, [sp, #16]                  // 8-byte Folded Reload
	ldp	x29, x30, [sp], #96             // 16-byte Folded Reload
	hint	#29
	ret
.Ltmp43:
.LBB0_9:
	//DEBUG_VALUE: mas_blk_dump_request:count <- $w22
	//DEBUG_VALUE: mas_blk_dump_request:s <- $w19
	//DEBUG_VALUE: mas_blk_dump_request:type <- [DW_OP_plus_uconst 28, DW_OP_stack_value] $sp
	.loc	6 0 1 is_stmt 0                 // kernel/platform_source/basicplatform/block/mas_blk_dump.c:0:1
	bl	__stack_chk_fail
.Ltmp44:
.Lfunc_end0:
	.size	mas_blk_dump_request, .Lfunc_end0-mas_blk_dump_request
	.cfi_endproc
	.file	153 "/mnt/disk/jenkins/ci/workspace/chipset_pipeline_release/opensource/component_code/vendor/huawei/extra/build/build_script/kirin_kernel_release" "kernel/include/linux/printk.h"
                                        // -- End function
	.globl	mas_blk_dump_bio                // -- Begin function mas_blk_dump_bio
	.p2align	2
	.type	mas_blk_dump_bio,@function
mas_blk_dump_bio:                       // @mas_blk_dump_bio
.Lfunc_begin1:
	.loc	6 288 0 is_stmt 1               // kernel/platform_source/basicplatform/block/mas_blk_dump.c:288:0
	.cfi_startproc
// %bb.0:
	//DEBUG_VALUE: mas_blk_dump_bio:bio <- $x0
	//DEBUG_VALUE: mas_blk_dump_bio:s <- $w1
	hint	#25
	.cfi_negate_ra_state
	stp	x29, x30, [sp, #-80]!           // 16-byte Folded Spill
	str	x28, [sp, #16]                  // 8-byte Folded Spill
	stp	x24, x23, [sp, #32]             // 16-byte Folded Spill
	stp	x22, x21, [sp, #48]             // 16-byte Folded Spill
	stp	x20, x19, [sp, #64]             // 16-byte Folded Spill
	mov	x29, sp
	sub	sp, sp, #544                    // =544
	.cfi_def_cfa w29, 80
	.cfi_offset w19, -8
	.cfi_offset w20, -16
	.cfi_offset w21, -24
	.cfi_offset w22, -32
	.cfi_offset w23, -40
	.cfi_offset w24, -48
	.cfi_offset w28, -64
	.cfi_offset w30, -72
	.cfi_offset w29, -80
	adrp	x8, __stack_chk_guard
	ldr	x8, [x8, :lo12:__stack_chk_guard]
	mov	w19, w1
.Ltmp45:
	//DEBUG_VALUE: mas_blk_dump_bio:s <- $w19
	mov	x20, x0
.Ltmp46:
	.loc	6 294 15 prologue_end           // kernel/platform_source/basicplatform/block/mas_blk_dump.c:294:15
	add	x3, sp, #12                     // =12
	stur	x8, [x29, #-8]
.Ltmp47:
	//DEBUG_VALUE: mas_blk_dump_bio:mas_bio <- [DW_OP_plus_uconst 80, DW_OP_stack_value] $x20
	//DEBUG_VALUE: mas_blk_dump_bio:count <- 0
	//DEBUG_VALUE: mas_blk_dump_bio:s <- $w19
	//DEBUG_VALUE: mas_blk_dump_bio:bio <- $x20
	.loc	6 295 3                         // kernel/platform_source/basicplatform/block/mas_blk_dump.c:295:3
	ldr	w1, [x0, #16]
	.loc	6 295 34 is_stmt 0              // kernel/platform_source/basicplatform/block/mas_blk_dump.c:295:34
	ldr	x2, [x0, #72]
	.loc	6 295 3                         // kernel/platform_source/basicplatform/block/mas_blk_dump.c:295:3
	and	x0, x1, #0xff
.Ltmp48:
	//DEBUG_VALUE: mas_blk_dump_bio:type <- [DW_OP_plus_uconst 12, DW_OP_stack_value] $sp
	.loc	6 294 15 is_stmt 1              // kernel/platform_source/basicplatform/block/mas_blk_dump.c:294:15
	bl	mas_blk_io_type
.Ltmp49:
	//DEBUG_VALUE: mas_blk_prefix_str:s <- $w19
	.loc	6 300 56                        // kernel/platform_source/basicplatform/block/mas_blk_dump.c:300:56
	ldr	w5, [x20, #40]
.Ltmp50:
	.loc	22 2351 9                       // kernel/include/linux/blkdev.h:2351:9
	adrp	x8, .L.str.17
	adrp	x9, .L.str.16
.Ltmp51:
	.loc	6 298 11                        // kernel/platform_source/basicplatform/block/mas_blk_dump.c:298:11
	adrp	x2, .L.str.6
.Ltmp52:
	.loc	22 2351 9                       // kernel/include/linux/blkdev.h:2351:9
	add	x8, x8, :lo12:.L.str.17
	add	x9, x9, :lo12:.L.str.16
	//DEBUG_VALUE: mas_blk_prefix_str:s <- $w19
	cmp	w19, #1                         // =1
.Ltmp53:
	.loc	6 298 11                        // kernel/platform_source/basicplatform/block/mas_blk_dump.c:298:11
	add	x2, x2, :lo12:.L.str.6
	add	x0, sp, #24                     // =24
	add	x4, sp, #12                     // =12
	mov	w1, #512
	mov	x3, xzr
.Ltmp54:
	.loc	22 2351 9                       // kernel/include/linux/blkdev.h:2351:9
	csel	x21, x9, x8, eq
.Ltmp55:
	//DEBUG_VALUE: mas_blk_dump_bio:prefix <- $x21
	.loc	22 0 9 is_stmt 0                // kernel/include/linux/blkdev.h:0:9
	add	x23, sp, #24                    // =24
.Ltmp56:
	.loc	6 298 11 is_stmt 1              // kernel/platform_source/basicplatform/block/mas_blk_dump.c:298:11
	bl	snprintf
.Ltmp57:
	.loc	6 302 15                        // kernel/platform_source/basicplatform/block/mas_blk_dump.c:302:15
	ldr	x8, [x20, #96]
.Ltmp58:
	.loc	6 298 11                        // kernel/platform_source/basicplatform/block/mas_blk_dump.c:298:11
	mov	w22, w0
.Ltmp59:
	//DEBUG_VALUE: mas_blk_dump_bio:count <- $w22
	.loc	6 302 6                         // kernel/platform_source/basicplatform/block/mas_blk_dump.c:302:6
	cbz	x8, .LBB1_2
.Ltmp60:
// %bb.1:
	//DEBUG_VALUE: mas_blk_dump_bio:prefix <- $x21
	//DEBUG_VALUE: mas_blk_dump_bio:bio <- $x20
	//DEBUG_VALUE: mas_blk_dump_bio:mas_bio <- [DW_OP_plus_uconst 80, DW_OP_stack_value] $x20
	//DEBUG_VALUE: mas_blk_dump_bio:count <- $w22
	//DEBUG_VALUE: mas_blk_dump_bio:s <- $w19
	//DEBUG_VALUE: mas_blk_dump_bio:type <- [DW_OP_plus_uconst 12, DW_OP_stack_value] $sp
	//DEBUG_VALUE: mas_blk_dump_bio:mas_bio <- [DW_OP_plus_uconst 80, DW_OP_stack_value] $x20
	.loc	6 305 13                        // kernel/platform_source/basicplatform/block/mas_blk_dump.c:305:13
	ldr	w3, [x20, #104]
	.loc	6 303 25                        // kernel/platform_source/basicplatform/block/mas_blk_dump.c:303:25
	mov	w8, w22
	sxtw	x8, w8
	mov	w24, #512
	.loc	6 303 12 is_stmt 0              // kernel/platform_source/basicplatform/block/mas_blk_dump.c:303:12
	adrp	x2, .L.str.7
	.loc	6 303 25                        // kernel/platform_source/basicplatform/block/mas_blk_dump.c:303:25
	add	x0, x23, x8
	.loc	6 303 55                        // kernel/platform_source/basicplatform/block/mas_blk_dump.c:303:55
	sub	x1, x24, x8
	.loc	6 305 23 is_stmt 1              // kernel/platform_source/basicplatform/block/mas_blk_dump.c:305:23
	add	x4, x20, #112                   // =112
	.loc	6 303 12                        // kernel/platform_source/basicplatform/block/mas_blk_dump.c:303:12
	add	x2, x2, :lo12:.L.str.7
	bl	snprintf
.Ltmp61:
	.loc	6 303 9 is_stmt 0               // kernel/platform_source/basicplatform/block/mas_blk_dump.c:303:9
	add	w22, w0, w22
.Ltmp62:
	//DEBUG_VALUE: mas_blk_dump_bio:count <- $w22
	.loc	6 306 25 is_stmt 1              // kernel/platform_source/basicplatform/block/mas_blk_dump.c:306:25
	sxtw	x8, w22
	.loc	6 306 12 is_stmt 0              // kernel/platform_source/basicplatform/block/mas_blk_dump.c:306:12
	adrp	x2, .L.str.8
	.loc	6 306 25                        // kernel/platform_source/basicplatform/block/mas_blk_dump.c:306:25
	add	x0, x23, x8
	.loc	6 306 55                        // kernel/platform_source/basicplatform/block/mas_blk_dump.c:306:55
	sub	x1, x24, x8
	.loc	6 306 12                        // kernel/platform_source/basicplatform/block/mas_blk_dump.c:306:12
	add	x2, x2, :lo12:.L.str.8
	mov	x3, xzr
	bl	snprintf
.Ltmp63:
	.loc	6 306 9                         // kernel/platform_source/basicplatform/block/mas_blk_dump.c:306:9
	add	w22, w22, w0
.Ltmp64:
	//DEBUG_VALUE: mas_blk_dump_bio:count <- $w22
.LBB1_2:
	//DEBUG_VALUE: mas_blk_dump_bio:prefix <- $x21
	//DEBUG_VALUE: mas_blk_dump_bio:bio <- $x20
	//DEBUG_VALUE: mas_blk_dump_bio:mas_bio <- [DW_OP_plus_uconst 80, DW_OP_stack_value] $x20
	//DEBUG_VALUE: mas_blk_dump_bio:count <- $w22
	//DEBUG_VALUE: mas_blk_dump_bio:s <- $w19
	//DEBUG_VALUE: mas_blk_dump_bio:type <- [DW_OP_plus_uconst 12, DW_OP_stack_value] $sp
	//DEBUG_VALUE: mas_blk_dump_bio:count <- $w22
	.loc	6 313 24 is_stmt 1              // kernel/platform_source/basicplatform/block/mas_blk_dump.c:313:24
	sxtw	x8, w22
	mov	w9, #512
	.loc	6 313 11 is_stmt 0              // kernel/platform_source/basicplatform/block/mas_blk_dump.c:313:11
	adrp	x2, .L.str.3
	.loc	6 313 24                        // kernel/platform_source/basicplatform/block/mas_blk_dump.c:313:24
	add	x0, x23, x8
	.loc	6 313 54                        // kernel/platform_source/basicplatform/block/mas_blk_dump.c:313:54
	sub	x1, x9, x8
	.loc	6 313 11                        // kernel/platform_source/basicplatform/block/mas_blk_dump.c:313:11
	add	x2, x2, :lo12:.L.str.3
	bl	snprintf
.Ltmp65:
	.loc	6 316 9 is_stmt 1               // kernel/platform_source/basicplatform/block/mas_blk_dump.c:316:9
	ldr	x4, [x20, #136]
.Ltmp66:
	.loc	6 313 8                         // kernel/platform_source/basicplatform/block/mas_blk_dump.c:313:8
	add	w22, w0, w22
.Ltmp67:
	//DEBUG_VALUE: mas_blk_dump_bio:i <- 0
	//DEBUG_VALUE: mas_blk_dump_bio:count <- $w22
	.loc	6 316 7                         // kernel/platform_source/basicplatform/block/mas_blk_dump.c:316:7
	cbnz	x4, .LBB1_14
.Ltmp68:
// %bb.3:
	//DEBUG_VALUE: mas_blk_dump_bio:prefix <- $x21
	//DEBUG_VALUE: mas_blk_dump_bio:bio <- $x20
	//DEBUG_VALUE: mas_blk_dump_bio:mas_bio <- [DW_OP_plus_uconst 80, DW_OP_stack_value] $x20
	//DEBUG_VALUE: mas_blk_dump_bio:count <- $w22
	//DEBUG_VALUE: mas_blk_dump_bio:s <- $w19
	//DEBUG_VALUE: mas_blk_dump_bio:type <- [DW_OP_plus_uconst 12, DW_OP_stack_value] $sp
	//DEBUG_VALUE: mas_blk_dump_bio:i <- 0
	//DEBUG_VALUE: mas_blk_dump_bio:count <- $w22
	//DEBUG_VALUE: mas_blk_dump_bio:i <- 1
	.loc	6 316 9 is_stmt 0               // kernel/platform_source/basicplatform/block/mas_blk_dump.c:316:9
	ldr	x4, [x20, #144]
.Ltmp69:
	.loc	6 316 7                         // kernel/platform_source/basicplatform/block/mas_blk_dump.c:316:7
	cbnz	x4, .LBB1_15
.Ltmp70:
.LBB1_4:
	//DEBUG_VALUE: mas_blk_dump_bio:prefix <- $x21
	//DEBUG_VALUE: mas_blk_dump_bio:bio <- $x20
	//DEBUG_VALUE: mas_blk_dump_bio:mas_bio <- [DW_OP_plus_uconst 80, DW_OP_stack_value] $x20
	//DEBUG_VALUE: mas_blk_dump_bio:count <- $w22
	//DEBUG_VALUE: mas_blk_dump_bio:s <- $w19
	//DEBUG_VALUE: mas_blk_dump_bio:type <- [DW_OP_plus_uconst 12, DW_OP_stack_value] $sp
	//DEBUG_VALUE: mas_blk_dump_bio:i <- 1
	//DEBUG_VALUE: mas_blk_dump_bio:count <- $w22
	//DEBUG_VALUE: mas_blk_dump_bio:i <- 2
	.loc	6 316 9                         // kernel/platform_source/basicplatform/block/mas_blk_dump.c:316:9
	ldr	x4, [x20, #152]
	cbnz	x4, .LBB1_16
.Ltmp71:
.LBB1_5:
	//DEBUG_VALUE: mas_blk_dump_bio:prefix <- $x21
	//DEBUG_VALUE: mas_blk_dump_bio:bio <- $x20
	//DEBUG_VALUE: mas_blk_dump_bio:mas_bio <- [DW_OP_plus_uconst 80, DW_OP_stack_value] $x20
	//DEBUG_VALUE: mas_blk_dump_bio:count <- $w22
	//DEBUG_VALUE: mas_blk_dump_bio:s <- $w19
	//DEBUG_VALUE: mas_blk_dump_bio:type <- [DW_OP_plus_uconst 12, DW_OP_stack_value] $sp
	//DEBUG_VALUE: mas_blk_dump_bio:i <- 2
	//DEBUG_VALUE: mas_blk_dump_bio:count <- $w22
	//DEBUG_VALUE: mas_blk_dump_bio:i <- 3
	ldr	x4, [x20, #160]
	cbnz	x4, .LBB1_17
.Ltmp72:
.LBB1_6:
	//DEBUG_VALUE: mas_blk_dump_bio:prefix <- $x21
	//DEBUG_VALUE: mas_blk_dump_bio:bio <- $x20
	//DEBUG_VALUE: mas_blk_dump_bio:mas_bio <- [DW_OP_plus_uconst 80, DW_OP_stack_value] $x20
	//DEBUG_VALUE: mas_blk_dump_bio:count <- $w22
	//DEBUG_VALUE: mas_blk_dump_bio:s <- $w19
	//DEBUG_VALUE: mas_blk_dump_bio:type <- [DW_OP_plus_uconst 12, DW_OP_stack_value] $sp
	//DEBUG_VALUE: mas_blk_dump_bio:i <- 3
	//DEBUG_VALUE: mas_blk_dump_bio:count <- $w22
	//DEBUG_VALUE: mas_blk_dump_bio:i <- 4
	ldr	x4, [x20, #168]
	cbnz	x4, .LBB1_18
.Ltmp73:
.LBB1_7:
	//DEBUG_VALUE: mas_blk_dump_bio:prefix <- $x21
	//DEBUG_VALUE: mas_blk_dump_bio:bio <- $x20
	//DEBUG_VALUE: mas_blk_dump_bio:mas_bio <- [DW_OP_plus_uconst 80, DW_OP_stack_value] $x20
	//DEBUG_VALUE: mas_blk_dump_bio:count <- $w22
	//DEBUG_VALUE: mas_blk_dump_bio:s <- $w19
	//DEBUG_VALUE: mas_blk_dump_bio:type <- [DW_OP_plus_uconst 12, DW_OP_stack_value] $sp
	//DEBUG_VALUE: mas_blk_dump_bio:i <- 4
	//DEBUG_VALUE: mas_blk_dump_bio:count <- $w22
	//DEBUG_VALUE: mas_blk_dump_bio:i <- 5
	ldr	x4, [x20, #176]
	cbnz	x4, .LBB1_19
.Ltmp74:
.LBB1_8:
	//DEBUG_VALUE: mas_blk_dump_bio:prefix <- $x21
	//DEBUG_VALUE: mas_blk_dump_bio:bio <- $x20
	//DEBUG_VALUE: mas_blk_dump_bio:mas_bio <- [DW_OP_plus_uconst 80, DW_OP_stack_value] $x20
	//DEBUG_VALUE: mas_blk_dump_bio:count <- $w22
	//DEBUG_VALUE: mas_blk_dump_bio:s <- $w19
	//DEBUG_VALUE: mas_blk_dump_bio:type <- [DW_OP_plus_uconst 12, DW_OP_stack_value] $sp
	//DEBUG_VALUE: mas_blk_dump_bio:i <- 5
	//DEBUG_VALUE: mas_blk_dump_bio:count <- $w22
	//DEBUG_VALUE: mas_blk_dump_bio:i <- 6
	ldr	x4, [x20, #184]
	cbz	x4, .LBB1_10
.Ltmp75:
.LBB1_9:
	//DEBUG_VALUE: mas_blk_dump_bio:prefix <- $x21
	//DEBUG_VALUE: mas_blk_dump_bio:bio <- $x20
	//DEBUG_VALUE: mas_blk_dump_bio:mas_bio <- [DW_OP_plus_uconst 80, DW_OP_stack_value] $x20
	//DEBUG_VALUE: mas_blk_dump_bio:count <- $w22
	//DEBUG_VALUE: mas_blk_dump_bio:s <- $w19
	//DEBUG_VALUE: mas_blk_dump_bio:type <- [DW_OP_plus_uconst 12, DW_OP_stack_value] $sp
	//DEBUG_VALUE: mas_blk_dump_bio:i <- 6
	.loc	6 319 35 is_stmt 1              // kernel/platform_source/basicplatform/block/mas_blk_dump.c:319:35
	adrp	x10, bio_stage_cfg+96
	.loc	6 318 25                        // kernel/platform_source/basicplatform/block/mas_blk_dump.c:318:25
	mov	w8, w22
	.loc	6 319 35                        // kernel/platform_source/basicplatform/block/mas_blk_dump.c:319:35
	ldr	x3, [x10, :lo12:bio_stage_cfg+96]
	.loc	6 318 25                        // kernel/platform_source/basicplatform/block/mas_blk_dump.c:318:25
	sxtw	x8, w8
	add	x9, sp, #24                     // =24
	add	x0, x9, x8
	mov	w9, #512
	.loc	6 318 12 is_stmt 0              // kernel/platform_source/basicplatform/block/mas_blk_dump.c:318:12
	adrp	x2, .L.str.9
	.loc	6 318 55                        // kernel/platform_source/basicplatform/block/mas_blk_dump.c:318:55
	sub	x1, x9, x8
	.loc	6 318 12                        // kernel/platform_source/basicplatform/block/mas_blk_dump.c:318:12
	add	x2, x2, :lo12:.L.str.9
	bl	snprintf
.Ltmp76:
	.loc	6 318 9                         // kernel/platform_source/basicplatform/block/mas_blk_dump.c:318:9
	add	w22, w0, w22
.Ltmp77:
	//DEBUG_VALUE: mas_blk_dump_bio:count <- $w22
.LBB1_10:
	//DEBUG_VALUE: mas_blk_dump_bio:prefix <- $x21
	//DEBUG_VALUE: mas_blk_dump_bio:bio <- $x20
	//DEBUG_VALUE: mas_blk_dump_bio:mas_bio <- [DW_OP_plus_uconst 80, DW_OP_stack_value] $x20
	//DEBUG_VALUE: mas_blk_dump_bio:count <- $w22
	//DEBUG_VALUE: mas_blk_dump_bio:s <- $w19
	//DEBUG_VALUE: mas_blk_dump_bio:type <- [DW_OP_plus_uconst 12, DW_OP_stack_value] $sp
	//DEBUG_VALUE: mas_blk_dump_bio:i <- 6
	//DEBUG_VALUE: mas_blk_dump_bio:count <- $w22
	//DEBUG_VALUE: mas_blk_dump_bio:i <- 7
	.loc	6 0 9                           // kernel/platform_source/basicplatform/block/mas_blk_dump.c:0:9
	add	x8, sp, #24                     // =24
	.loc	6 322 13 is_stmt 1              // kernel/platform_source/basicplatform/block/mas_blk_dump.c:322:13
	strb	wzr, [x8, w22, sxtw]
	.loc	6 323 2                         // kernel/platform_source/basicplatform/block/mas_blk_dump.c:323:2
	bl	ktime_get
.Ltmp78:
	mov	x3, x0
	adrp	x0, .L.str.10
	add	x0, x0, :lo12:.L.str.10
	add	x2, sp, #24                     // =24
	mov	x1, x21
	bl	printk
.Ltmp79:
	.loc	6 325 19                        // kernel/platform_source/basicplatform/block/mas_blk_dump.c:325:19
	ldr	x0, [x20, #88]
.Ltmp80:
	.loc	6 325 6 is_stmt 0               // kernel/platform_source/basicplatform/block/mas_blk_dump.c:325:6
	cbz	x0, .LBB1_12
.Ltmp81:
// %bb.11:
	//DEBUG_VALUE: mas_blk_dump_bio:prefix <- $x21
	//DEBUG_VALUE: mas_blk_dump_bio:bio <- $x20
	//DEBUG_VALUE: mas_blk_dump_bio:mas_bio <- [DW_OP_plus_uconst 80, DW_OP_stack_value] $x20
	//DEBUG_VALUE: mas_blk_dump_bio:count <- $w22
	//DEBUG_VALUE: mas_blk_dump_bio:s <- $w19
	//DEBUG_VALUE: mas_blk_dump_bio:type <- [DW_OP_plus_uconst 12, DW_OP_stack_value] $sp
	//DEBUG_VALUE: mas_blk_dump_bio:i <- 7
	.loc	6 326 3 is_stmt 1               // kernel/platform_source/basicplatform/block/mas_blk_dump.c:326:3
	mov	w1, w19
	bl	mas_blk_dump_request
.Ltmp82:
.LBB1_12:
	//DEBUG_VALUE: mas_blk_dump_bio:prefix <- $x21
	//DEBUG_VALUE: mas_blk_dump_bio:bio <- $x20
	//DEBUG_VALUE: mas_blk_dump_bio:mas_bio <- [DW_OP_plus_uconst 80, DW_OP_stack_value] $x20
	//DEBUG_VALUE: mas_blk_dump_bio:count <- $w22
	//DEBUG_VALUE: mas_blk_dump_bio:s <- $w19
	//DEBUG_VALUE: mas_blk_dump_bio:type <- [DW_OP_plus_uconst 12, DW_OP_stack_value] $sp
	//DEBUG_VALUE: mas_blk_dump_bio:i <- 7
	.loc	6 0 3 is_stmt 0                 // kernel/platform_source/basicplatform/block/mas_blk_dump.c:0:3
	adrp	x9, __stack_chk_guard
	ldur	x8, [x29, #-8]
	ldr	x9, [x9, :lo12:__stack_chk_guard]
	cmp	x9, x8
	b.ne	.LBB1_20
.Ltmp83:
// %bb.13:
	//DEBUG_VALUE: mas_blk_dump_bio:prefix <- $x21
	//DEBUG_VALUE: mas_blk_dump_bio:bio <- $x20
	//DEBUG_VALUE: mas_blk_dump_bio:mas_bio <- [DW_OP_plus_uconst 80, DW_OP_stack_value] $x20
	//DEBUG_VALUE: mas_blk_dump_bio:count <- $w22
	//DEBUG_VALUE: mas_blk_dump_bio:s <- $w19
	//DEBUG_VALUE: mas_blk_dump_bio:type <- [DW_OP_plus_uconst 12, DW_OP_stack_value] $sp
	//DEBUG_VALUE: mas_blk_dump_bio:i <- 7
	.loc	6 327 1 is_stmt 1               // kernel/platform_source/basicplatform/block/mas_blk_dump.c:327:1
	add	sp, sp, #544                    // =544
.Ltmp84:
	ldp	x20, x19, [sp, #64]             // 16-byte Folded Reload
.Ltmp85:
	ldp	x22, x21, [sp, #48]             // 16-byte Folded Reload
.Ltmp86:
	ldp	x24, x23, [sp, #32]             // 16-byte Folded Reload
	ldr	x28, [sp, #16]                  // 8-byte Folded Reload
	ldp	x29, x30, [sp], #80             // 16-byte Folded Reload
	hint	#29
	ret
.Ltmp87:
.LBB1_14:
	//DEBUG_VALUE: mas_blk_dump_bio:prefix <- $x21
	//DEBUG_VALUE: mas_blk_dump_bio:bio <- $x20
	//DEBUG_VALUE: mas_blk_dump_bio:mas_bio <- [DW_OP_plus_uconst 80, DW_OP_stack_value] $x20
	//DEBUG_VALUE: mas_blk_dump_bio:count <- $w22
	//DEBUG_VALUE: mas_blk_dump_bio:s <- $w19
	//DEBUG_VALUE: mas_blk_dump_bio:type <- [DW_OP_plus_uconst 12, DW_OP_stack_value] $sp
	//DEBUG_VALUE: mas_blk_dump_bio:i <- 0
	.loc	6 319 35                        // kernel/platform_source/basicplatform/block/mas_blk_dump.c:319:35
	adrp	x10, bio_stage_cfg
	ldr	x3, [x10, :lo12:bio_stage_cfg]
	.loc	6 318 25                        // kernel/platform_source/basicplatform/block/mas_blk_dump.c:318:25
	sxtw	x8, w22
	add	x9, sp, #24                     // =24
	add	x0, x9, x8
	mov	w9, #512
	.loc	6 318 12 is_stmt 0              // kernel/platform_source/basicplatform/block/mas_blk_dump.c:318:12
	adrp	x2, .L.str.9
	.loc	6 318 55                        // kernel/platform_source/basicplatform/block/mas_blk_dump.c:318:55
	sub	x1, x9, x8
	.loc	6 318 12                        // kernel/platform_source/basicplatform/block/mas_blk_dump.c:318:12
	add	x2, x2, :lo12:.L.str.9
	bl	snprintf
.Ltmp88:
	.loc	6 318 9                         // kernel/platform_source/basicplatform/block/mas_blk_dump.c:318:9
	add	w22, w0, w22
.Ltmp89:
	//DEBUG_VALUE: mas_blk_dump_bio:count <- $w22
	//DEBUG_VALUE: mas_blk_dump_bio:count <- $w22
	//DEBUG_VALUE: mas_blk_dump_bio:i <- 1
	.loc	6 316 9 is_stmt 1               // kernel/platform_source/basicplatform/block/mas_blk_dump.c:316:9
	ldr	x4, [x20, #144]
.Ltmp90:
	.loc	6 316 7 is_stmt 0               // kernel/platform_source/basicplatform/block/mas_blk_dump.c:316:7
	cbz	x4, .LBB1_4
.Ltmp91:
.LBB1_15:
	//DEBUG_VALUE: mas_blk_dump_bio:prefix <- $x21
	//DEBUG_VALUE: mas_blk_dump_bio:bio <- $x20
	//DEBUG_VALUE: mas_blk_dump_bio:mas_bio <- [DW_OP_plus_uconst 80, DW_OP_stack_value] $x20
	//DEBUG_VALUE: mas_blk_dump_bio:count <- $w22
	//DEBUG_VALUE: mas_blk_dump_bio:s <- $w19
	//DEBUG_VALUE: mas_blk_dump_bio:type <- [DW_OP_plus_uconst 12, DW_OP_stack_value] $sp
	//DEBUG_VALUE: mas_blk_dump_bio:i <- 1
	.loc	6 319 35 is_stmt 1              // kernel/platform_source/basicplatform/block/mas_blk_dump.c:319:35
	adrp	x10, bio_stage_cfg+16
	.loc	6 318 25                        // kernel/platform_source/basicplatform/block/mas_blk_dump.c:318:25
	mov	w8, w22
	.loc	6 319 35                        // kernel/platform_source/basicplatform/block/mas_blk_dump.c:319:35
	ldr	x3, [x10, :lo12:bio_stage_cfg+16]
	.loc	6 318 25                        // kernel/platform_source/basicplatform/block/mas_blk_dump.c:318:25
	sxtw	x8, w8
	add	x9, sp, #24                     // =24
	add	x0, x9, x8
	mov	w9, #512
	.loc	6 318 12 is_stmt 0              // kernel/platform_source/basicplatform/block/mas_blk_dump.c:318:12
	adrp	x2, .L.str.9
	.loc	6 318 55                        // kernel/platform_source/basicplatform/block/mas_blk_dump.c:318:55
	sub	x1, x9, x8
	.loc	6 318 12                        // kernel/platform_source/basicplatform/block/mas_blk_dump.c:318:12
	add	x2, x2, :lo12:.L.str.9
	bl	snprintf
.Ltmp92:
	.loc	6 318 9                         // kernel/platform_source/basicplatform/block/mas_blk_dump.c:318:9
	add	w22, w0, w22
.Ltmp93:
	//DEBUG_VALUE: mas_blk_dump_bio:count <- $w22
	//DEBUG_VALUE: mas_blk_dump_bio:count <- $w22
	//DEBUG_VALUE: mas_blk_dump_bio:i <- 2
	.loc	6 316 9 is_stmt 1               // kernel/platform_source/basicplatform/block/mas_blk_dump.c:316:9
	ldr	x4, [x20, #152]
	cbz	x4, .LBB1_5
.Ltmp94:
.LBB1_16:
	//DEBUG_VALUE: mas_blk_dump_bio:prefix <- $x21
	//DEBUG_VALUE: mas_blk_dump_bio:bio <- $x20
	//DEBUG_VALUE: mas_blk_dump_bio:mas_bio <- [DW_OP_plus_uconst 80, DW_OP_stack_value] $x20
	//DEBUG_VALUE: mas_blk_dump_bio:count <- $w22
	//DEBUG_VALUE: mas_blk_dump_bio:s <- $w19
	//DEBUG_VALUE: mas_blk_dump_bio:type <- [DW_OP_plus_uconst 12, DW_OP_stack_value] $sp
	//DEBUG_VALUE: mas_blk_dump_bio:i <- 2
	.loc	6 319 35                        // kernel/platform_source/basicplatform/block/mas_blk_dump.c:319:35
	adrp	x10, bio_stage_cfg+32
	.loc	6 318 25                        // kernel/platform_source/basicplatform/block/mas_blk_dump.c:318:25
	mov	w8, w22
	.loc	6 319 35                        // kernel/platform_source/basicplatform/block/mas_blk_dump.c:319:35
	ldr	x3, [x10, :lo12:bio_stage_cfg+32]
	.loc	6 318 25                        // kernel/platform_source/basicplatform/block/mas_blk_dump.c:318:25
	sxtw	x8, w8
	add	x9, sp, #24                     // =24
	add	x0, x9, x8
	mov	w9, #512
	.loc	6 318 12 is_stmt 0              // kernel/platform_source/basicplatform/block/mas_blk_dump.c:318:12
	adrp	x2, .L.str.9
	.loc	6 318 55                        // kernel/platform_source/basicplatform/block/mas_blk_dump.c:318:55
	sub	x1, x9, x8
	.loc	6 318 12                        // kernel/platform_source/basicplatform/block/mas_blk_dump.c:318:12
	add	x2, x2, :lo12:.L.str.9
	bl	snprintf
.Ltmp95:
	.loc	6 318 9                         // kernel/platform_source/basicplatform/block/mas_blk_dump.c:318:9
	add	w22, w0, w22
.Ltmp96:
	//DEBUG_VALUE: mas_blk_dump_bio:count <- $w22
	//DEBUG_VALUE: mas_blk_dump_bio:count <- $w22
	//DEBUG_VALUE: mas_blk_dump_bio:i <- 3
	.loc	6 316 9 is_stmt 1               // kernel/platform_source/basicplatform/block/mas_blk_dump.c:316:9
	ldr	x4, [x20, #160]
	cbz	x4, .LBB1_6
.Ltmp97:
.LBB1_17:
	//DEBUG_VALUE: mas_blk_dump_bio:prefix <- $x21
	//DEBUG_VALUE: mas_blk_dump_bio:bio <- $x20
	//DEBUG_VALUE: mas_blk_dump_bio:mas_bio <- [DW_OP_plus_uconst 80, DW_OP_stack_value] $x20
	//DEBUG_VALUE: mas_blk_dump_bio:count <- $w22
	//DEBUG_VALUE: mas_blk_dump_bio:s <- $w19
	//DEBUG_VALUE: mas_blk_dump_bio:type <- [DW_OP_plus_uconst 12, DW_OP_stack_value] $sp
	//DEBUG_VALUE: mas_blk_dump_bio:i <- 3
	.loc	6 319 35                        // kernel/platform_source/basicplatform/block/mas_blk_dump.c:319:35
	adrp	x10, bio_stage_cfg+48
	.loc	6 318 25                        // kernel/platform_source/basicplatform/block/mas_blk_dump.c:318:25
	mov	w8, w22
	.loc	6 319 35                        // kernel/platform_source/basicplatform/block/mas_blk_dump.c:319:35
	ldr	x3, [x10, :lo12:bio_stage_cfg+48]
	.loc	6 318 25                        // kernel/platform_source/basicplatform/block/mas_blk_dump.c:318:25
	sxtw	x8, w8
	add	x9, sp, #24                     // =24
	add	x0, x9, x8
	mov	w9, #512
	.loc	6 318 12 is_stmt 0              // kernel/platform_source/basicplatform/block/mas_blk_dump.c:318:12
	adrp	x2, .L.str.9
	.loc	6 318 55                        // kernel/platform_source/basicplatform/block/mas_blk_dump.c:318:55
	sub	x1, x9, x8
	.loc	6 318 12                        // kernel/platform_source/basicplatform/block/mas_blk_dump.c:318:12
	add	x2, x2, :lo12:.L.str.9
	bl	snprintf
.Ltmp98:
	.loc	6 318 9                         // kernel/platform_source/basicplatform/block/mas_blk_dump.c:318:9
	add	w22, w0, w22
.Ltmp99:
	//DEBUG_VALUE: mas_blk_dump_bio:count <- $w22
	//DEBUG_VALUE: mas_blk_dump_bio:count <- $w22
	//DEBUG_VALUE: mas_blk_dump_bio:i <- 4
	.loc	6 316 9 is_stmt 1               // kernel/platform_source/basicplatform/block/mas_blk_dump.c:316:9
	ldr	x4, [x20, #168]
	cbz	x4, .LBB1_7
.Ltmp100:
.LBB1_18:
	//DEBUG_VALUE: mas_blk_dump_bio:prefix <- $x21
	//DEBUG_VALUE: mas_blk_dump_bio:bio <- $x20
	//DEBUG_VALUE: mas_blk_dump_bio:mas_bio <- [DW_OP_plus_uconst 80, DW_OP_stack_value] $x20
	//DEBUG_VALUE: mas_blk_dump_bio:count <- $w22
	//DEBUG_VALUE: mas_blk_dump_bio:s <- $w19
	//DEBUG_VALUE: mas_blk_dump_bio:type <- [DW_OP_plus_uconst 12, DW_OP_stack_value] $sp
	//DEBUG_VALUE: mas_blk_dump_bio:i <- 4
	.loc	6 319 35                        // kernel/platform_source/basicplatform/block/mas_blk_dump.c:319:35
	adrp	x10, bio_stage_cfg+64
	.loc	6 318 25                        // kernel/platform_source/basicplatform/block/mas_blk_dump.c:318:25
	mov	w8, w22
	.loc	6 319 35                        // kernel/platform_source/basicplatform/block/mas_blk_dump.c:319:35
	ldr	x3, [x10, :lo12:bio_stage_cfg+64]
	.loc	6 318 25                        // kernel/platform_source/basicplatform/block/mas_blk_dump.c:318:25
	sxtw	x8, w8
	add	x9, sp, #24                     // =24
	add	x0, x9, x8
	mov	w9, #512
	.loc	6 318 12 is_stmt 0              // kernel/platform_source/basicplatform/block/mas_blk_dump.c:318:12
	adrp	x2, .L.str.9
	.loc	6 318 55                        // kernel/platform_source/basicplatform/block/mas_blk_dump.c:318:55
	sub	x1, x9, x8
	.loc	6 318 12                        // kernel/platform_source/basicplatform/block/mas_blk_dump.c:318:12
	add	x2, x2, :lo12:.L.str.9
	bl	snprintf
.Ltmp101:
	.loc	6 318 9                         // kernel/platform_source/basicplatform/block/mas_blk_dump.c:318:9
	add	w22, w0, w22
.Ltmp102:
	//DEBUG_VALUE: mas_blk_dump_bio:count <- $w22
	//DEBUG_VALUE: mas_blk_dump_bio:count <- $w22
	//DEBUG_VALUE: mas_blk_dump_bio:i <- 5
	.loc	6 316 9 is_stmt 1               // kernel/platform_source/basicplatform/block/mas_blk_dump.c:316:9
	ldr	x4, [x20, #176]
	cbz	x4, .LBB1_8
.Ltmp103:
.LBB1_19:
	//DEBUG_VALUE: mas_blk_dump_bio:prefix <- $x21
	//DEBUG_VALUE: mas_blk_dump_bio:bio <- $x20
	//DEBUG_VALUE: mas_blk_dump_bio:mas_bio <- [DW_OP_plus_uconst 80, DW_OP_stack_value] $x20
	//DEBUG_VALUE: mas_blk_dump_bio:count <- $w22
	//DEBUG_VALUE: mas_blk_dump_bio:s <- $w19
	//DEBUG_VALUE: mas_blk_dump_bio:type <- [DW_OP_plus_uconst 12, DW_OP_stack_value] $sp
	//DEBUG_VALUE: mas_blk_dump_bio:i <- 5
	.loc	6 319 35                        // kernel/platform_source/basicplatform/block/mas_blk_dump.c:319:35
	adrp	x10, bio_stage_cfg+80
	.loc	6 318 25                        // kernel/platform_source/basicplatform/block/mas_blk_dump.c:318:25
	mov	w8, w22
	.loc	6 319 35                        // kernel/platform_source/basicplatform/block/mas_blk_dump.c:319:35
	ldr	x3, [x10, :lo12:bio_stage_cfg+80]
	.loc	6 318 25                        // kernel/platform_source/basicplatform/block/mas_blk_dump.c:318:25
	sxtw	x8, w8
	add	x9, sp, #24                     // =24
	add	x0, x9, x8
	mov	w9, #512
	.loc	6 318 12 is_stmt 0              // kernel/platform_source/basicplatform/block/mas_blk_dump.c:318:12
	adrp	x2, .L.str.9
	.loc	6 318 55                        // kernel/platform_source/basicplatform/block/mas_blk_dump.c:318:55
	sub	x1, x9, x8
	.loc	6 318 12                        // kernel/platform_source/basicplatform/block/mas_blk_dump.c:318:12
	add	x2, x2, :lo12:.L.str.9
	bl	snprintf
.Ltmp104:
	.loc	6 318 9                         // kernel/platform_source/basicplatform/block/mas_blk_dump.c:318:9
	add	w22, w0, w22
.Ltmp105:
	//DEBUG_VALUE: mas_blk_dump_bio:count <- $w22
	//DEBUG_VALUE: mas_blk_dump_bio:count <- $w22
	//DEBUG_VALUE: mas_blk_dump_bio:i <- 6
	.loc	6 316 9 is_stmt 1               // kernel/platform_source/basicplatform/block/mas_blk_dump.c:316:9
	ldr	x4, [x20, #184]
	cbnz	x4, .LBB1_9
	b	.LBB1_10
.Ltmp106:
.LBB1_20:
	//DEBUG_VALUE: mas_blk_dump_bio:prefix <- $x21
	//DEBUG_VALUE: mas_blk_dump_bio:bio <- $x20
	//DEBUG_VALUE: mas_blk_dump_bio:mas_bio <- [DW_OP_plus_uconst 80, DW_OP_stack_value] $x20
	//DEBUG_VALUE: mas_blk_dump_bio:count <- $w22
	//DEBUG_VALUE: mas_blk_dump_bio:s <- $w19
	//DEBUG_VALUE: mas_blk_dump_bio:type <- [DW_OP_plus_uconst 12, DW_OP_stack_value] $sp
	//DEBUG_VALUE: mas_blk_dump_bio:i <- 7
	.loc	6 0 9 is_stmt 0                 // kernel/platform_source/basicplatform/block/mas_blk_dump.c:0:9
	bl	__stack_chk_fail
.Ltmp107:
.Lfunc_end1:
	.size	mas_blk_dump_bio, .Lfunc_end1-mas_blk_dump_bio
	.cfi_endproc
	.file	154 "/mnt/disk/jenkins/ci/workspace/chipset_pipeline_release/opensource/component_code/vendor/huawei/extra/build/build_script/kirin_kernel_release" "kernel/include/linux/timekeeping.h"
                                        // -- End function
	.p2align	2                               // -- Begin function mas_blk_io_type
	.type	mas_blk_io_type,@function
mas_blk_io_type:                        // @mas_blk_io_type
.Lfunc_begin2:
	.loc	6 130 0 is_stmt 1               // kernel/platform_source/basicplatform/block/mas_blk_dump.c:130:0
	.cfi_startproc
// %bb.0:
	//DEBUG_VALUE: mas_blk_io_type:op <- $x0
	//DEBUG_VALUE: mas_blk_io_type:flag <- $x1
	//DEBUG_VALUE: mas_blk_io_type:mas_flag <- $x2
	//DEBUG_VALUE: mas_blk_io_type:type_buf <- $x3
	//DEBUG_VALUE: mas_blk_io_type_op:op <- $x0
	//DEBUG_VALUE: mas_blk_io_type_op:type_buf <- $x3
	hint	#25
	.cfi_negate_ra_state
	stp	x29, x30, [sp, #-48]!           // 16-byte Folded Spill
	str	x21, [sp, #16]                  // 8-byte Folded Spill
	stp	x20, x19, [sp, #32]             // 16-byte Folded Spill
	mov	x29, sp
	.cfi_def_cfa w29, 48
	.cfi_offset w19, -8
	.cfi_offset w20, -16
	.cfi_offset w21, -32
	.cfi_offset w30, -40
	.cfi_offset w29, -48
	mov	x19, x3
.Ltmp108:
	//DEBUG_VALUE: mas_blk_io_type:type_buf <- $x19
	mov	x20, x2
.Ltmp109:
	//DEBUG_VALUE: mas_blk_io_type:mas_flag <- $x20
	mov	x2, x0
.Ltmp110:
	//DEBUG_VALUE: mas_blk_io_type_op:len <- 10
	//DEBUG_VALUE: mas_blk_io_type:offset <- 0
	//DEBUG_VALUE: mas_blk_io_type:len <- 10
	//DEBUG_VALUE: mas_blk_io_type_op:type_buf <- $x19
	//DEBUG_VALUE: mas_blk_io_type_op:op <- $x2
	//DEBUG_VALUE: mas_blk_io_type:type_buf <- $x19
	//DEBUG_VALUE: mas_blk_io_type:mas_flag <- $x20
	//DEBUG_VALUE: mas_blk_io_type:op <- $x2
	.loc	6 44 2 prologue_end             // kernel/platform_source/basicplatform/block/mas_blk_dump.c:44:2
	cmp	x0, #7                          // =7
	mov	x21, x1
.Ltmp111:
	//DEBUG_VALUE: mas_blk_io_type:flag <- $x21
	//DEBUG_VALUE: mas_blk_io_type:flag <- $x21
	b.hi	.LBB2_10
.Ltmp112:
// %bb.1:
	//DEBUG_VALUE: mas_blk_io_type:flag <- $x21
	//DEBUG_VALUE: mas_blk_io_type:mas_flag <- $x20
	//DEBUG_VALUE: mas_blk_io_type_op:type_buf <- $x19
	//DEBUG_VALUE: mas_blk_io_type:type_buf <- $x19
	//DEBUG_VALUE: mas_blk_io_type:op <- $x2
	//DEBUG_VALUE: mas_blk_io_type_op:op <- $x2
	//DEBUG_VALUE: mas_blk_io_type:len <- 10
	//DEBUG_VALUE: mas_blk_io_type:offset <- 0
	//DEBUG_VALUE: mas_blk_io_type_op:len <- 10
	.loc	6 0 2 is_stmt 0                 // kernel/platform_source/basicplatform/block/mas_blk_dump.c:0:2
	adrp	x8, .LJTI2_0
	add	x8, x8, :lo12:.LJTI2_0
	adr	x9, .LBB2_2
	ldrb	w10, [x8, x2]
	add	x9, x9, x10, lsl #2
	br	x9
.Ltmp113:
.LBB2_2:
	//DEBUG_VALUE: mas_blk_io_type:flag <- $x21
	//DEBUG_VALUE: mas_blk_io_type:mas_flag <- $x20
	//DEBUG_VALUE: mas_blk_io_type_op:type_buf <- $x19
	//DEBUG_VALUE: mas_blk_io_type:type_buf <- $x19
	//DEBUG_VALUE: mas_blk_io_type:op <- $x2
	//DEBUG_VALUE: mas_blk_io_type_op:op <- $x2
	//DEBUG_VALUE: mas_blk_io_type:len <- 10
	//DEBUG_VALUE: mas_blk_io_type:offset <- 0
	//DEBUG_VALUE: mas_blk_io_type_op:len <- 10
	hint	#36
	mov	w8, #82
	b	.LBB2_8
.Ltmp114:
.LBB2_3:
	//DEBUG_VALUE: mas_blk_io_type:flag <- $x21
	//DEBUG_VALUE: mas_blk_io_type:mas_flag <- $x20
	//DEBUG_VALUE: mas_blk_io_type_op:type_buf <- $x19
	//DEBUG_VALUE: mas_blk_io_type:type_buf <- $x19
	//DEBUG_VALUE: mas_blk_io_type:op <- $x2
	//DEBUG_VALUE: mas_blk_io_type_op:op <- $x2
	//DEBUG_VALUE: mas_blk_io_type:len <- 10
	//DEBUG_VALUE: mas_blk_io_type:offset <- 0
	//DEBUG_VALUE: mas_blk_io_type_op:len <- 10
	hint	#36
	mov	w8, #87
	b	.LBB2_8
.Ltmp115:
.LBB2_4:
	//DEBUG_VALUE: mas_blk_io_type:flag <- $x21
	//DEBUG_VALUE: mas_blk_io_type:mas_flag <- $x20
	//DEBUG_VALUE: mas_blk_io_type_op:type_buf <- $x19
	//DEBUG_VALUE: mas_blk_io_type:type_buf <- $x19
	//DEBUG_VALUE: mas_blk_io_type:op <- $x2
	//DEBUG_VALUE: mas_blk_io_type_op:op <- $x2
	//DEBUG_VALUE: mas_blk_io_type:len <- 10
	//DEBUG_VALUE: mas_blk_io_type:offset <- 0
	//DEBUG_VALUE: mas_blk_io_type_op:len <- 10
	hint	#36
	mov	w8, #70
	b	.LBB2_8
.Ltmp116:
.LBB2_5:
	//DEBUG_VALUE: mas_blk_io_type:flag <- $x21
	//DEBUG_VALUE: mas_blk_io_type:mas_flag <- $x20
	//DEBUG_VALUE: mas_blk_io_type_op:type_buf <- $x19
	//DEBUG_VALUE: mas_blk_io_type:type_buf <- $x19
	//DEBUG_VALUE: mas_blk_io_type:op <- $x2
	//DEBUG_VALUE: mas_blk_io_type_op:op <- $x2
	//DEBUG_VALUE: mas_blk_io_type:len <- 10
	//DEBUG_VALUE: mas_blk_io_type:offset <- 0
	//DEBUG_VALUE: mas_blk_io_type_op:len <- 10
	hint	#36
	mov	w8, #68
	b	.LBB2_8
.Ltmp117:
.LBB2_6:
	//DEBUG_VALUE: mas_blk_io_type:flag <- $x21
	//DEBUG_VALUE: mas_blk_io_type:mas_flag <- $x20
	//DEBUG_VALUE: mas_blk_io_type_op:type_buf <- $x19
	//DEBUG_VALUE: mas_blk_io_type:type_buf <- $x19
	//DEBUG_VALUE: mas_blk_io_type:op <- $x2
	//DEBUG_VALUE: mas_blk_io_type_op:op <- $x2
	//DEBUG_VALUE: mas_blk_io_type:len <- 10
	//DEBUG_VALUE: mas_blk_io_type:offset <- 0
	//DEBUG_VALUE: mas_blk_io_type_op:len <- 10
	hint	#36
	mov	w8, #69
	b	.LBB2_8
.Ltmp118:
.LBB2_7:
	//DEBUG_VALUE: mas_blk_io_type:flag <- $x21
	//DEBUG_VALUE: mas_blk_io_type:mas_flag <- $x20
	//DEBUG_VALUE: mas_blk_io_type_op:type_buf <- $x19
	//DEBUG_VALUE: mas_blk_io_type:type_buf <- $x19
	//DEBUG_VALUE: mas_blk_io_type:op <- $x2
	//DEBUG_VALUE: mas_blk_io_type_op:op <- $x2
	//DEBUG_VALUE: mas_blk_io_type:len <- 10
	//DEBUG_VALUE: mas_blk_io_type:offset <- 0
	//DEBUG_VALUE: mas_blk_io_type_op:len <- 10
	hint	#36
	mov	w8, #84
.Ltmp119:
.LBB2_8:
	//DEBUG_VALUE: mas_blk_io_type:flag <- $x21
	//DEBUG_VALUE: mas_blk_io_type:mas_flag <- $x20
	//DEBUG_VALUE: mas_blk_io_type_op:type_buf <- $x19
	//DEBUG_VALUE: mas_blk_io_type:type_buf <- $x19
	//DEBUG_VALUE: mas_blk_io_type:op <- $x2
	//DEBUG_VALUE: mas_blk_io_type_op:op <- $x2
	//DEBUG_VALUE: mas_blk_io_type:len <- 10
	//DEBUG_VALUE: mas_blk_io_type:offset <- 0
	//DEBUG_VALUE: mas_blk_io_type_op:len <- 10
	strb	w8, [x19]
	mov	w8, #1
.Ltmp120:
	//DEBUG_VALUE: mas_blk_io_type:offset <- $w8
	.loc	6 134 48 is_stmt 1              // kernel/platform_source/basicplatform/block/mas_blk_dump.c:134:48
	add	x9, x19, w8, uxtw
.Ltmp121:
	//DEBUG_VALUE: mas_blk_io_type_flag:offset <- 0
	//DEBUG_VALUE: mas_blk_io_type_flag:len <- undef
	//DEBUG_VALUE: mas_blk_io_type_flag:flag <- $x21
	//DEBUG_VALUE: mas_blk_io_type_flag:type_buf <- $x9
	.loc	6 75 23                         // kernel/platform_source/basicplatform/block/mas_blk_dump.c:75:23
	tbnz	w21, #17, .LBB2_11
.Ltmp122:
.LBB2_9:
	//DEBUG_VALUE: mas_blk_io_type_flag:flag <- $x21
	//DEBUG_VALUE: mas_blk_io_type:flag <- $x21
	//DEBUG_VALUE: mas_blk_io_type:mas_flag <- $x20
	//DEBUG_VALUE: mas_blk_io_type:type_buf <- $x19
	//DEBUG_VALUE: mas_blk_io_type_flag:type_buf <- $x9
	//DEBUG_VALUE: mas_blk_io_type:offset <- $w8
	//DEBUG_VALUE: mas_blk_io_type_flag:offset <- 0
	//DEBUG_VALUE: mas_blk_io_type:len <- 10
	.loc	6 0 0 is_stmt 0                 // kernel/platform_source/basicplatform/block/mas_blk_dump.c:0:0
	mov	w10, wzr
.Ltmp123:
	//DEBUG_VALUE: mas_blk_io_type_flag:offset <- $w10
	.loc	6 79 24 is_stmt 1               // kernel/platform_source/basicplatform/block/mas_blk_dump.c:79:24
	tbnz	w21, #11, .LBB2_12
	b	.LBB2_13
.Ltmp124:
.LBB2_10:
	//DEBUG_VALUE: mas_blk_io_type:flag <- $x21
	//DEBUG_VALUE: mas_blk_io_type:mas_flag <- $x20
	//DEBUG_VALUE: mas_blk_io_type_op:type_buf <- $x19
	//DEBUG_VALUE: mas_blk_io_type:type_buf <- $x19
	//DEBUG_VALUE: mas_blk_io_type:op <- $x2
	//DEBUG_VALUE: mas_blk_io_type_op:op <- $x2
	//DEBUG_VALUE: mas_blk_io_type:len <- 10
	//DEBUG_VALUE: mas_blk_io_type:offset <- 0
	//DEBUG_VALUE: mas_blk_io_type_op:len <- 10
	.loc	6 64 3                          // kernel/platform_source/basicplatform/block/mas_blk_dump.c:64:3
	hint	#36
	adrp	x0, .L.str.21
	adrp	x1, .L__func__.mas_blk_io_type_op
	add	x0, x0, :lo12:.L.str.21
	add	x1, x1, :lo12:.L__func__.mas_blk_io_type_op
	bl	printk
.Ltmp125:
	.loc	6 0 0 is_stmt 0                 // kernel/platform_source/basicplatform/block/mas_blk_dump.c:0:0
	mov	w8, wzr
.Ltmp126:
	//DEBUG_VALUE: mas_blk_io_type:offset <- $w8
	.loc	6 134 48 is_stmt 1              // kernel/platform_source/basicplatform/block/mas_blk_dump.c:134:48
	add	x9, x19, w8, uxtw
.Ltmp127:
	//DEBUG_VALUE: mas_blk_io_type_flag:offset <- 0
	//DEBUG_VALUE: mas_blk_io_type_flag:len <- undef
	//DEBUG_VALUE: mas_blk_io_type_flag:flag <- $x21
	//DEBUG_VALUE: mas_blk_io_type_flag:type_buf <- $x9
	.loc	6 75 23                         // kernel/platform_source/basicplatform/block/mas_blk_dump.c:75:23
	tbz	w21, #17, .LBB2_9
.Ltmp128:
.LBB2_11:
	//DEBUG_VALUE: mas_blk_io_type_flag:flag <- $x21
	//DEBUG_VALUE: mas_blk_io_type:flag <- $x21
	//DEBUG_VALUE: mas_blk_io_type:mas_flag <- $x20
	//DEBUG_VALUE: mas_blk_io_type:type_buf <- $x19
	//DEBUG_VALUE: mas_blk_io_type_flag:type_buf <- $x9
	//DEBUG_VALUE: mas_blk_io_type:offset <- $w8
	//DEBUG_VALUE: mas_blk_io_type_flag:offset <- 0
	//DEBUG_VALUE: mas_blk_io_type:len <- 10
	.loc	6 0 23 is_stmt 0                // kernel/platform_source/basicplatform/block/mas_blk_dump.c:0:23
	mov	w10, #65
.Ltmp129:
	.loc	6 76 20 is_stmt 1               // kernel/platform_source/basicplatform/block/mas_blk_dump.c:76:20
	strb	w10, [x9]
	mov	w10, #1
.Ltmp130:
	//DEBUG_VALUE: mas_blk_io_type_flag:offset <- 1
	//DEBUG_VALUE: mas_blk_io_type_flag:offset <- $w10
	.loc	6 79 24                         // kernel/platform_source/basicplatform/block/mas_blk_dump.c:79:24
	tbz	w21, #11, .LBB2_13
.Ltmp131:
.LBB2_12:
	//DEBUG_VALUE: mas_blk_io_type_flag:flag <- $x21
	//DEBUG_VALUE: mas_blk_io_type:flag <- $x21
	//DEBUG_VALUE: mas_blk_io_type:mas_flag <- $x20
	//DEBUG_VALUE: mas_blk_io_type:type_buf <- $x19
	//DEBUG_VALUE: mas_blk_io_type_flag:type_buf <- $x9
	//DEBUG_VALUE: mas_blk_io_type_flag:offset <- $w10
	//DEBUG_VALUE: mas_blk_io_type:offset <- $w8
	//DEBUG_VALUE: mas_blk_io_type:len <- 10
	.loc	6 0 24 is_stmt 0                // kernel/platform_source/basicplatform/block/mas_blk_dump.c:0:24
	mov	w11, #83
.Ltmp132:
	.loc	6 80 20 is_stmt 1               // kernel/platform_source/basicplatform/block/mas_blk_dump.c:80:20
	strb	w11, [x9, w10, uxtw]
	.loc	6 81 9                          // kernel/platform_source/basicplatform/block/mas_blk_dump.c:81:9
	add	w10, w10, #1                    // =1
.Ltmp133:
	//DEBUG_VALUE: mas_blk_io_type_flag:offset <- $w10
.LBB2_13:
	//DEBUG_VALUE: mas_blk_io_type_flag:flag <- $x21
	//DEBUG_VALUE: mas_blk_io_type:flag <- $x21
	//DEBUG_VALUE: mas_blk_io_type:mas_flag <- $x20
	//DEBUG_VALUE: mas_blk_io_type:type_buf <- $x19
	//DEBUG_VALUE: mas_blk_io_type_flag:type_buf <- $x9
	//DEBUG_VALUE: mas_blk_io_type_flag:offset <- $w10
	//DEBUG_VALUE: mas_blk_io_type:offset <- $w8
	//DEBUG_VALUE: mas_blk_io_type:len <- 10
	//DEBUG_VALUE: mas_blk_io_type_flag:offset <- $w10
	.loc	6 83 24                         // kernel/platform_source/basicplatform/block/mas_blk_dump.c:83:24
	tbnz	w21, #12, .LBB2_18
.Ltmp134:
// %bb.14:
	//DEBUG_VALUE: mas_blk_io_type_flag:flag <- $x21
	//DEBUG_VALUE: mas_blk_io_type:flag <- $x21
	//DEBUG_VALUE: mas_blk_io_type:mas_flag <- $x20
	//DEBUG_VALUE: mas_blk_io_type:type_buf <- $x19
	//DEBUG_VALUE: mas_blk_io_type_flag:type_buf <- $x9
	//DEBUG_VALUE: mas_blk_io_type_flag:offset <- $w10
	//DEBUG_VALUE: mas_blk_io_type:offset <- $w8
	//DEBUG_VALUE: mas_blk_io_type:len <- 10
	//DEBUG_VALUE: mas_blk_io_type_flag:offset <- $w10
	.loc	6 87 28                         // kernel/platform_source/basicplatform/block/mas_blk_dump.c:87:28
	tbz	w21, #18, .LBB2_16
.Ltmp135:
.LBB2_15:
	//DEBUG_VALUE: mas_blk_io_type_flag:flag <- $x21
	//DEBUG_VALUE: mas_blk_io_type:flag <- $x21
	//DEBUG_VALUE: mas_blk_io_type:mas_flag <- $x20
	//DEBUG_VALUE: mas_blk_io_type:type_buf <- $x19
	//DEBUG_VALUE: mas_blk_io_type_flag:type_buf <- $x9
	//DEBUG_VALUE: mas_blk_io_type_flag:offset <- $w10
	//DEBUG_VALUE: mas_blk_io_type:offset <- $w8
	//DEBUG_VALUE: mas_blk_io_type:len <- 10
	.loc	6 0 28 is_stmt 0                // kernel/platform_source/basicplatform/block/mas_blk_dump.c:0:28
	mov	w11, #70
.Ltmp136:
	.loc	6 88 20 is_stmt 1               // kernel/platform_source/basicplatform/block/mas_blk_dump.c:88:20
	strb	w11, [x9, w10, uxtw]
	.loc	6 89 9                          // kernel/platform_source/basicplatform/block/mas_blk_dump.c:89:9
	add	w10, w10, #1                    // =1
.Ltmp137:
	//DEBUG_VALUE: mas_blk_io_type_flag:offset <- $w10
.LBB2_16:
	//DEBUG_VALUE: mas_blk_io_type:flag <- $x21
	//DEBUG_VALUE: mas_blk_io_type:mas_flag <- $x20
	//DEBUG_VALUE: mas_blk_io_type:type_buf <- $x19
	//DEBUG_VALUE: mas_blk_io_type:offset <- $w8
	//DEBUG_VALUE: mas_blk_io_type:len <- 10
	.loc	6 134 9                         // kernel/platform_source/basicplatform/block/mas_blk_dump.c:134:9
	add	w8, w10, w8
.Ltmp138:
	//DEBUG_VALUE: mas_blk_io_type:offset <- $w8
	.loc	6 136 28                        // kernel/platform_source/basicplatform/block/mas_blk_dump.c:136:28
	add	x10, x19, x8
.Ltmp139:
	//DEBUG_VALUE: mas_blk_io_type_priv_flag:priv_flag <- $x20
	//DEBUG_VALUE: mas_blk_io_type_priv_flag:offset <- 0
	//DEBUG_VALUE: mas_blk_io_type_priv_flag:type_buf <- undef
	//DEBUG_VALUE: mas_blk_io_type_priv_flag:mas_flag <- $x20
	//DEBUG_VALUE: mas_blk_io_type_priv_flag:flag <- $x21
	//DEBUG_VALUE: mas_blk_io_type_priv_flag:len <- undef
	.loc	6 100 22                        // kernel/platform_source/basicplatform/block/mas_blk_dump.c:100:22
	tbnz	w21, #21, .LBB2_19
.Ltmp140:
// %bb.17:
	//DEBUG_VALUE: mas_blk_io_type_priv_flag:flag <- $x21
	//DEBUG_VALUE: mas_blk_io_type:flag <- $x21
	//DEBUG_VALUE: mas_blk_io_type_priv_flag:mas_flag <- $x20
	//DEBUG_VALUE: mas_blk_io_type_priv_flag:priv_flag <- $x20
	//DEBUG_VALUE: mas_blk_io_type:mas_flag <- $x20
	//DEBUG_VALUE: mas_blk_io_type:type_buf <- $x19
	//DEBUG_VALUE: mas_blk_io_type:offset <- $w8
	//DEBUG_VALUE: mas_blk_io_type_priv_flag:offset <- 0
	//DEBUG_VALUE: mas_blk_io_type:len <- 10
	.loc	6 0 0 is_stmt 0                 // kernel/platform_source/basicplatform/block/mas_blk_dump.c:0:0
	mov	w9, wzr
.Ltmp141:
	//DEBUG_VALUE: mas_blk_io_type_priv_flag:len <- undef
	//DEBUG_VALUE: mas_blk_io_type_priv_flag:offset <- $w9
	.loc	6 104 27 is_stmt 1              // kernel/platform_source/basicplatform/block/mas_blk_dump.c:104:27
	tbnz	w20, #0, .LBB2_20
	b	.LBB2_21
.Ltmp142:
.LBB2_18:
	//DEBUG_VALUE: mas_blk_io_type_flag:flag <- $x21
	//DEBUG_VALUE: mas_blk_io_type:flag <- $x21
	//DEBUG_VALUE: mas_blk_io_type:mas_flag <- $x20
	//DEBUG_VALUE: mas_blk_io_type:type_buf <- $x19
	//DEBUG_VALUE: mas_blk_io_type_flag:type_buf <- $x9
	//DEBUG_VALUE: mas_blk_io_type_flag:offset <- $w10
	//DEBUG_VALUE: mas_blk_io_type:offset <- $w8
	//DEBUG_VALUE: mas_blk_io_type:len <- 10
	.loc	6 0 27 is_stmt 0                // kernel/platform_source/basicplatform/block/mas_blk_dump.c:0:27
	mov	w11, #77
.Ltmp143:
	.loc	6 84 20 is_stmt 1               // kernel/platform_source/basicplatform/block/mas_blk_dump.c:84:20
	strb	w11, [x9, w10, uxtw]
	.loc	6 85 9                          // kernel/platform_source/basicplatform/block/mas_blk_dump.c:85:9
	add	w10, w10, #1                    // =1
.Ltmp144:
	//DEBUG_VALUE: mas_blk_io_type_flag:offset <- $w10
	//DEBUG_VALUE: mas_blk_io_type_flag:offset <- $w10
	.loc	6 87 28                         // kernel/platform_source/basicplatform/block/mas_blk_dump.c:87:28
	tbnz	w21, #18, .LBB2_15
	b	.LBB2_16
.Ltmp145:
.LBB2_19:
	//DEBUG_VALUE: mas_blk_io_type_priv_flag:flag <- $x21
	//DEBUG_VALUE: mas_blk_io_type:flag <- $x21
	//DEBUG_VALUE: mas_blk_io_type_priv_flag:mas_flag <- $x20
	//DEBUG_VALUE: mas_blk_io_type_priv_flag:priv_flag <- $x20
	//DEBUG_VALUE: mas_blk_io_type:mas_flag <- $x20
	//DEBUG_VALUE: mas_blk_io_type:type_buf <- $x19
	//DEBUG_VALUE: mas_blk_io_type:offset <- $w8
	//DEBUG_VALUE: mas_blk_io_type_priv_flag:offset <- 0
	//DEBUG_VALUE: mas_blk_io_type:len <- 10
	.loc	6 0 28 is_stmt 0                // kernel/platform_source/basicplatform/block/mas_blk_dump.c:0:28
	mov	w9, #72
.Ltmp146:
	.loc	6 101 20 is_stmt 1              // kernel/platform_source/basicplatform/block/mas_blk_dump.c:101:20
	strb	w9, [x10]
	mov	w9, #1
.Ltmp147:
	//DEBUG_VALUE: mas_blk_io_type_priv_flag:offset <- 1
	//DEBUG_VALUE: mas_blk_io_type_priv_flag:len <- undef
	//DEBUG_VALUE: mas_blk_io_type_priv_flag:offset <- $w9
	.loc	6 104 27                        // kernel/platform_source/basicplatform/block/mas_blk_dump.c:104:27
	tbz	w20, #0, .LBB2_21
.Ltmp148:
.LBB2_20:
	//DEBUG_VALUE: mas_blk_io_type_priv_flag:flag <- $x21
	//DEBUG_VALUE: mas_blk_io_type:flag <- $x21
	//DEBUG_VALUE: mas_blk_io_type_priv_flag:mas_flag <- $x20
	//DEBUG_VALUE: mas_blk_io_type_priv_flag:priv_flag <- $x20
	//DEBUG_VALUE: mas_blk_io_type:mas_flag <- $x20
	//DEBUG_VALUE: mas_blk_io_type:type_buf <- $x19
	//DEBUG_VALUE: mas_blk_io_type_priv_flag:offset <- $w9
	//DEBUG_VALUE: mas_blk_io_type:offset <- $w8
	//DEBUG_VALUE: mas_blk_io_type:len <- 10
	.loc	6 0 27 is_stmt 0                // kernel/platform_source/basicplatform/block/mas_blk_dump.c:0:27
	mov	w11, #67
.Ltmp149:
	.loc	6 105 20 is_stmt 1              // kernel/platform_source/basicplatform/block/mas_blk_dump.c:105:20
	strb	w11, [x10, w9, uxtw]
	.loc	6 106 9                         // kernel/platform_source/basicplatform/block/mas_blk_dump.c:106:9
	add	w9, w9, #1                      // =1
.Ltmp150:
	//DEBUG_VALUE: mas_blk_io_type_priv_flag:offset <- $w9
.LBB2_21:
	//DEBUG_VALUE: mas_blk_io_type_priv_flag:flag <- $x21
	//DEBUG_VALUE: mas_blk_io_type:flag <- $x21
	//DEBUG_VALUE: mas_blk_io_type_priv_flag:mas_flag <- $x20
	//DEBUG_VALUE: mas_blk_io_type_priv_flag:priv_flag <- $x20
	//DEBUG_VALUE: mas_blk_io_type:mas_flag <- $x20
	//DEBUG_VALUE: mas_blk_io_type:type_buf <- $x19
	//DEBUG_VALUE: mas_blk_io_type_priv_flag:offset <- $w9
	//DEBUG_VALUE: mas_blk_io_type:offset <- $w8
	//DEBUG_VALUE: mas_blk_io_type:len <- 10
	.loc	6 0 9 is_stmt 0                 // kernel/platform_source/basicplatform/block/mas_blk_dump.c:0:9
	mov	w11, #10
	//DEBUG_VALUE: mas_blk_io_type_priv_flag:offset <- $w9
.Ltmp151:
	//DEBUG_VALUE: mas_blk_io_type_priv_flag:len <- undef
	.loc	6 108 27 is_stmt 1              // kernel/platform_source/basicplatform/block/mas_blk_dump.c:108:27
	tbnz	w20, #2, .LBB2_23
.Ltmp152:
// %bb.22:
	//DEBUG_VALUE: mas_blk_io_type_priv_flag:flag <- $x21
	//DEBUG_VALUE: mas_blk_io_type:flag <- $x21
	//DEBUG_VALUE: mas_blk_io_type_priv_flag:mas_flag <- $x20
	//DEBUG_VALUE: mas_blk_io_type_priv_flag:priv_flag <- $x20
	//DEBUG_VALUE: mas_blk_io_type:mas_flag <- $x20
	//DEBUG_VALUE: mas_blk_io_type:type_buf <- $x19
	//DEBUG_VALUE: mas_blk_io_type_priv_flag:offset <- $w9
	//DEBUG_VALUE: mas_blk_io_type:offset <- $w8
	//DEBUG_VALUE: mas_blk_io_type:len <- 10
	.loc	6 0 0 is_stmt 0                 // kernel/platform_source/basicplatform/block/mas_blk_dump.c:0:0
	sub	w11, w11, w8
	//DEBUG_VALUE: mas_blk_io_type_priv_flag:offset <- $w9
.Ltmp153:
	//DEBUG_VALUE: mas_blk_io_type_priv_flag:len <- $w11
	.loc	6 112 28 is_stmt 1              // kernel/platform_source/basicplatform/block/mas_blk_dump.c:112:28
	tbnz	w20, #1, .LBB2_24
	b	.LBB2_26
.Ltmp154:
.LBB2_23:
	//DEBUG_VALUE: mas_blk_io_type_priv_flag:flag <- $x21
	//DEBUG_VALUE: mas_blk_io_type:flag <- $x21
	//DEBUG_VALUE: mas_blk_io_type_priv_flag:mas_flag <- $x20
	//DEBUG_VALUE: mas_blk_io_type_priv_flag:priv_flag <- $x20
	//DEBUG_VALUE: mas_blk_io_type:mas_flag <- $x20
	//DEBUG_VALUE: mas_blk_io_type:type_buf <- $x19
	//DEBUG_VALUE: mas_blk_io_type_priv_flag:offset <- $w9
	//DEBUG_VALUE: mas_blk_io_type:offset <- $w8
	//DEBUG_VALUE: mas_blk_io_type:len <- 10
	.loc	6 0 28 is_stmt 0                // kernel/platform_source/basicplatform/block/mas_blk_dump.c:0:28
	mov	w12, #90
.Ltmp155:
	.loc	6 109 20 is_stmt 1              // kernel/platform_source/basicplatform/block/mas_blk_dump.c:109:20
	strb	w12, [x10, w9, uxtw]
	.loc	6 110 9                         // kernel/platform_source/basicplatform/block/mas_blk_dump.c:110:9
	add	w9, w9, #1                      // =1
.Ltmp156:
	//DEBUG_VALUE: mas_blk_io_type_priv_flag:offset <- $w9
	.loc	6 0 0 is_stmt 0                 // kernel/platform_source/basicplatform/block/mas_blk_dump.c:0:0
	sub	w11, w11, w8
	//DEBUG_VALUE: mas_blk_io_type_priv_flag:offset <- $w9
.Ltmp157:
	//DEBUG_VALUE: mas_blk_io_type_priv_flag:len <- $w11
	.loc	6 112 28 is_stmt 1              // kernel/platform_source/basicplatform/block/mas_blk_dump.c:112:28
	tbz	w20, #1, .LBB2_26
.Ltmp158:
.LBB2_24:
	//DEBUG_VALUE: mas_blk_io_type_priv_flag:flag <- $x21
	//DEBUG_VALUE: mas_blk_io_type:flag <- $x21
	//DEBUG_VALUE: mas_blk_io_type_priv_flag:mas_flag <- $x20
	//DEBUG_VALUE: mas_blk_io_type_priv_flag:priv_flag <- $x20
	//DEBUG_VALUE: mas_blk_io_type:mas_flag <- $x20
	//DEBUG_VALUE: mas_blk_io_type:type_buf <- $x19
	//DEBUG_VALUE: mas_blk_io_type_priv_flag:len <- $w11
	//DEBUG_VALUE: mas_blk_io_type_priv_flag:offset <- $w9
	//DEBUG_VALUE: mas_blk_io_type:offset <- $w8
	//DEBUG_VALUE: mas_blk_io_type:len <- 10
	cmp	w9, w11
	b.ge	.LBB2_26
.Ltmp159:
// %bb.25:
	//DEBUG_VALUE: mas_blk_io_type_priv_flag:flag <- $x21
	//DEBUG_VALUE: mas_blk_io_type:flag <- $x21
	//DEBUG_VALUE: mas_blk_io_type_priv_flag:mas_flag <- $x20
	//DEBUG_VALUE: mas_blk_io_type_priv_flag:priv_flag <- $x20
	//DEBUG_VALUE: mas_blk_io_type:mas_flag <- $x20
	//DEBUG_VALUE: mas_blk_io_type:type_buf <- $x19
	//DEBUG_VALUE: mas_blk_io_type_priv_flag:len <- $w11
	//DEBUG_VALUE: mas_blk_io_type_priv_flag:offset <- $w9
	//DEBUG_VALUE: mas_blk_io_type:offset <- $w8
	//DEBUG_VALUE: mas_blk_io_type:len <- 10
	.loc	6 0 28 is_stmt 0                // kernel/platform_source/basicplatform/block/mas_blk_dump.c:0:28
	mov	w12, #86
.Ltmp160:
	.loc	6 113 20 is_stmt 1              // kernel/platform_source/basicplatform/block/mas_blk_dump.c:113:20
	strb	w12, [x10, w9, uxtw]
	.loc	6 114 9                         // kernel/platform_source/basicplatform/block/mas_blk_dump.c:114:9
	add	w9, w9, #1                      // =1
.Ltmp161:
	//DEBUG_VALUE: mas_blk_io_type_priv_flag:offset <- $w9
.LBB2_26:
	//DEBUG_VALUE: mas_blk_io_type_priv_flag:flag <- $x21
	//DEBUG_VALUE: mas_blk_io_type:flag <- $x21
	//DEBUG_VALUE: mas_blk_io_type_priv_flag:mas_flag <- $x20
	//DEBUG_VALUE: mas_blk_io_type_priv_flag:priv_flag <- $x20
	//DEBUG_VALUE: mas_blk_io_type:mas_flag <- $x20
	//DEBUG_VALUE: mas_blk_io_type:type_buf <- $x19
	//DEBUG_VALUE: mas_blk_io_type_priv_flag:len <- $w11
	//DEBUG_VALUE: mas_blk_io_type_priv_flag:offset <- $w9
	//DEBUG_VALUE: mas_blk_io_type:offset <- $w8
	//DEBUG_VALUE: mas_blk_io_type:len <- 10
	//DEBUG_VALUE: mas_blk_io_type_priv_flag:offset <- $w9
	.loc	6 116 30                        // kernel/platform_source/basicplatform/block/mas_blk_dump.c:116:30
	tbz	w20, #5, .LBB2_29
.Ltmp162:
// %bb.27:
	//DEBUG_VALUE: mas_blk_io_type_priv_flag:flag <- $x21
	//DEBUG_VALUE: mas_blk_io_type:flag <- $x21
	//DEBUG_VALUE: mas_blk_io_type_priv_flag:mas_flag <- $x20
	//DEBUG_VALUE: mas_blk_io_type_priv_flag:priv_flag <- $x20
	//DEBUG_VALUE: mas_blk_io_type:mas_flag <- $x20
	//DEBUG_VALUE: mas_blk_io_type:type_buf <- $x19
	//DEBUG_VALUE: mas_blk_io_type_priv_flag:len <- $w11
	//DEBUG_VALUE: mas_blk_io_type_priv_flag:offset <- $w9
	//DEBUG_VALUE: mas_blk_io_type:offset <- $w8
	//DEBUG_VALUE: mas_blk_io_type:len <- 10
	cmp	w9, w11
	b.ge	.LBB2_29
.Ltmp163:
// %bb.28:
	//DEBUG_VALUE: mas_blk_io_type_priv_flag:flag <- $x21
	//DEBUG_VALUE: mas_blk_io_type:flag <- $x21
	//DEBUG_VALUE: mas_blk_io_type_priv_flag:mas_flag <- $x20
	//DEBUG_VALUE: mas_blk_io_type_priv_flag:priv_flag <- $x20
	//DEBUG_VALUE: mas_blk_io_type:mas_flag <- $x20
	//DEBUG_VALUE: mas_blk_io_type:type_buf <- $x19
	//DEBUG_VALUE: mas_blk_io_type_priv_flag:len <- $w11
	//DEBUG_VALUE: mas_blk_io_type_priv_flag:offset <- $w9
	//DEBUG_VALUE: mas_blk_io_type:offset <- $w8
	//DEBUG_VALUE: mas_blk_io_type:len <- 10
	.loc	6 0 30 is_stmt 0                // kernel/platform_source/basicplatform/block/mas_blk_dump.c:0:30
	mov	w11, #84
.Ltmp164:
	.loc	6 117 20 is_stmt 1              // kernel/platform_source/basicplatform/block/mas_blk_dump.c:117:20
	strb	w11, [x10, w9, uxtw]
	.loc	6 118 9                         // kernel/platform_source/basicplatform/block/mas_blk_dump.c:118:9
	add	w9, w9, #1                      // =1
.Ltmp165:
	//DEBUG_VALUE: mas_blk_io_type_priv_flag:offset <- $w9
.LBB2_29:
	//DEBUG_VALUE: mas_blk_io_type:flag <- $x21
	//DEBUG_VALUE: mas_blk_io_type:mas_flag <- $x20
	//DEBUG_VALUE: mas_blk_io_type:type_buf <- $x19
	//DEBUG_VALUE: mas_blk_io_type:offset <- $w8
	//DEBUG_VALUE: mas_blk_io_type:len <- 10
	.loc	6 135 9                         // kernel/platform_source/basicplatform/block/mas_blk_dump.c:135:9
	add	w8, w9, w8
.Ltmp166:
	//DEBUG_VALUE: mas_blk_io_type:offset <- $w8
	.loc	6 137 19                        // kernel/platform_source/basicplatform/block/mas_blk_dump.c:137:19
	strb	wzr, [x19, w8, uxtw]
	.loc	6 139 2                         // kernel/platform_source/basicplatform/block/mas_blk_dump.c:139:2
	mov	x0, x19
	ldp	x20, x19, [sp, #32]             // 16-byte Folded Reload
.Ltmp167:
	ldr	x21, [sp, #16]                  // 8-byte Folded Reload
.Ltmp168:
	//DEBUG_VALUE: mas_blk_io_type:flag <- [DW_OP_LLVM_entry_value 1] $x1
	ldp	x29, x30, [sp], #48             // 16-byte Folded Reload
	hint	#29
	ret
.Ltmp169:
.Lfunc_end2:
	.size	mas_blk_io_type, .Lfunc_end2-mas_blk_io_type
	.cfi_endproc
	.section	.rodata,"a",@progbits
.LJTI2_0:
	.byte	(.LBB2_2-.LBB2_2)>>2
	.byte	(.LBB2_3-.LBB2_2)>>2
	.byte	(.LBB2_4-.LBB2_2)>>2
	.byte	(.LBB2_5-.LBB2_2)>>2
	.byte	(.LBB2_10-.LBB2_2)>>2
	.byte	(.LBB2_6-.LBB2_2)>>2
	.byte	(.LBB2_10-.LBB2_2)>>2
	.byte	(.LBB2_7-.LBB2_2)>>2
                                        // -- End function
	.text
	.globl	mas_blk_dump_queue_status2      // -- Begin function mas_blk_dump_queue_status2
	.p2align	2
	.type	mas_blk_dump_queue_status2,@function
mas_blk_dump_queue_status2:             // @mas_blk_dump_queue_status2
.Lfunc_begin3:
	.loc	6 379 0                         // kernel/platform_source/basicplatform/block/mas_blk_dump.c:379:0
	.cfi_startproc
// %bb.0:
	//DEBUG_VALUE: mas_blk_dump_queue_status2:q <- $x0
	//DEBUG_VALUE: mas_blk_dump_queue_status2:buf <- $x1
	//DEBUG_VALUE: mas_blk_dump_queue_status2:len <- $w2
	hint	#25
	.cfi_negate_ra_state
	stp	x29, x30, [sp, #-96]!           // 16-byte Folded Spill
	str	x28, [sp, #16]                  // 8-byte Folded Spill
	stp	x26, x25, [sp, #32]             // 16-byte Folded Spill
	stp	x24, x23, [sp, #48]             // 16-byte Folded Spill
	stp	x22, x21, [sp, #64]             // 16-byte Folded Spill
	stp	x20, x19, [sp, #80]             // 16-byte Folded Spill
	mov	x29, sp
	sub	sp, sp, #528                    // =528
	.cfi_def_cfa w29, 96
	.cfi_offset w19, -8
	.cfi_offset w20, -16
	.cfi_offset w21, -24
	.cfi_offset w22, -32
	.cfi_offset w23, -40
	.cfi_offset w24, -48
	.cfi_offset w25, -56
	.cfi_offset w26, -64
	.cfi_offset w28, -80
	.cfi_offset w30, -88
	.cfi_offset w29, -96
.Ltmp170:
	.loc	6 346 8 prologue_end            // kernel/platform_source/basicplatform/block/mas_blk_dump.c:346:8
	adrp	x9, .L.str.22
	adrp	x8, __stack_chk_guard
	add	x9, x9, :lo12:.L.str.22
	ldr	x8, [x8, :lo12:__stack_chk_guard]
.Ltmp171:
	//DEBUG_VALUE: mas_blk_dump_queue_status2:len <- $w22
	//DEBUG_VALUE: mas_blk_dump_queue_status2:buf <- $x19
	//DEBUG_VALUE: mas_blk_dump_queue_status2:q <- $x21
	ldr	x10, [x9]
	ldur	x9, [x9, #7]
	mov	w22, w2
.Ltmp172:
	.loc	6 0 8 is_stmt 0                 // kernel/platform_source/basicplatform/block/mas_blk_dump.c:0:8
	mov	x19, x1
.Ltmp173:
	mov	x21, x0
.Ltmp174:
	stur	x8, [x29, #-8]
.Ltmp175:
	//DEBUG_VALUE: mas_blk_q_dump_header:len <- [DW_OP_LLVM_convert 32 5, DW_OP_LLVM_convert 64 5, DW_OP_stack_value] undef
	//DEBUG_VALUE: mas_blk_q_dump_header:buf <- $x19
	//DEBUG_VALUE: mas_blk_q_dump_header:q <- undef
	//DEBUG_VALUE: mas_blk_dump_queue_status2:offset <- 0
	.loc	6 346 8                         // kernel/platform_source/basicplatform/block/mas_blk_dump.c:346:8
	str	x10, [sp, #8]
	stur	x9, [sp, #15]
.Ltmp176:
	//DEBUG_VALUE: __mas_blk_dump_printf:offset <- 0
	//DEBUG_VALUE: __mas_blk_dump_printf:str <- undef
	//DEBUG_VALUE: __mas_blk_dump_printf:len <- undef
	//DEBUG_VALUE: __mas_blk_dump_printf:buf <- $x19
	.loc	6 333 10 is_stmt 1              // kernel/platform_source/basicplatform/block/mas_blk_dump.c:333:10
	cbz	x1, .LBB3_19
.Ltmp177:
// %bb.1:
	//DEBUG_VALUE: __mas_blk_dump_printf:buf <- $x19
	//DEBUG_VALUE: mas_blk_q_dump_header:buf <- $x19
	//DEBUG_VALUE: __mas_blk_dump_printf:offset <- 0
	//DEBUG_VALUE: mas_blk_dump_queue_status2:offset <- 0
	cmp	w22, #1                         // =1
	b.lt	.LBB3_19
.Ltmp178:
// %bb.2:
	//DEBUG_VALUE: __mas_blk_dump_printf:buf <- $x19
	//DEBUG_VALUE: mas_blk_q_dump_header:buf <- $x19
	//DEBUG_VALUE: __mas_blk_dump_printf:offset <- 0
	//DEBUG_VALUE: mas_blk_dump_queue_status2:offset <- 0
	.loc	6 334 13                        // kernel/platform_source/basicplatform/block/mas_blk_dump.c:334:13
	adrp	x2, .L.str.23
.Ltmp179:
	.loc	6 382 42                        // kernel/platform_source/basicplatform/block/mas_blk_dump.c:382:42
	mov	w1, w22
.Ltmp180:
	//DEBUG_VALUE: mas_blk_q_dump_header:len <- [DW_OP_LLVM_convert 32 5, DW_OP_LLVM_convert 64 5, DW_OP_stack_value] $w22
	.loc	6 334 13                        // kernel/platform_source/basicplatform/block/mas_blk_dump.c:334:13
	add	x2, x2, :lo12:.L.str.23
	add	x3, sp, #8                      // =8
	mov	x0, x19
	bl	snprintf
.Ltmp181:
	mov	w20, w0
.Ltmp182:
	//DEBUG_VALUE: __mas_blk_dump_printf:offset <- $w20
.LBB3_3:
	//DEBUG_VALUE: mas_blk_dump_queue_status2:offset <- 0
	//DEBUG_VALUE: mas_blk_dump_queue_status2:offset <- $w20
	//DEBUG_VALUE: __mas_blk_dump_printf:offset <- $w20
	.loc	6 356 19                        // kernel/platform_source/basicplatform/block/mas_blk_dump.c:356:19
	ldr	w8, [x21, #1324]
.Ltmp183:
	.loc	6 383 61                        // kernel/platform_source/basicplatform/block/mas_blk_dump.c:383:61
	sub	w22, w22, w20
.Ltmp184:
	//DEBUG_VALUE: mas_blk_q_dump_opt_features:offset <- 0
	//DEBUG_VALUE: mas_blk_q_dump_opt_features:len <- [DW_OP_LLVM_convert 32 5, DW_OP_LLVM_convert 64 5, DW_OP_stack_value] undef
	//DEBUG_VALUE: mas_blk_q_dump_opt_features:buf <- undef
	//DEBUG_VALUE: mas_blk_q_dump_opt_features:q <- $x21
	.loc	6 356 6                         // kernel/platform_source/basicplatform/block/mas_blk_dump.c:356:6
	cbz	w8, .LBB3_5
.Ltmp185:
// %bb.4:
	//DEBUG_VALUE: mas_blk_q_dump_opt_features:q <- $x21
	//DEBUG_VALUE: mas_blk_dump_queue_status2:offset <- $w20
	//DEBUG_VALUE: mas_blk_q_dump_opt_features:offset <- 0
	.loc	6 359 17                        // kernel/platform_source/basicplatform/block/mas_blk_dump.c:359:17
	ldr	w3, [x21, #1328]
	.loc	6 357 3                         // kernel/platform_source/basicplatform/block/mas_blk_dump.c:357:3
	adrp	x2, .L.str.25
	add	x2, x2, :lo12:.L.str.25
	add	x0, sp, #8                      // =8
	mov	w1, #512
	bl	snprintf
.Ltmp186:
	.loc	6 0 3 is_stmt 0                 // kernel/platform_source/basicplatform/block/mas_blk_dump.c:0:3
	b	.LBB3_6
.Ltmp187:
.LBB3_5:
	//DEBUG_VALUE: mas_blk_q_dump_opt_features:q <- $x21
	//DEBUG_VALUE: mas_blk_dump_queue_status2:offset <- $w20
	//DEBUG_VALUE: mas_blk_q_dump_opt_features:offset <- 0
	.loc	6 361 3 is_stmt 1               // kernel/platform_source/basicplatform/block/mas_blk_dump.c:361:3
	adrp	x8, .L.str.26
	add	x8, x8, :lo12:.L.str.26
	ldp	x9, x10, [x8]
	ldr	x11, [x8, #16]
	ldur	x8, [x8, #22]
	stp	x9, x10, [sp, #8]
	str	x11, [sp, #24]
	stur	x8, [sp, #30]
.Ltmp188:
.LBB3_6:
	//DEBUG_VALUE: mas_blk_q_dump_opt_features:q <- $x21
	//DEBUG_VALUE: mas_blk_dump_queue_status2:offset <- $w20
	//DEBUG_VALUE: mas_blk_q_dump_opt_features:offset <- 0
	.loc	6 333 10                        // kernel/platform_source/basicplatform/block/mas_blk_dump.c:333:10
	cmp	w22, #1                         // =1
.Ltmp189:
	//DEBUG_VALUE: __mas_blk_dump_printf:str <- [DW_OP_plus_uconst 8, DW_OP_stack_value] $sp
	//DEBUG_VALUE: __mas_blk_dump_printf:len <- undef
	.loc	6 0 10 is_stmt 0                // kernel/platform_source/basicplatform/block/mas_blk_dump.c:0:10
	add	x23, x19, w20, sxtw
.Ltmp190:
	//DEBUG_VALUE: __mas_blk_dump_printf:offset <- 0
	//DEBUG_VALUE: __mas_blk_dump_printf:buf <- $x23
	//DEBUG_VALUE: mas_blk_q_dump_opt_features:buf <- $x23
	.loc	6 333 10                        // kernel/platform_source/basicplatform/block/mas_blk_dump.c:333:10
	b.lt	.LBB3_20
.Ltmp191:
// %bb.7:
	//DEBUG_VALUE: mas_blk_q_dump_opt_features:buf <- $x23
	//DEBUG_VALUE: __mas_blk_dump_printf:buf <- $x23
	//DEBUG_VALUE: mas_blk_q_dump_opt_features:q <- $x21
	//DEBUG_VALUE: mas_blk_dump_queue_status2:offset <- $w20
	//DEBUG_VALUE: __mas_blk_dump_printf:str <- [DW_OP_plus_uconst 8, DW_OP_stack_value] $sp
	//DEBUG_VALUE: __mas_blk_dump_printf:offset <- 0
	//DEBUG_VALUE: mas_blk_q_dump_opt_features:offset <- 0
	//DEBUG_VALUE: __mas_blk_dump_printf:buf <- $x23
	cbz	x23, .LBB3_20
.Ltmp192:
// %bb.8:
	//DEBUG_VALUE: mas_blk_q_dump_opt_features:buf <- $x23
	//DEBUG_VALUE: __mas_blk_dump_printf:buf <- $x23
	//DEBUG_VALUE: mas_blk_q_dump_opt_features:q <- $x21
	//DEBUG_VALUE: mas_blk_dump_queue_status2:offset <- $w20
	//DEBUG_VALUE: __mas_blk_dump_printf:str <- [DW_OP_plus_uconst 8, DW_OP_stack_value] $sp
	//DEBUG_VALUE: __mas_blk_dump_printf:offset <- 0
	//DEBUG_VALUE: mas_blk_q_dump_opt_features:offset <- 0
	.loc	6 334 13 is_stmt 1              // kernel/platform_source/basicplatform/block/mas_blk_dump.c:334:13
	adrp	x2, .L.str.23
	add	x2, x2, :lo12:.L.str.23
	add	x3, sp, #8                      // =8
	mov	x0, x23
	mov	x1, x22
	bl	snprintf
.Ltmp193:
	mov	w24, w0
.Ltmp194:
	//DEBUG_VALUE: __mas_blk_dump_printf:offset <- $w24
.LBB3_9:
	//DEBUG_VALUE: mas_blk_q_dump_opt_features:buf <- $x23
	//DEBUG_VALUE: mas_blk_q_dump_opt_features:q <- $x21
	//DEBUG_VALUE: mas_blk_dump_queue_status2:offset <- $w20
	//DEBUG_VALUE: mas_blk_q_dump_opt_features:offset <- 0
	//DEBUG_VALUE: mas_blk_q_dump_opt_features:offset <- $w24
	//DEBUG_VALUE: __mas_blk_dump_printf:offset <- $w24
	.loc	6 366 16                        // kernel/platform_source/basicplatform/block/mas_blk_dump.c:366:16
	ldr	w8, [x21, #1320]
	.loc	6 366 3 is_stmt 0               // kernel/platform_source/basicplatform/block/mas_blk_dump.c:366:3
	adrp	x25, .L.str.28
	adrp	x26, .L.str.29
	add	x25, x25, :lo12:.L.str.28
	add	x26, x26, :lo12:.L.str.29
	cmp	w8, #0                          // =0
	.loc	6 365 8 is_stmt 1               // kernel/platform_source/basicplatform/block/mas_blk_dump.c:365:8
	adrp	x2, .L.str.27
	.loc	6 366 3                         // kernel/platform_source/basicplatform/block/mas_blk_dump.c:366:3
	csel	x3, x26, x25, eq
	.loc	6 365 8                         // kernel/platform_source/basicplatform/block/mas_blk_dump.c:365:8
	add	x2, x2, :lo12:.L.str.27
	add	x0, sp, #8                      // =8
	mov	w1, #512
	bl	snprintf
.Ltmp195:
	.loc	6 367 48                        // kernel/platform_source/basicplatform/block/mas_blk_dump.c:367:48
	sub	w8, w22, w24
.Ltmp196:
	//DEBUG_VALUE: __mas_blk_dump_printf:offset <- 0
	//DEBUG_VALUE: __mas_blk_dump_printf:buf <- undef
	//DEBUG_VALUE: __mas_blk_dump_printf:len <- $w8
	.loc	6 333 10                        // kernel/platform_source/basicplatform/block/mas_blk_dump.c:333:10
	cmp	w8, #1                          // =1
.Ltmp197:
	//DEBUG_VALUE: __mas_blk_dump_printf:str <- [DW_OP_plus_uconst 8, DW_OP_stack_value] $sp
	b.lt	.LBB3_21
.Ltmp198:
// %bb.10:
	//DEBUG_VALUE: mas_blk_q_dump_opt_features:buf <- $x23
	//DEBUG_VALUE: mas_blk_q_dump_opt_features:q <- $x21
	//DEBUG_VALUE: mas_blk_q_dump_opt_features:offset <- $w24
	//DEBUG_VALUE: mas_blk_dump_queue_status2:offset <- $w20
	//DEBUG_VALUE: __mas_blk_dump_printf:len <- $w8
	//DEBUG_VALUE: __mas_blk_dump_printf:str <- [DW_OP_plus_uconst 8, DW_OP_stack_value] $sp
	//DEBUG_VALUE: __mas_blk_dump_printf:offset <- 0
	.loc	6 0 0 is_stmt 0                 // kernel/platform_source/basicplatform/block/mas_blk_dump.c:0:0
	add	x0, x23, w24, sxtw
.Ltmp199:
	//DEBUG_VALUE: __mas_blk_dump_printf:buf <- $x0
	.loc	6 333 10                        // kernel/platform_source/basicplatform/block/mas_blk_dump.c:333:10
	cbz	x0, .LBB3_21
.Ltmp200:
// %bb.11:
	//DEBUG_VALUE: mas_blk_q_dump_opt_features:buf <- $x23
	//DEBUG_VALUE: mas_blk_q_dump_opt_features:q <- $x21
	//DEBUG_VALUE: __mas_blk_dump_printf:buf <- $x0
	//DEBUG_VALUE: mas_blk_q_dump_opt_features:offset <- $w24
	//DEBUG_VALUE: mas_blk_dump_queue_status2:offset <- $w20
	//DEBUG_VALUE: __mas_blk_dump_printf:len <- $w8
	//DEBUG_VALUE: __mas_blk_dump_printf:str <- [DW_OP_plus_uconst 8, DW_OP_stack_value] $sp
	//DEBUG_VALUE: __mas_blk_dump_printf:offset <- 0
	.loc	6 334 13 is_stmt 1              // kernel/platform_source/basicplatform/block/mas_blk_dump.c:334:13
	adrp	x2, .L.str.23
	.loc	6 334 27 is_stmt 0              // kernel/platform_source/basicplatform/block/mas_blk_dump.c:334:27
	mov	w1, w8
	.loc	6 334 13                        // kernel/platform_source/basicplatform/block/mas_blk_dump.c:334:13
	add	x2, x2, :lo12:.L.str.23
	add	x3, sp, #8                      // =8
	bl	snprintf
.Ltmp201:
	//DEBUG_VALUE: __mas_blk_dump_printf:offset <- $w0
.LBB3_12:
	//DEBUG_VALUE: mas_blk_q_dump_opt_features:buf <- $x23
	//DEBUG_VALUE: mas_blk_q_dump_opt_features:q <- $x21
	//DEBUG_VALUE: mas_blk_q_dump_opt_features:offset <- $w24
	//DEBUG_VALUE: mas_blk_dump_queue_status2:offset <- $w20
	//DEBUG_VALUE: __mas_blk_dump_printf:offset <- $w0
	.loc	6 371 6 is_stmt 1               // kernel/platform_source/basicplatform/block/mas_blk_dump.c:371:6
	ldr	w8, [x21, #1016]
	.loc	6 370 8                         // kernel/platform_source/basicplatform/block/mas_blk_dump.c:370:8
	adrp	x2, .L.str.30
	.loc	6 367 9                         // kernel/platform_source/basicplatform/block/mas_blk_dump.c:367:9
	add	w21, w0, w24
.Ltmp202:
	//DEBUG_VALUE: mas_blk_q_dump_opt_features:offset <- $w21
	.loc	6 370 8                         // kernel/platform_source/basicplatform/block/mas_blk_dump.c:370:8
	add	x2, x2, :lo12:.L.str.30
	.loc	6 371 3                         // kernel/platform_source/basicplatform/block/mas_blk_dump.c:371:3
	cmp	w8, #0                          // =0
	csel	x3, x26, x25, eq
	.loc	6 370 8                         // kernel/platform_source/basicplatform/block/mas_blk_dump.c:370:8
	add	x0, sp, #8                      // =8
	mov	w1, #512
	bl	snprintf
.Ltmp203:
	.loc	6 373 48                        // kernel/platform_source/basicplatform/block/mas_blk_dump.c:373:48
	sub	w8, w22, w21
.Ltmp204:
	//DEBUG_VALUE: __mas_blk_dump_printf:offset <- 0
	//DEBUG_VALUE: __mas_blk_dump_printf:buf <- undef
	//DEBUG_VALUE: __mas_blk_dump_printf:len <- $w8
	.loc	6 333 10                        // kernel/platform_source/basicplatform/block/mas_blk_dump.c:333:10
	cmp	w8, #1                          // =1
.Ltmp205:
	//DEBUG_VALUE: __mas_blk_dump_printf:str <- [DW_OP_plus_uconst 8, DW_OP_stack_value] $sp
	b.lt	.LBB3_22
.Ltmp206:
// %bb.13:
	//DEBUG_VALUE: mas_blk_q_dump_opt_features:buf <- $x23
	//DEBUG_VALUE: mas_blk_q_dump_opt_features:offset <- $w21
	//DEBUG_VALUE: mas_blk_dump_queue_status2:offset <- $w20
	//DEBUG_VALUE: __mas_blk_dump_printf:len <- $w8
	//DEBUG_VALUE: __mas_blk_dump_printf:str <- [DW_OP_plus_uconst 8, DW_OP_stack_value] $sp
	//DEBUG_VALUE: __mas_blk_dump_printf:offset <- 0
	.loc	6 0 0 is_stmt 0                 // kernel/platform_source/basicplatform/block/mas_blk_dump.c:0:0
	add	x0, x23, w21, sxtw
.Ltmp207:
	//DEBUG_VALUE: __mas_blk_dump_printf:buf <- $x0
	.loc	6 333 10                        // kernel/platform_source/basicplatform/block/mas_blk_dump.c:333:10
	cbz	x0, .LBB3_22
.Ltmp208:
// %bb.14:
	//DEBUG_VALUE: mas_blk_q_dump_opt_features:buf <- $x23
	//DEBUG_VALUE: __mas_blk_dump_printf:buf <- $x0
	//DEBUG_VALUE: mas_blk_q_dump_opt_features:offset <- $w21
	//DEBUG_VALUE: mas_blk_dump_queue_status2:offset <- $w20
	//DEBUG_VALUE: __mas_blk_dump_printf:len <- $w8
	//DEBUG_VALUE: __mas_blk_dump_printf:str <- [DW_OP_plus_uconst 8, DW_OP_stack_value] $sp
	//DEBUG_VALUE: __mas_blk_dump_printf:offset <- 0
	.loc	6 334 13 is_stmt 1              // kernel/platform_source/basicplatform/block/mas_blk_dump.c:334:13
	adrp	x2, .L.str.23
	.loc	6 334 27 is_stmt 0              // kernel/platform_source/basicplatform/block/mas_blk_dump.c:334:27
	mov	w1, w8
	.loc	6 334 13                        // kernel/platform_source/basicplatform/block/mas_blk_dump.c:334:13
	add	x2, x2, :lo12:.L.str.23
	add	x3, sp, #8                      // =8
	bl	snprintf
.Ltmp209:
	//DEBUG_VALUE: __mas_blk_dump_printf:offset <- $w0
.LBB3_15:
	//DEBUG_VALUE: mas_blk_q_dump_opt_features:buf <- $x23
	//DEBUG_VALUE: mas_blk_q_dump_opt_features:offset <- $w21
	//DEBUG_VALUE: mas_blk_dump_queue_status2:offset <- $w20
	//DEBUG_VALUE: mas_blk_q_dump_opt_features:offset <- undef
	//DEBUG_VALUE: __mas_blk_dump_printf:offset <- $w0
	.loc	6 373 9 is_stmt 1               // kernel/platform_source/basicplatform/block/mas_blk_dump.c:373:9
	add	w8, w21, w20
.Ltmp210:
	.loc	6 383 9                         // kernel/platform_source/basicplatform/block/mas_blk_dump.c:383:9
	add	w0, w8, w0
.Ltmp211:
	//DEBUG_VALUE: mas_blk_dump_queue_status2:offset <- $w0
	.loc	6 384 6                         // kernel/platform_source/basicplatform/block/mas_blk_dump.c:384:6
	cbz	x19, .LBB3_17
.Ltmp212:
// %bb.16:
	//DEBUG_VALUE: mas_blk_dump_queue_status2:offset <- $w0
	.loc	6 385 15                        // kernel/platform_source/basicplatform/block/mas_blk_dump.c:385:15
	strb	wzr, [x19, w0, sxtw]
.Ltmp213:
.LBB3_17:
	//DEBUG_VALUE: mas_blk_dump_queue_status2:offset <- $w0
	.loc	6 0 15 is_stmt 0                // kernel/platform_source/basicplatform/block/mas_blk_dump.c:0:15
	adrp	x9, __stack_chk_guard
	ldur	x8, [x29, #-8]
	ldr	x9, [x9, :lo12:__stack_chk_guard]
	cmp	x9, x8
	b.ne	.LBB3_23
.Ltmp214:
// %bb.18:
	//DEBUG_VALUE: mas_blk_dump_queue_status2:offset <- $w0
	.loc	6 387 2 is_stmt 1               // kernel/platform_source/basicplatform/block/mas_blk_dump.c:387:2
	add	sp, sp, #528                    // =528
	ldp	x20, x19, [sp, #80]             // 16-byte Folded Reload
	ldp	x22, x21, [sp, #64]             // 16-byte Folded Reload
	ldp	x24, x23, [sp, #48]             // 16-byte Folded Reload
	ldp	x26, x25, [sp, #32]             // 16-byte Folded Reload
	ldr	x28, [sp, #16]                  // 8-byte Folded Reload
	ldp	x29, x30, [sp], #96             // 16-byte Folded Reload
	hint	#29
	ret
.Ltmp215:
.LBB3_19:
	//DEBUG_VALUE: __mas_blk_dump_printf:buf <- $x19
	//DEBUG_VALUE: mas_blk_q_dump_header:buf <- $x19
	//DEBUG_VALUE: __mas_blk_dump_printf:offset <- 0
	//DEBUG_VALUE: mas_blk_dump_queue_status2:offset <- 0
	.loc	6 336 3                         // kernel/platform_source/basicplatform/block/mas_blk_dump.c:336:3
	adrp	x0, .L.str.24
	add	x0, x0, :lo12:.L.str.24
	add	x1, sp, #8                      // =8
	bl	printk
.Ltmp216:
	.loc	6 0 0 is_stmt 0                 // kernel/platform_source/basicplatform/block/mas_blk_dump.c:0:0
	mov	w20, wzr
	b	.LBB3_3
.Ltmp217:
.LBB3_20:
	//DEBUG_VALUE: mas_blk_q_dump_opt_features:buf <- $x23
	//DEBUG_VALUE: __mas_blk_dump_printf:buf <- $x23
	//DEBUG_VALUE: mas_blk_q_dump_opt_features:q <- $x21
	//DEBUG_VALUE: mas_blk_dump_queue_status2:offset <- $w20
	//DEBUG_VALUE: __mas_blk_dump_printf:str <- [DW_OP_plus_uconst 8, DW_OP_stack_value] $sp
	//DEBUG_VALUE: __mas_blk_dump_printf:offset <- 0
	//DEBUG_VALUE: mas_blk_q_dump_opt_features:offset <- 0
	.loc	6 336 3                         // kernel/platform_source/basicplatform/block/mas_blk_dump.c:336:3
	adrp	x0, .L.str.24
	add	x0, x0, :lo12:.L.str.24
	add	x1, sp, #8                      // =8
	bl	printk
.Ltmp218:
	.loc	6 0 0                           // kernel/platform_source/basicplatform/block/mas_blk_dump.c:0:0
	mov	w24, wzr
	b	.LBB3_9
.Ltmp219:
.LBB3_21:
	//DEBUG_VALUE: mas_blk_q_dump_opt_features:buf <- $x23
	//DEBUG_VALUE: mas_blk_q_dump_opt_features:q <- $x21
	//DEBUG_VALUE: mas_blk_q_dump_opt_features:offset <- $w24
	//DEBUG_VALUE: mas_blk_dump_queue_status2:offset <- $w20
	//DEBUG_VALUE: __mas_blk_dump_printf:len <- $w8
	//DEBUG_VALUE: __mas_blk_dump_printf:str <- [DW_OP_plus_uconst 8, DW_OP_stack_value] $sp
	//DEBUG_VALUE: __mas_blk_dump_printf:offset <- 0
	.loc	6 336 3                         // kernel/platform_source/basicplatform/block/mas_blk_dump.c:336:3
	adrp	x0, .L.str.24
	add	x0, x0, :lo12:.L.str.24
	add	x1, sp, #8                      // =8
	bl	printk
.Ltmp220:
	.loc	6 0 0                           // kernel/platform_source/basicplatform/block/mas_blk_dump.c:0:0
	mov	w0, wzr
	b	.LBB3_12
.Ltmp221:
.LBB3_22:
	//DEBUG_VALUE: mas_blk_q_dump_opt_features:buf <- $x23
	//DEBUG_VALUE: mas_blk_q_dump_opt_features:offset <- $w21
	//DEBUG_VALUE: mas_blk_dump_queue_status2:offset <- $w20
	//DEBUG_VALUE: __mas_blk_dump_printf:len <- $w8
	//DEBUG_VALUE: __mas_blk_dump_printf:str <- [DW_OP_plus_uconst 8, DW_OP_stack_value] $sp
	//DEBUG_VALUE: __mas_blk_dump_printf:offset <- 0
	.loc	6 336 3                         // kernel/platform_source/basicplatform/block/mas_blk_dump.c:336:3
	adrp	x0, .L.str.24
	add	x0, x0, :lo12:.L.str.24
	add	x1, sp, #8                      // =8
	bl	printk
.Ltmp222:
	.loc	6 0 0                           // kernel/platform_source/basicplatform/block/mas_blk_dump.c:0:0
	mov	w0, wzr
	b	.LBB3_15
.Ltmp223:
.LBB3_23:
	//DEBUG_VALUE: mas_blk_dump_queue_status2:offset <- $w0
	bl	__stack_chk_fail
.Ltmp224:
.Lfunc_end3:
	.size	mas_blk_dump_queue_status2, .Lfunc_end3-mas_blk_dump_queue_status2
	.cfi_endproc
                                        // -- End function
	.globl	mas_blk_dump_queue_status       // -- Begin function mas_blk_dump_queue_status
	.p2align	2
	.type	mas_blk_dump_queue_status,@function
mas_blk_dump_queue_status:              // @mas_blk_dump_queue_status
.Lfunc_begin4:
	.loc	6 395 0 is_stmt 1               // kernel/platform_source/basicplatform/block/mas_blk_dump.c:395:0
	.cfi_startproc
// %bb.0:
	//DEBUG_VALUE: mas_blk_dump_queue_status:q <- $x0
	//DEBUG_VALUE: mas_blk_dump_queue_status:s <- $w1
	//DEBUG_VALUE: mas_blk_prefix_str:s <- undef
	//DEBUG_VALUE: mas_blk_dump_queue_status:q <- $x0
	hint	#25
	.cfi_negate_ra_state
	stp	x29, x30, [sp, #-48]!           // 16-byte Folded Spill
	str	x21, [sp, #16]                  // 8-byte Folded Spill
	stp	x20, x19, [sp, #32]             // 16-byte Folded Spill
	mov	x29, sp
	.cfi_def_cfa w29, 48
	.cfi_offset w19, -8
	.cfi_offset w20, -16
	.cfi_offset w21, -32
	.cfi_offset w30, -40
	.cfi_offset w29, -48
.Ltmp225:
	//DEBUG_VALUE: mas_blk_dump_queue_status:prefix <- undef
	.loc	6 402 20 prologue_end           // kernel/platform_source/basicplatform/block/mas_blk_dump.c:402:20
	ldr	x8, [x0, #1176]
.Ltmp226:
	//DEBUG_VALUE: mas_blk_dump_queue_status:s <- $w1
	.loc	6 402 6 is_stmt 0               // kernel/platform_source/basicplatform/block/mas_blk_dump.c:402:6
	cbnz	x8, .LBB4_2
.Ltmp227:
.LBB4_1:
	.loc	6 433 1 is_stmt 1               // kernel/platform_source/basicplatform/block/mas_blk_dump.c:433:1
	ldp	x20, x19, [sp, #32]             // 16-byte Folded Reload
	ldr	x21, [sp, #16]                  // 8-byte Folded Reload
	ldp	x29, x30, [sp], #48             // 16-byte Folded Reload
	hint	#29
	ret
.LBB4_2:
.Ltmp228:
	//DEBUG_VALUE: mas_blk_dump_queue_status:q <- $x0
	//DEBUG_VALUE: mas_blk_dump_queue_status:s <- $w1
	.loc	22 2351 9                       // kernel/include/linux/blkdev.h:2351:9
	adrp	x9, .L.str.17
	adrp	x10, .L.str.16
	mov	w20, w1
.Ltmp229:
	//DEBUG_VALUE: mas_blk_dump_queue_status:s <- $w20
	add	x9, x9, :lo12:.L.str.17
	add	x10, x10, :lo12:.L.str.16
	cmp	w1, #1                          // =1
.Ltmp230:
	.loc	6 405 75                        // kernel/platform_source/basicplatform/block/mas_blk_dump.c:405:75
	add	x1, x8, #56                     // =56
	.loc	6 405 2 is_stmt 0               // kernel/platform_source/basicplatform/block/mas_blk_dump.c:405:2
	add	x2, x29, #24                    // =24
	mov	x19, x0
.Ltmp231:
	//DEBUG_VALUE: mas_blk_dump_queue_status:q <- $x19
	.loc	22 2351 9 is_stmt 1             // kernel/include/linux/blkdev.h:2351:9
	csel	x21, x10, x9, eq
.Ltmp232:
	//DEBUG_VALUE: mas_blk_dump_queue_status:prefix <- $x21
	.loc	6 405 2                         // kernel/platform_source/basicplatform/block/mas_blk_dump.c:405:2
	bl	blk_mq_in_flight_rw
.Ltmp233:
	.loc	6 407 2                         // kernel/platform_source/basicplatform/block/mas_blk_dump.c:407:2
	ldrb	w9, [x19, #1184]
	ldr	x8, [x19, #1176]
	ldp	w4, w5, [x29, #24]
	adrp	x10, .L.str.12
	adrp	x11, .L.str.13
	add	x10, x10, :lo12:.L.str.12
	add	x11, x11, :lo12:.L.str.13
	cmp	w9, #0                          // =0
	adrp	x0, .L.str.11
	add	x2, x8, #12                     // =12
	csel	x3, x11, x10, eq
	add	x0, x0, :lo12:.L.str.11
	mov	x1, x21
	bl	printk
.Ltmp234:
	.loc	22 2351 9                       // kernel/include/linux/blkdev.h:2351:9
	cmp	w20, #1                         // =1
.Ltmp235:
	.loc	6 427 6                         // kernel/platform_source/basicplatform/block/mas_blk_dump.c:427:6
	b.ne	.LBB4_4
.Ltmp236:
// %bb.3:
	//DEBUG_VALUE: mas_blk_dump_queue_status:prefix <- $x21
	//DEBUG_VALUE: mas_blk_dump_queue_status:q <- $x19
	//DEBUG_VALUE: mas_blk_dump_queue_status:s <- $w20
	.loc	6 428 3                         // kernel/platform_source/basicplatform/block/mas_blk_dump.c:428:3
	mov	x0, x19
	mov	x1, xzr
	mov	w2, wzr
	bl	mas_blk_dump_queue_status2
.Ltmp237:
.LBB4_4:
	//DEBUG_VALUE: mas_blk_dump_queue_status:prefix <- $x21
	//DEBUG_VALUE: mas_blk_dump_queue_status:q <- $x19
	//DEBUG_VALUE: mas_blk_dump_queue_status:s <- $w20
	.loc	6 430 9                         // kernel/platform_source/basicplatform/block/mas_blk_dump.c:430:9
	ldr	x8, [x19, #1440]
	.loc	6 430 23 is_stmt 0              // kernel/platform_source/basicplatform/block/mas_blk_dump.c:430:23
	cbz	x8, .LBB4_1
.Ltmp238:
// %bb.5:
	//DEBUG_VALUE: mas_blk_dump_queue_status:prefix <- $x21
	//DEBUG_VALUE: mas_blk_dump_queue_status:q <- $x19
	//DEBUG_VALUE: mas_blk_dump_queue_status:s <- $w20
	.loc	6 430 44                        // kernel/platform_source/basicplatform/block/mas_blk_dump.c:430:44
	ldr	x8, [x8, #168]
.Ltmp239:
	.loc	6 430 6                         // kernel/platform_source/basicplatform/block/mas_blk_dump.c:430:6
	cbz	x8, .LBB4_1
.Ltmp240:
// %bb.6:
	//DEBUG_VALUE: mas_blk_dump_queue_status:prefix <- $x21
	//DEBUG_VALUE: mas_blk_dump_queue_status:q <- $x19
	//DEBUG_VALUE: mas_blk_dump_queue_status:s <- $w20
	.loc	6 431 3 is_stmt 1               // kernel/platform_source/basicplatform/block/mas_blk_dump.c:431:3
	mov	x0, x19
	mov	w1, w20
	blr	x8
.Ltmp241:
	.loc	6 0 3 is_stmt 0                 // kernel/platform_source/basicplatform/block/mas_blk_dump.c:0:3
	b	.LBB4_1
.Ltmp242:
.Lfunc_end4:
	.size	mas_blk_dump_queue_status, .Lfunc_end4-mas_blk_dump_queue_status
	.cfi_endproc
                                        // -- End function
	.globl	mas_blk_dump_lld_status         // -- Begin function mas_blk_dump_lld_status
	.p2align	2
	.type	mas_blk_dump_lld_status,@function
mas_blk_dump_lld_status:                // @mas_blk_dump_lld_status
.Lfunc_begin5:
	.loc	6 733 0 is_stmt 1               // kernel/platform_source/basicplatform/block/mas_blk_dump.c:733:0
	.cfi_startproc
// %bb.0:
	//DEBUG_VALUE: mas_blk_dump_lld_status:lld <- $x0
	//DEBUG_VALUE: mas_blk_dump_lld_status:buf <- $x1
	//DEBUG_VALUE: mas_blk_dump_lld_status:len <- $w2
	hint	#25
	.cfi_negate_ra_state
	stp	x29, x30, [sp, #-96]!           // 16-byte Folded Spill
	stp	x28, x27, [sp, #16]             // 16-byte Folded Spill
	stp	x26, x25, [sp, #32]             // 16-byte Folded Spill
	stp	x24, x23, [sp, #48]             // 16-byte Folded Spill
	stp	x22, x21, [sp, #64]             // 16-byte Folded Spill
	stp	x20, x19, [sp, #80]             // 16-byte Folded Spill
	mov	x29, sp
	sub	sp, sp, #528                    // =528
	.cfi_def_cfa w29, 96
	.cfi_offset w19, -8
	.cfi_offset w20, -16
	.cfi_offset w21, -24
	.cfi_offset w22, -32
	.cfi_offset w23, -40
	.cfi_offset w24, -48
	.cfi_offset w25, -56
	.cfi_offset w26, -64
	.cfi_offset w27, -72
	.cfi_offset w28, -80
	.cfi_offset w30, -88
	.cfi_offset w29, -96
.Ltmp243:
	.loc	6 718 8 prologue_end            // kernel/platform_source/basicplatform/block/mas_blk_dump.c:718:8
	adrp	x9, .L.str.31
	adrp	x8, __stack_chk_guard
	add	x9, x9, :lo12:.L.str.31
	ldr	x8, [x8, :lo12:__stack_chk_guard]
.Ltmp244:
	//DEBUG_VALUE: mas_blk_dump_lld_status:len <- $w21
	//DEBUG_VALUE: mas_blk_dump_lld_status:buf <- $x19
	//DEBUG_VALUE: mas_blk_dump_lld_status:lld <- $x20
	ldr	x10, [x9]
	ldur	x9, [x9, #5]
	mov	w21, w2
.Ltmp245:
	.loc	6 0 8 is_stmt 0                 // kernel/platform_source/basicplatform/block/mas_blk_dump.c:0:8
	mov	x19, x1
.Ltmp246:
	mov	x20, x0
.Ltmp247:
	stur	x8, [x29, #-8]
.Ltmp248:
	//DEBUG_VALUE: mas_blk_lld_dump_header:offset <- 0
	//DEBUG_VALUE: mas_blk_lld_dump_header:len <- undef
	//DEBUG_VALUE: mas_blk_lld_dump_header:buf <- $x19
	//DEBUG_VALUE: mas_blk_lld_dump_header:lld <- undef
	//DEBUG_VALUE: mas_blk_dump_lld_status:offset <- 0
	.loc	6 718 8                         // kernel/platform_source/basicplatform/block/mas_blk_dump.c:718:8
	str	x10, [sp, #8]
	stur	x9, [sp, #13]
.Ltmp249:
	//DEBUG_VALUE: __mas_blk_dump_printf:offset <- 0
	//DEBUG_VALUE: __mas_blk_dump_printf:str <- undef
	//DEBUG_VALUE: __mas_blk_dump_printf:len <- undef
	//DEBUG_VALUE: __mas_blk_dump_printf:buf <- $x19
	.loc	6 333 10 is_stmt 1              // kernel/platform_source/basicplatform/block/mas_blk_dump.c:333:10
	cbz	x1, .LBB5_29
.Ltmp250:
// %bb.1:
	//DEBUG_VALUE: __mas_blk_dump_printf:buf <- $x19
	//DEBUG_VALUE: mas_blk_lld_dump_header:buf <- $x19
	//DEBUG_VALUE: __mas_blk_dump_printf:offset <- 0
	//DEBUG_VALUE: mas_blk_dump_lld_status:offset <- 0
	//DEBUG_VALUE: mas_blk_lld_dump_header:offset <- 0
	cmp	w21, #1                         // =1
	b.lt	.LBB5_29
.Ltmp251:
// %bb.2:
	//DEBUG_VALUE: __mas_blk_dump_printf:buf <- $x19
	//DEBUG_VALUE: mas_blk_lld_dump_header:buf <- $x19
	//DEBUG_VALUE: __mas_blk_dump_printf:offset <- 0
	//DEBUG_VALUE: mas_blk_dump_lld_status:offset <- 0
	//DEBUG_VALUE: mas_blk_lld_dump_header:offset <- 0
	.loc	6 334 13                        // kernel/platform_source/basicplatform/block/mas_blk_dump.c:334:13
	adrp	x2, .L.str.23
	.loc	6 334 27 is_stmt 0              // kernel/platform_source/basicplatform/block/mas_blk_dump.c:334:27
	mov	w1, w21
	.loc	6 334 13                        // kernel/platform_source/basicplatform/block/mas_blk_dump.c:334:13
	add	x2, x2, :lo12:.L.str.23
	add	x3, sp, #8                      // =8
	mov	x0, x19
	bl	snprintf
.Ltmp252:
	mov	w22, w0
.Ltmp253:
	//DEBUG_VALUE: __mas_blk_dump_printf:offset <- $w22
.LBB5_3:
	//DEBUG_VALUE: mas_blk_lld_dump_header:buf <- $x19
	//DEBUG_VALUE: mas_blk_dump_lld_status:offset <- 0
	//DEBUG_VALUE: mas_blk_lld_dump_header:offset <- 0
	//DEBUG_VALUE: mas_blk_lld_dump_header:offset <- $w22
	//DEBUG_VALUE: __mas_blk_dump_printf:offset <- $w22
	.loc	6 722 9 is_stmt 1               // kernel/platform_source/basicplatform/block/mas_blk_dump.c:722:9
	ldr	x8, [x20, #24]
	.loc	6 722 3 is_stmt 0               // kernel/platform_source/basicplatform/block/mas_blk_dump.c:722:3
	adrp	x24, .L.str.28
	adrp	x25, .L.str.29
	add	x24, x24, :lo12:.L.str.28
	add	x25, x25, :lo12:.L.str.29
	tst	x8, #0x1
	.loc	6 721 8 is_stmt 1               // kernel/platform_source/basicplatform/block/mas_blk_dump.c:721:8
	adrp	x2, .L.str.32
	.loc	6 722 3                         // kernel/platform_source/basicplatform/block/mas_blk_dump.c:722:3
	csel	x3, x25, x24, eq
	.loc	6 721 8                         // kernel/platform_source/basicplatform/block/mas_blk_dump.c:721:8
	add	x2, x2, :lo12:.L.str.32
	add	x0, sp, #8                      // =8
	mov	w1, #512
	bl	snprintf
.Ltmp254:
	.loc	6 724 52                        // kernel/platform_source/basicplatform/block/mas_blk_dump.c:724:52
	sub	w8, w21, w22
.Ltmp255:
	//DEBUG_VALUE: __mas_blk_dump_printf:offset <- 0
	//DEBUG_VALUE: __mas_blk_dump_printf:buf <- undef
	//DEBUG_VALUE: __mas_blk_dump_printf:len <- $w8
	.loc	6 333 10                        // kernel/platform_source/basicplatform/block/mas_blk_dump.c:333:10
	cmp	w8, #1                          // =1
.Ltmp256:
	//DEBUG_VALUE: __mas_blk_dump_printf:str <- [DW_OP_plus_uconst 8, DW_OP_stack_value] $sp
	b.lt	.LBB5_30
.Ltmp257:
// %bb.4:
	//DEBUG_VALUE: mas_blk_lld_dump_header:buf <- $x19
	//DEBUG_VALUE: mas_blk_lld_dump_header:offset <- $w22
	//DEBUG_VALUE: __mas_blk_dump_printf:len <- $w8
	//DEBUG_VALUE: __mas_blk_dump_printf:str <- [DW_OP_plus_uconst 8, DW_OP_stack_value] $sp
	//DEBUG_VALUE: __mas_blk_dump_printf:offset <- 0
	//DEBUG_VALUE: mas_blk_dump_lld_status:offset <- 0
	.loc	6 0 0 is_stmt 0                 // kernel/platform_source/basicplatform/block/mas_blk_dump.c:0:0
	add	x0, x19, w22, sxtw
.Ltmp258:
	//DEBUG_VALUE: __mas_blk_dump_printf:buf <- $x0
	.loc	6 333 10                        // kernel/platform_source/basicplatform/block/mas_blk_dump.c:333:10
	cbz	x0, .LBB5_30
.Ltmp259:
// %bb.5:
	//DEBUG_VALUE: mas_blk_lld_dump_header:buf <- $x19
	//DEBUG_VALUE: __mas_blk_dump_printf:buf <- $x0
	//DEBUG_VALUE: mas_blk_lld_dump_header:offset <- $w22
	//DEBUG_VALUE: __mas_blk_dump_printf:len <- $w8
	//DEBUG_VALUE: __mas_blk_dump_printf:str <- [DW_OP_plus_uconst 8, DW_OP_stack_value] $sp
	//DEBUG_VALUE: __mas_blk_dump_printf:offset <- 0
	//DEBUG_VALUE: mas_blk_dump_lld_status:offset <- 0
	.loc	6 334 13 is_stmt 1              // kernel/platform_source/basicplatform/block/mas_blk_dump.c:334:13
	adrp	x2, .L.str.23
	.loc	6 334 27 is_stmt 0              // kernel/platform_source/basicplatform/block/mas_blk_dump.c:334:27
	mov	w1, w8
	.loc	6 334 13                        // kernel/platform_source/basicplatform/block/mas_blk_dump.c:334:13
	add	x2, x2, :lo12:.L.str.23
	add	x3, sp, #8                      // =8
	bl	snprintf
.Ltmp260:
	//DEBUG_VALUE: __mas_blk_dump_printf:offset <- $w0
.LBB5_6:
	//DEBUG_VALUE: mas_blk_lld_dump_header:buf <- $x19
	//DEBUG_VALUE: mas_blk_lld_dump_header:offset <- $w22
	//DEBUG_VALUE: mas_blk_dump_lld_status:offset <- 0
	//DEBUG_VALUE: __mas_blk_dump_printf:offset <- $w0
	.loc	6 440 6 is_stmt 1               // kernel/platform_source/basicplatform/block/mas_blk_dump.c:440:6
	ldrb	w8, [x20, #24]
.Ltmp261:
	.loc	6 724 9                         // kernel/platform_source/basicplatform/block/mas_blk_dump.c:724:9
	add	w22, w0, w22
.Ltmp262:
	//DEBUG_VALUE: mas_blk_lld_dump_header:offset <- $w22
	//DEBUG_VALUE: mas_blk_dump_lld_status:offset <- $w22
	.loc	6 738 60                        // kernel/platform_source/basicplatform/block/mas_blk_dump.c:738:60
	sub	w23, w21, w22
.Ltmp263:
	//DEBUG_VALUE: mas_blk_lld_dump_latency:buf <- undef
	//DEBUG_VALUE: mas_blk_lld_dump_latency:lld <- $x20
	//DEBUG_VALUE: mas_blk_lld_dump_latency:len <- $w23
	.loc	6 440 6                         // kernel/platform_source/basicplatform/block/mas_blk_dump.c:440:6
	tbnz	w8, #1, .LBB5_8
.Ltmp264:
// %bb.7:
	//DEBUG_VALUE: mas_blk_lld_dump_latency:lld <- $x20
	//DEBUG_VALUE: mas_blk_lld_dump_latency:len <- $w23
	//DEBUG_VALUE: mas_blk_dump_lld_status:offset <- $w22
	.loc	6 445 3                         // kernel/platform_source/basicplatform/block/mas_blk_dump.c:445:3
	adrp	x9, .L.str.34
	add	x9, x9, :lo12:.L.str.34
	ldp	x10, x11, [x9]
	ldr	x9, [x9, #16]
	mov	w8, #25964
	movk	w8, #10, lsl #16
	stur	w8, [sp, #31]
	stp	x10, x11, [sp, #8]
	str	x9, [sp, #24]
.Ltmp265:
	//DEBUG_VALUE: mas_blk_lld_dump_latency:buf <- undef
	//DEBUG_VALUE: __mas_blk_dump_printf:buf <- undef
	//DEBUG_VALUE: __mas_blk_dump_printf:len <- $w23
	//DEBUG_VALUE: __mas_blk_dump_printf:offset <- 0
	.loc	6 333 10                        // kernel/platform_source/basicplatform/block/mas_blk_dump.c:333:10
	cmp	w23, #1                         // =1
.Ltmp266:
	//DEBUG_VALUE: __mas_blk_dump_printf:str <- [DW_OP_plus_uconst 8, DW_OP_stack_value] $sp
	b.ge	.LBB5_9
	b	.LBB5_31
.Ltmp267:
.LBB5_8:
	//DEBUG_VALUE: mas_blk_lld_dump_latency:lld <- $x20
	//DEBUG_VALUE: mas_blk_lld_dump_latency:len <- $w23
	//DEBUG_VALUE: mas_blk_dump_lld_status:offset <- $w22
	.loc	6 443 9                         // kernel/platform_source/basicplatform/block/mas_blk_dump.c:443:9
	ldr	w3, [x20, #48]
	.loc	6 441 3                         // kernel/platform_source/basicplatform/block/mas_blk_dump.c:441:3
	adrp	x2, .L.str.33
	add	x2, x2, :lo12:.L.str.33
	add	x0, sp, #8                      // =8
	mov	w1, #512
	bl	snprintf
.Ltmp268:
	//DEBUG_VALUE: mas_blk_lld_dump_latency:buf <- undef
	//DEBUG_VALUE: __mas_blk_dump_printf:buf <- undef
	//DEBUG_VALUE: __mas_blk_dump_printf:len <- $w23
	//DEBUG_VALUE: __mas_blk_dump_printf:offset <- 0
	.loc	6 333 10                        // kernel/platform_source/basicplatform/block/mas_blk_dump.c:333:10
	cmp	w23, #1                         // =1
.Ltmp269:
	//DEBUG_VALUE: __mas_blk_dump_printf:str <- [DW_OP_plus_uconst 8, DW_OP_stack_value] $sp
	b.lt	.LBB5_31
.Ltmp270:
.LBB5_9:
	//DEBUG_VALUE: mas_blk_lld_dump_latency:lld <- $x20
	//DEBUG_VALUE: __mas_blk_dump_printf:len <- $w23
	//DEBUG_VALUE: mas_blk_lld_dump_latency:len <- $w23
	//DEBUG_VALUE: mas_blk_dump_lld_status:offset <- $w22
	//DEBUG_VALUE: __mas_blk_dump_printf:str <- [DW_OP_plus_uconst 8, DW_OP_stack_value] $sp
	//DEBUG_VALUE: __mas_blk_dump_printf:offset <- 0
	.loc	6 0 0 is_stmt 0                 // kernel/platform_source/basicplatform/block/mas_blk_dump.c:0:0
	add	x0, x19, w22, sxtw
.Ltmp271:
	//DEBUG_VALUE: __mas_blk_dump_printf:buf <- $x0
	//DEBUG_VALUE: mas_blk_lld_dump_latency:buf <- $x0
	.loc	6 333 10                        // kernel/platform_source/basicplatform/block/mas_blk_dump.c:333:10
	cbz	x0, .LBB5_31
.Ltmp272:
// %bb.10:
	//DEBUG_VALUE: mas_blk_lld_dump_latency:lld <- $x20
	//DEBUG_VALUE: mas_blk_lld_dump_latency:buf <- $x0
	//DEBUG_VALUE: __mas_blk_dump_printf:buf <- $x0
	//DEBUG_VALUE: __mas_blk_dump_printf:len <- $w23
	//DEBUG_VALUE: mas_blk_lld_dump_latency:len <- $w23
	//DEBUG_VALUE: mas_blk_dump_lld_status:offset <- $w22
	//DEBUG_VALUE: __mas_blk_dump_printf:str <- [DW_OP_plus_uconst 8, DW_OP_stack_value] $sp
	//DEBUG_VALUE: __mas_blk_dump_printf:offset <- 0
	.loc	6 334 13 is_stmt 1              // kernel/platform_source/basicplatform/block/mas_blk_dump.c:334:13
	adrp	x2, .L.str.23
	.loc	6 334 27 is_stmt 0              // kernel/platform_source/basicplatform/block/mas_blk_dump.c:334:27
	mov	w1, w23
	.loc	6 334 13                        // kernel/platform_source/basicplatform/block/mas_blk_dump.c:334:13
	add	x2, x2, :lo12:.L.str.23
	add	x3, sp, #8                      // =8
	bl	snprintf
.Ltmp273:
	//DEBUG_VALUE: __mas_blk_dump_printf:offset <- $w0
.LBB5_11:
	//DEBUG_VALUE: mas_blk_dump_lld_status:offset <- $w22
	//DEBUG_VALUE: __mas_blk_dump_printf:offset <- $w0
	.loc	6 475 9 is_stmt 1               // kernel/platform_source/basicplatform/block/mas_blk_dump.c:475:9
	ldr	x8, [x20, #24]
	.loc	6 474 8                         // kernel/platform_source/basicplatform/block/mas_blk_dump.c:474:8
	adrp	x2, .L.str.35
.Ltmp274:
	.loc	6 738 9                         // kernel/platform_source/basicplatform/block/mas_blk_dump.c:738:9
	add	w26, w0, w22
.Ltmp275:
	//DEBUG_VALUE: mas_blk_dump_lld_status:offset <- $w26
	.loc	6 474 8                         // kernel/platform_source/basicplatform/block/mas_blk_dump.c:474:8
	add	x2, x2, :lo12:.L.str.35
	.loc	6 475 3                         // kernel/platform_source/basicplatform/block/mas_blk_dump.c:475:3
	tst	x8, #0x8
	csel	x3, x25, x24, eq
	.loc	6 474 8                         // kernel/platform_source/basicplatform/block/mas_blk_dump.c:474:8
	add	x0, sp, #8                      // =8
	mov	w1, #512
.Ltmp276:
	.loc	6 740 47                        // kernel/platform_source/basicplatform/block/mas_blk_dump.c:740:47
	add	x22, x19, w26, sxtw
	.loc	6 740 61 is_stmt 0              // kernel/platform_source/basicplatform/block/mas_blk_dump.c:740:61
	sub	w27, w21, w26
.Ltmp277:
	//DEBUG_VALUE: mas_blk_lld_dump_busyidle:offset <- 0
	//DEBUG_VALUE: mas_blk_lld_dump_busyidle:buf <- $x22
	//DEBUG_VALUE: mas_blk_lld_dump_busyidle:lld <- $x20
	//DEBUG_VALUE: mas_blk_lld_dump_busyidle:len <- $w27
	.loc	6 474 8 is_stmt 1               // kernel/platform_source/basicplatform/block/mas_blk_dump.c:474:8
	bl	snprintf
.Ltmp278:
	//DEBUG_VALUE: __mas_blk_dump_printf:offset <- 0
	//DEBUG_VALUE: __mas_blk_dump_printf:len <- $w27
	//DEBUG_VALUE: __mas_blk_dump_printf:buf <- $x22
	.loc	6 333 10                        // kernel/platform_source/basicplatform/block/mas_blk_dump.c:333:10
	cmp	w27, #1                         // =1
.Ltmp279:
	//DEBUG_VALUE: __mas_blk_dump_printf:str <- [DW_OP_plus_uconst 8, DW_OP_stack_value] $sp
	b.lt	.LBB5_32
.Ltmp280:
// %bb.12:
	//DEBUG_VALUE: __mas_blk_dump_printf:buf <- $x22
	//DEBUG_VALUE: mas_blk_lld_dump_busyidle:buf <- $x22
	//DEBUG_VALUE: mas_blk_lld_dump_busyidle:lld <- $x20
	//DEBUG_VALUE: __mas_blk_dump_printf:len <- $w27
	//DEBUG_VALUE: mas_blk_lld_dump_busyidle:len <- $w27
	//DEBUG_VALUE: mas_blk_dump_lld_status:offset <- $w26
	//DEBUG_VALUE: __mas_blk_dump_printf:str <- [DW_OP_plus_uconst 8, DW_OP_stack_value] $sp
	//DEBUG_VALUE: __mas_blk_dump_printf:offset <- 0
	//DEBUG_VALUE: mas_blk_lld_dump_busyidle:offset <- 0
	cbz	x22, .LBB5_32
.Ltmp281:
// %bb.13:
	//DEBUG_VALUE: __mas_blk_dump_printf:buf <- $x22
	//DEBUG_VALUE: mas_blk_lld_dump_busyidle:buf <- $x22
	//DEBUG_VALUE: mas_blk_lld_dump_busyidle:lld <- $x20
	//DEBUG_VALUE: __mas_blk_dump_printf:len <- $w27
	//DEBUG_VALUE: mas_blk_lld_dump_busyidle:len <- $w27
	//DEBUG_VALUE: mas_blk_dump_lld_status:offset <- $w26
	//DEBUG_VALUE: __mas_blk_dump_printf:str <- [DW_OP_plus_uconst 8, DW_OP_stack_value] $sp
	//DEBUG_VALUE: __mas_blk_dump_printf:offset <- 0
	//DEBUG_VALUE: mas_blk_lld_dump_busyidle:offset <- 0
	.loc	6 334 13                        // kernel/platform_source/basicplatform/block/mas_blk_dump.c:334:13
	adrp	x2, .L.str.23
	.loc	6 334 27 is_stmt 0              // kernel/platform_source/basicplatform/block/mas_blk_dump.c:334:27
	mov	w1, w27
	.loc	6 334 13                        // kernel/platform_source/basicplatform/block/mas_blk_dump.c:334:13
	add	x2, x2, :lo12:.L.str.23
	add	x3, sp, #8                      // =8
	mov	x0, x22
	bl	snprintf
.Ltmp282:
	mov	w23, w0
.Ltmp283:
	//DEBUG_VALUE: __mas_blk_dump_printf:offset <- $w23
.LBB5_14:
	//DEBUG_VALUE: mas_blk_lld_dump_busyidle:buf <- $x22
	//DEBUG_VALUE: mas_blk_lld_dump_busyidle:lld <- $x20
	//DEBUG_VALUE: mas_blk_lld_dump_busyidle:len <- $w27
	//DEBUG_VALUE: mas_blk_dump_lld_status:offset <- $w26
	//DEBUG_VALUE: mas_blk_lld_dump_busyidle:offset <- 0
	//DEBUG_VALUE: mas_blk_lld_dump_busyidle:offset <- $w23
	//DEBUG_VALUE: __mas_blk_dump_printf:offset <- $w23
	.loc	6 479 24 is_stmt 1              // kernel/platform_source/basicplatform/block/mas_blk_dump.c:479:24
	ldr	w8, [x20, #360]
	.loc	6 479 2 is_stmt 0               // kernel/platform_source/basicplatform/block/mas_blk_dump.c:479:2
	cmp	w8, #1                          // =1
	b.eq	.LBB5_17
.Ltmp284:
// %bb.15:
	//DEBUG_VALUE: mas_blk_lld_dump_busyidle:buf <- $x22
	//DEBUG_VALUE: mas_blk_lld_dump_busyidle:lld <- $x20
	//DEBUG_VALUE: mas_blk_lld_dump_busyidle:len <- $w27
	//DEBUG_VALUE: mas_blk_dump_lld_status:offset <- $w26
	//DEBUG_VALUE: mas_blk_lld_dump_busyidle:offset <- $w23
	cbnz	w8, .LBB5_25
.Ltmp285:
// %bb.16:
	//DEBUG_VALUE: mas_blk_lld_dump_busyidle:buf <- $x22
	//DEBUG_VALUE: mas_blk_lld_dump_busyidle:lld <- $x20
	//DEBUG_VALUE: mas_blk_lld_dump_busyidle:len <- $w27
	//DEBUG_VALUE: mas_blk_dump_lld_status:offset <- $w26
	//DEBUG_VALUE: mas_blk_lld_dump_busyidle:offset <- $w23
	.loc	6 481 9 is_stmt 1               // kernel/platform_source/basicplatform/block/mas_blk_dump.c:481:9
	adrp	x8, .L.str.36
	add	x8, x8, :lo12:.L.str.36
	b	.LBB5_18
.Ltmp286:
.LBB5_17:
	//DEBUG_VALUE: mas_blk_lld_dump_busyidle:buf <- $x22
	//DEBUG_VALUE: mas_blk_lld_dump_busyidle:lld <- $x20
	//DEBUG_VALUE: mas_blk_lld_dump_busyidle:len <- $w27
	//DEBUG_VALUE: mas_blk_dump_lld_status:offset <- $w26
	//DEBUG_VALUE: mas_blk_lld_dump_busyidle:offset <- $w23
	.loc	6 484 9                         // kernel/platform_source/basicplatform/block/mas_blk_dump.c:484:9
	adrp	x8, .L.str.37
	add	x8, x8, :lo12:.L.str.37
.Ltmp287:
.LBB5_18:
	//DEBUG_VALUE: mas_blk_lld_dump_busyidle:buf <- $x22
	//DEBUG_VALUE: mas_blk_lld_dump_busyidle:lld <- $x20
	//DEBUG_VALUE: mas_blk_lld_dump_busyidle:len <- $w27
	//DEBUG_VALUE: mas_blk_dump_lld_status:offset <- $w26
	//DEBUG_VALUE: mas_blk_lld_dump_busyidle:offset <- $w23
	.loc	6 0 0 is_stmt 0                 // kernel/platform_source/basicplatform/block/mas_blk_dump.c:0:0
	ldr	x9, [x8]
	ldur	x8, [x8, #6]
	str	x9, [sp, #8]
	stur	x8, [sp, #14]
.Ltmp288:
	.loc	6 489 52 is_stmt 1              // kernel/platform_source/basicplatform/block/mas_blk_dump.c:489:52
	sub	w8, w27, w23
.Ltmp289:
	//DEBUG_VALUE: __mas_blk_dump_printf:offset <- 0
	//DEBUG_VALUE: __mas_blk_dump_printf:buf <- undef
	//DEBUG_VALUE: __mas_blk_dump_printf:len <- $w8
	.loc	6 333 10                        // kernel/platform_source/basicplatform/block/mas_blk_dump.c:333:10
	cmp	w8, #1                          // =1
.Ltmp290:
	//DEBUG_VALUE: __mas_blk_dump_printf:str <- [DW_OP_plus_uconst 8, DW_OP_stack_value] $sp
	b.lt	.LBB5_55
.Ltmp291:
// %bb.19:
	//DEBUG_VALUE: mas_blk_lld_dump_busyidle:buf <- $x22
	//DEBUG_VALUE: mas_blk_lld_dump_busyidle:lld <- $x20
	//DEBUG_VALUE: mas_blk_lld_dump_busyidle:len <- $w27
	//DEBUG_VALUE: mas_blk_dump_lld_status:offset <- $w26
	//DEBUG_VALUE: mas_blk_lld_dump_busyidle:offset <- $w23
	//DEBUG_VALUE: __mas_blk_dump_printf:len <- $w8
	//DEBUG_VALUE: __mas_blk_dump_printf:str <- [DW_OP_plus_uconst 8, DW_OP_stack_value] $sp
	//DEBUG_VALUE: __mas_blk_dump_printf:offset <- 0
	.loc	6 0 0 is_stmt 0                 // kernel/platform_source/basicplatform/block/mas_blk_dump.c:0:0
	add	x0, x22, w23, sxtw
.Ltmp292:
	//DEBUG_VALUE: __mas_blk_dump_printf:buf <- $x0
	.loc	6 333 10                        // kernel/platform_source/basicplatform/block/mas_blk_dump.c:333:10
	cbz	x0, .LBB5_55
.Ltmp293:
// %bb.20:
	//DEBUG_VALUE: mas_blk_lld_dump_busyidle:buf <- $x22
	//DEBUG_VALUE: mas_blk_lld_dump_busyidle:lld <- $x20
	//DEBUG_VALUE: __mas_blk_dump_printf:buf <- $x0
	//DEBUG_VALUE: mas_blk_lld_dump_busyidle:len <- $w27
	//DEBUG_VALUE: mas_blk_dump_lld_status:offset <- $w26
	//DEBUG_VALUE: mas_blk_lld_dump_busyidle:offset <- $w23
	//DEBUG_VALUE: __mas_blk_dump_printf:len <- $w8
	//DEBUG_VALUE: __mas_blk_dump_printf:str <- [DW_OP_plus_uconst 8, DW_OP_stack_value] $sp
	//DEBUG_VALUE: __mas_blk_dump_printf:offset <- 0
	.loc	6 334 13 is_stmt 1              // kernel/platform_source/basicplatform/block/mas_blk_dump.c:334:13
	adrp	x2, .L.str.23
	.loc	6 334 27 is_stmt 0              // kernel/platform_source/basicplatform/block/mas_blk_dump.c:334:27
	mov	w1, w8
	.loc	6 334 13                        // kernel/platform_source/basicplatform/block/mas_blk_dump.c:334:13
	add	x2, x2, :lo12:.L.str.23
	add	x3, sp, #8                      // =8
	bl	snprintf
.Ltmp294:
	//DEBUG_VALUE: __mas_blk_dump_printf:offset <- $w0
.LBB5_21:
	//DEBUG_VALUE: mas_blk_lld_dump_busyidle:buf <- $x22
	//DEBUG_VALUE: mas_blk_lld_dump_busyidle:lld <- $x20
	//DEBUG_VALUE: mas_blk_lld_dump_busyidle:len <- $w27
	//DEBUG_VALUE: mas_blk_dump_lld_status:offset <- $w26
	//DEBUG_VALUE: mas_blk_lld_dump_busyidle:offset <- $w23
	//DEBUG_VALUE: __mas_blk_dump_printf:offset <- $w0
	.file	155 "/mnt/disk/jenkins/ci/workspace/chipset_pipeline_release/opensource/component_code/vendor/huawei/extra/build/build_script/kirin_kernel_release" "kernel/include/asm-generic/atomic-instrumented.h"
	.loc	155 28 9 is_stmt 1              // kernel/include/asm-generic/atomic-instrumented.h:28:9
	ldr	w3, [x20, #296]
.Ltmp295:
	.loc	6 491 8                         // kernel/platform_source/basicplatform/block/mas_blk_dump.c:491:8
	adrp	x2, .L.str.38
	.loc	6 489 9                         // kernel/platform_source/basicplatform/block/mas_blk_dump.c:489:9
	add	w23, w0, w23
.Ltmp296:
	//DEBUG_VALUE: atomic_read:v <- [DW_OP_plus_uconst 296, DW_OP_stack_value] $x20
	//DEBUG_VALUE: mas_blk_lld_dump_busyidle:offset <- $w23
	.loc	6 491 8                         // kernel/platform_source/basicplatform/block/mas_blk_dump.c:491:8
	add	x2, x2, :lo12:.L.str.38
	add	x0, sp, #8                      // =8
	mov	w1, #512
	bl	snprintf
.Ltmp297:
	.loc	6 493 52                        // kernel/platform_source/basicplatform/block/mas_blk_dump.c:493:52
	sub	w8, w27, w23
.Ltmp298:
	//DEBUG_VALUE: __mas_blk_dump_printf:offset <- 0
	//DEBUG_VALUE: __mas_blk_dump_printf:buf <- undef
	//DEBUG_VALUE: __mas_blk_dump_printf:len <- $w8
	.loc	6 333 10                        // kernel/platform_source/basicplatform/block/mas_blk_dump.c:333:10
	cmp	w8, #1                          // =1
.Ltmp299:
	//DEBUG_VALUE: __mas_blk_dump_printf:str <- [DW_OP_plus_uconst 8, DW_OP_stack_value] $sp
	b.lt	.LBB5_56
.Ltmp300:
// %bb.22:
	//DEBUG_VALUE: mas_blk_lld_dump_busyidle:buf <- $x22
	//DEBUG_VALUE: mas_blk_lld_dump_busyidle:lld <- $x20
	//DEBUG_VALUE: mas_blk_lld_dump_busyidle:len <- $w27
	//DEBUG_VALUE: mas_blk_dump_lld_status:offset <- $w26
	//DEBUG_VALUE: mas_blk_lld_dump_busyidle:offset <- $w23
	//DEBUG_VALUE: __mas_blk_dump_printf:len <- $w8
	//DEBUG_VALUE: __mas_blk_dump_printf:str <- [DW_OP_plus_uconst 8, DW_OP_stack_value] $sp
	//DEBUG_VALUE: __mas_blk_dump_printf:offset <- 0
	.loc	6 0 0 is_stmt 0                 // kernel/platform_source/basicplatform/block/mas_blk_dump.c:0:0
	add	x0, x22, w23, sxtw
.Ltmp301:
	//DEBUG_VALUE: __mas_blk_dump_printf:buf <- $x0
	.loc	6 333 10                        // kernel/platform_source/basicplatform/block/mas_blk_dump.c:333:10
	cbz	x0, .LBB5_56
.Ltmp302:
// %bb.23:
	//DEBUG_VALUE: mas_blk_lld_dump_busyidle:buf <- $x22
	//DEBUG_VALUE: mas_blk_lld_dump_busyidle:lld <- $x20
	//DEBUG_VALUE: __mas_blk_dump_printf:buf <- $x0
	//DEBUG_VALUE: mas_blk_lld_dump_busyidle:len <- $w27
	//DEBUG_VALUE: mas_blk_dump_lld_status:offset <- $w26
	//DEBUG_VALUE: mas_blk_lld_dump_busyidle:offset <- $w23
	//DEBUG_VALUE: __mas_blk_dump_printf:len <- $w8
	//DEBUG_VALUE: __mas_blk_dump_printf:str <- [DW_OP_plus_uconst 8, DW_OP_stack_value] $sp
	//DEBUG_VALUE: __mas_blk_dump_printf:offset <- 0
	.loc	6 334 13 is_stmt 1              // kernel/platform_source/basicplatform/block/mas_blk_dump.c:334:13
	adrp	x2, .L.str.23
	.loc	6 334 27 is_stmt 0              // kernel/platform_source/basicplatform/block/mas_blk_dump.c:334:27
	mov	w1, w8
	.loc	6 334 13                        // kernel/platform_source/basicplatform/block/mas_blk_dump.c:334:13
	add	x2, x2, :lo12:.L.str.23
	add	x3, sp, #8                      // =8
	bl	snprintf
.Ltmp303:
	//DEBUG_VALUE: __mas_blk_dump_printf:offset <- $w0
.LBB5_24:
	//DEBUG_VALUE: mas_blk_lld_dump_busyidle:buf <- $x22
	//DEBUG_VALUE: mas_blk_lld_dump_busyidle:lld <- $x20
	//DEBUG_VALUE: mas_blk_lld_dump_busyidle:len <- $w27
	//DEBUG_VALUE: mas_blk_dump_lld_status:offset <- $w26
	//DEBUG_VALUE: mas_blk_lld_dump_busyidle:offset <- $w23
	//DEBUG_VALUE: __mas_blk_dump_printf:offset <- $w0
	.loc	6 493 9 is_stmt 1               // kernel/platform_source/basicplatform/block/mas_blk_dump.c:493:9
	add	w23, w0, w23
.Ltmp304:
	//DEBUG_VALUE: mas_blk_lld_dump_busyidle:offset <- $w23
.LBB5_25:
	//DEBUG_VALUE: mas_blk_dump_lld_status:offset <- $w26
	.loc	6 456 8                         // kernel/platform_source/basicplatform/block/mas_blk_dump.c:456:8
	adrp	x8, .L.str.39
	add	x8, x8, :lo12:.L.str.39
	ldp	x9, x8, [x8]
.Ltmp305:
	.loc	6 740 9                         // kernel/platform_source/basicplatform/block/mas_blk_dump.c:740:9
	add	w26, w23, w26
.Ltmp306:
	//DEBUG_VALUE: mas_blk_dump_lld_status:offset <- $w26
	.loc	6 747 26                        // kernel/platform_source/basicplatform/block/mas_blk_dump.c:747:26
	sub	w27, w21, w26
.Ltmp307:
	//DEBUG_VALUE: mas_blk_lld_dump_ioscheduler:offset <- 0
	//DEBUG_VALUE: mas_blk_lld_dump_ioscheduler:buf <- $x22
	//DEBUG_VALUE: mas_blk_lld_dump_ioscheduler:lld <- $x20
	//DEBUG_VALUE: mas_blk_lld_dump_ioscheduler:len <- $w27
	.loc	6 747 12 is_stmt 0              // kernel/platform_source/basicplatform/block/mas_blk_dump.c:747:12
	add	x22, x19, w26, sxtw
.Ltmp308:
	.loc	6 333 10 is_stmt 1              // kernel/platform_source/basicplatform/block/mas_blk_dump.c:333:10
	cmp	w27, #1                         // =1
.Ltmp309:
	//DEBUG_VALUE: __mas_blk_dump_printf:str <- [DW_OP_plus_uconst 8, DW_OP_stack_value] $sp
	.loc	6 456 8                         // kernel/platform_source/basicplatform/block/mas_blk_dump.c:456:8
	stp	x9, x8, [sp, #8]
.Ltmp310:
	//DEBUG_VALUE: __mas_blk_dump_printf:offset <- 0
	//DEBUG_VALUE: __mas_blk_dump_printf:len <- $w27
	//DEBUG_VALUE: __mas_blk_dump_printf:buf <- $x22
	//DEBUG_VALUE: __mas_blk_dump_printf:str <- [DW_OP_plus_uconst 8, DW_OP_stack_value] $sp
	.loc	6 333 10                        // kernel/platform_source/basicplatform/block/mas_blk_dump.c:333:10
	b.lt	.LBB5_33
.Ltmp311:
// %bb.26:
	//DEBUG_VALUE: __mas_blk_dump_printf:buf <- $x22
	//DEBUG_VALUE: mas_blk_lld_dump_ioscheduler:lld <- $x20
	//DEBUG_VALUE: __mas_blk_dump_printf:len <- $w27
	//DEBUG_VALUE: mas_blk_lld_dump_ioscheduler:len <- $w27
	//DEBUG_VALUE: mas_blk_dump_lld_status:offset <- $w26
	//DEBUG_VALUE: __mas_blk_dump_printf:str <- [DW_OP_plus_uconst 8, DW_OP_stack_value] $sp
	//DEBUG_VALUE: __mas_blk_dump_printf:offset <- 0
	//DEBUG_VALUE: mas_blk_lld_dump_ioscheduler:offset <- 0
	cbz	x22, .LBB5_33
.Ltmp312:
// %bb.27:
	//DEBUG_VALUE: __mas_blk_dump_printf:buf <- $x22
	//DEBUG_VALUE: mas_blk_lld_dump_ioscheduler:lld <- $x20
	//DEBUG_VALUE: __mas_blk_dump_printf:len <- $w27
	//DEBUG_VALUE: mas_blk_lld_dump_ioscheduler:len <- $w27
	//DEBUG_VALUE: mas_blk_dump_lld_status:offset <- $w26
	//DEBUG_VALUE: __mas_blk_dump_printf:str <- [DW_OP_plus_uconst 8, DW_OP_stack_value] $sp
	//DEBUG_VALUE: __mas_blk_dump_printf:offset <- 0
	//DEBUG_VALUE: mas_blk_lld_dump_ioscheduler:offset <- 0
	.loc	6 334 13                        // kernel/platform_source/basicplatform/block/mas_blk_dump.c:334:13
	adrp	x2, .L.str.23
	.loc	6 334 27 is_stmt 0              // kernel/platform_source/basicplatform/block/mas_blk_dump.c:334:27
	mov	w1, w27
	.loc	6 334 13                        // kernel/platform_source/basicplatform/block/mas_blk_dump.c:334:13
	add	x2, x2, :lo12:.L.str.23
	add	x3, sp, #8                      // =8
	mov	x0, x22
	bl	snprintf
.Ltmp313:
	mov	w23, w0
.Ltmp314:
	//DEBUG_VALUE: __mas_blk_dump_printf:offset <- $w23
	//DEBUG_VALUE: mas_blk_lld_dump_ioscheduler:offset <- $w23
	//DEBUG_VALUE: __mas_blk_dump_printf:offset <- $w23
	.loc	6 459 6 is_stmt 1               // kernel/platform_source/basicplatform/block/mas_blk_dump.c:459:6
	ldrb	w8, [x20, #24]
	tbnz	w8, #4, .LBB5_34
.Ltmp315:
.LBB5_28:
	//DEBUG_VALUE: mas_blk_lld_dump_ioscheduler:lld <- $x20
	//DEBUG_VALUE: mas_blk_lld_dump_ioscheduler:len <- $w27
	//DEBUG_VALUE: mas_blk_dump_lld_status:offset <- $w26
	//DEBUG_VALUE: mas_blk_lld_dump_ioscheduler:offset <- $w23
	.loc	6 462 9                         // kernel/platform_source/basicplatform/block/mas_blk_dump.c:462:9
	adrp	x8, .L.str.41
	add	x8, x8, :lo12:.L.str.41
	ldp	x9, x8, [x8]
	mov	w10, #29285
	movk	w10, #10, lsl #16
	stur	w10, [sp, #23]
	stp	x9, x8, [sp, #8]
	b	.LBB5_35
.Ltmp316:
.LBB5_29:
	//DEBUG_VALUE: __mas_blk_dump_printf:buf <- $x19
	//DEBUG_VALUE: mas_blk_lld_dump_header:buf <- $x19
	//DEBUG_VALUE: __mas_blk_dump_printf:offset <- 0
	//DEBUG_VALUE: mas_blk_dump_lld_status:offset <- 0
	//DEBUG_VALUE: mas_blk_lld_dump_header:offset <- 0
	.loc	6 336 3                         // kernel/platform_source/basicplatform/block/mas_blk_dump.c:336:3
	adrp	x0, .L.str.24
	add	x0, x0, :lo12:.L.str.24
	add	x1, sp, #8                      // =8
	bl	printk
.Ltmp317:
	.loc	6 0 0 is_stmt 0                 // kernel/platform_source/basicplatform/block/mas_blk_dump.c:0:0
	mov	w22, wzr
	b	.LBB5_3
.Ltmp318:
.LBB5_30:
	//DEBUG_VALUE: mas_blk_lld_dump_header:buf <- $x19
	//DEBUG_VALUE: mas_blk_lld_dump_header:offset <- $w22
	//DEBUG_VALUE: __mas_blk_dump_printf:len <- $w8
	//DEBUG_VALUE: __mas_blk_dump_printf:str <- [DW_OP_plus_uconst 8, DW_OP_stack_value] $sp
	//DEBUG_VALUE: __mas_blk_dump_printf:offset <- 0
	//DEBUG_VALUE: mas_blk_dump_lld_status:offset <- 0
	.loc	6 336 3                         // kernel/platform_source/basicplatform/block/mas_blk_dump.c:336:3
	adrp	x0, .L.str.24
	add	x0, x0, :lo12:.L.str.24
	add	x1, sp, #8                      // =8
	bl	printk
.Ltmp319:
	.loc	6 0 0                           // kernel/platform_source/basicplatform/block/mas_blk_dump.c:0:0
	mov	w0, wzr
	b	.LBB5_6
.Ltmp320:
.LBB5_31:
	//DEBUG_VALUE: mas_blk_lld_dump_latency:lld <- $x20
	//DEBUG_VALUE: __mas_blk_dump_printf:len <- $w23
	//DEBUG_VALUE: mas_blk_lld_dump_latency:len <- $w23
	//DEBUG_VALUE: mas_blk_dump_lld_status:offset <- $w22
	//DEBUG_VALUE: __mas_blk_dump_printf:str <- [DW_OP_plus_uconst 8, DW_OP_stack_value] $sp
	//DEBUG_VALUE: __mas_blk_dump_printf:offset <- 0
	.loc	6 336 3                         // kernel/platform_source/basicplatform/block/mas_blk_dump.c:336:3
	adrp	x0, .L.str.24
	add	x0, x0, :lo12:.L.str.24
	add	x1, sp, #8                      // =8
	bl	printk
.Ltmp321:
	.loc	6 0 0                           // kernel/platform_source/basicplatform/block/mas_blk_dump.c:0:0
	mov	w0, wzr
	b	.LBB5_11
.Ltmp322:
.LBB5_32:
	//DEBUG_VALUE: __mas_blk_dump_printf:buf <- $x22
	//DEBUG_VALUE: mas_blk_lld_dump_busyidle:buf <- $x22
	//DEBUG_VALUE: mas_blk_lld_dump_busyidle:lld <- $x20
	//DEBUG_VALUE: __mas_blk_dump_printf:len <- $w27
	//DEBUG_VALUE: mas_blk_lld_dump_busyidle:len <- $w27
	//DEBUG_VALUE: mas_blk_dump_lld_status:offset <- $w26
	//DEBUG_VALUE: __mas_blk_dump_printf:str <- [DW_OP_plus_uconst 8, DW_OP_stack_value] $sp
	//DEBUG_VALUE: __mas_blk_dump_printf:offset <- 0
	//DEBUG_VALUE: mas_blk_lld_dump_busyidle:offset <- 0
	.loc	6 336 3                         // kernel/platform_source/basicplatform/block/mas_blk_dump.c:336:3
	adrp	x0, .L.str.24
	add	x0, x0, :lo12:.L.str.24
	add	x1, sp, #8                      // =8
	bl	printk
.Ltmp323:
	.loc	6 0 0                           // kernel/platform_source/basicplatform/block/mas_blk_dump.c:0:0
	mov	w23, wzr
	b	.LBB5_14
.Ltmp324:
.LBB5_33:
	//DEBUG_VALUE: __mas_blk_dump_printf:buf <- $x22
	//DEBUG_VALUE: mas_blk_lld_dump_ioscheduler:lld <- $x20
	//DEBUG_VALUE: __mas_blk_dump_printf:len <- $w27
	//DEBUG_VALUE: mas_blk_lld_dump_ioscheduler:len <- $w27
	//DEBUG_VALUE: mas_blk_dump_lld_status:offset <- $w26
	//DEBUG_VALUE: __mas_blk_dump_printf:str <- [DW_OP_plus_uconst 8, DW_OP_stack_value] $sp
	//DEBUG_VALUE: __mas_blk_dump_printf:offset <- 0
	//DEBUG_VALUE: mas_blk_lld_dump_ioscheduler:offset <- 0
	.loc	6 336 3                         // kernel/platform_source/basicplatform/block/mas_blk_dump.c:336:3
	adrp	x0, .L.str.24
	add	x0, x0, :lo12:.L.str.24
	add	x1, sp, #8                      // =8
	bl	printk
.Ltmp325:
	.loc	6 0 0                           // kernel/platform_source/basicplatform/block/mas_blk_dump.c:0:0
	mov	w23, wzr
.Ltmp326:
	//DEBUG_VALUE: mas_blk_lld_dump_ioscheduler:offset <- $w23
	//DEBUG_VALUE: __mas_blk_dump_printf:offset <- $w23
	.loc	6 459 6 is_stmt 1               // kernel/platform_source/basicplatform/block/mas_blk_dump.c:459:6
	ldrb	w8, [x20, #24]
	tbz	w8, #4, .LBB5_28
.Ltmp327:
.LBB5_34:
	//DEBUG_VALUE: mas_blk_lld_dump_ioscheduler:lld <- $x20
	//DEBUG_VALUE: mas_blk_lld_dump_ioscheduler:len <- $w27
	//DEBUG_VALUE: mas_blk_dump_lld_status:offset <- $w26
	//DEBUG_VALUE: mas_blk_lld_dump_ioscheduler:offset <- $w23
	.loc	6 0 6 is_stmt 0                 // kernel/platform_source/basicplatform/block/mas_blk_dump.c:0:6
	mov	x8, #16717
	movk	x8, #8275, lsl #16
	movk	x8, #20813, lsl #32
	movk	x8, #10, lsl #48
.Ltmp328:
	.loc	6 460 9 is_stmt 1               // kernel/platform_source/basicplatform/block/mas_blk_dump.c:460:9
	str	x8, [sp, #8]
.Ltmp329:
.LBB5_35:
	//DEBUG_VALUE: mas_blk_lld_dump_ioscheduler:lld <- $x20
	//DEBUG_VALUE: mas_blk_lld_dump_ioscheduler:len <- $w27
	//DEBUG_VALUE: mas_blk_dump_lld_status:offset <- $w26
	//DEBUG_VALUE: mas_blk_lld_dump_ioscheduler:offset <- $w23
	.loc	6 463 52                        // kernel/platform_source/basicplatform/block/mas_blk_dump.c:463:52
	sub	w8, w27, w23
.Ltmp330:
	//DEBUG_VALUE: __mas_blk_dump_printf:offset <- 0
	//DEBUG_VALUE: __mas_blk_dump_printf:buf <- undef
	//DEBUG_VALUE: __mas_blk_dump_printf:len <- $w8
	.loc	6 333 10                        // kernel/platform_source/basicplatform/block/mas_blk_dump.c:333:10
	cmp	w8, #1                          // =1
.Ltmp331:
	//DEBUG_VALUE: __mas_blk_dump_printf:str <- [DW_OP_plus_uconst 8, DW_OP_stack_value] $sp
	b.lt	.LBB5_51
.Ltmp332:
// %bb.36:
	//DEBUG_VALUE: mas_blk_lld_dump_ioscheduler:lld <- $x20
	//DEBUG_VALUE: mas_blk_lld_dump_ioscheduler:len <- $w27
	//DEBUG_VALUE: mas_blk_dump_lld_status:offset <- $w26
	//DEBUG_VALUE: mas_blk_lld_dump_ioscheduler:offset <- $w23
	//DEBUG_VALUE: __mas_blk_dump_printf:len <- $w8
	//DEBUG_VALUE: __mas_blk_dump_printf:str <- [DW_OP_plus_uconst 8, DW_OP_stack_value] $sp
	//DEBUG_VALUE: __mas_blk_dump_printf:offset <- 0
	.loc	6 0 0 is_stmt 0                 // kernel/platform_source/basicplatform/block/mas_blk_dump.c:0:0
	add	x0, x22, w23, sxtw
.Ltmp333:
	//DEBUG_VALUE: __mas_blk_dump_printf:buf <- $x0
	.loc	6 333 10                        // kernel/platform_source/basicplatform/block/mas_blk_dump.c:333:10
	cbz	x0, .LBB5_51
.Ltmp334:
// %bb.37:
	//DEBUG_VALUE: mas_blk_lld_dump_ioscheduler:lld <- $x20
	//DEBUG_VALUE: __mas_blk_dump_printf:buf <- $x0
	//DEBUG_VALUE: mas_blk_lld_dump_ioscheduler:len <- $w27
	//DEBUG_VALUE: mas_blk_dump_lld_status:offset <- $w26
	//DEBUG_VALUE: mas_blk_lld_dump_ioscheduler:offset <- $w23
	//DEBUG_VALUE: __mas_blk_dump_printf:len <- $w8
	//DEBUG_VALUE: __mas_blk_dump_printf:str <- [DW_OP_plus_uconst 8, DW_OP_stack_value] $sp
	//DEBUG_VALUE: __mas_blk_dump_printf:offset <- 0
	.loc	6 334 13 is_stmt 1              // kernel/platform_source/basicplatform/block/mas_blk_dump.c:334:13
	adrp	x2, .L.str.23
	.loc	6 334 27 is_stmt 0              // kernel/platform_source/basicplatform/block/mas_blk_dump.c:334:27
	mov	w1, w8
	.loc	6 334 13                        // kernel/platform_source/basicplatform/block/mas_blk_dump.c:334:13
	add	x2, x2, :lo12:.L.str.23
	add	x3, sp, #8                      // =8
	bl	snprintf
.Ltmp335:
	//DEBUG_VALUE: __mas_blk_dump_printf:offset <- $w0
.LBB5_38:
	//DEBUG_VALUE: mas_blk_lld_dump_ioscheduler:lld <- $x20
	//DEBUG_VALUE: mas_blk_lld_dump_ioscheduler:len <- $w27
	//DEBUG_VALUE: mas_blk_dump_lld_status:offset <- $w26
	//DEBUG_VALUE: mas_blk_lld_dump_ioscheduler:offset <- $w23
	//DEBUG_VALUE: mas_blk_lld_dump_ioscheduler:offset <- undef
	//DEBUG_VALUE: __mas_blk_dump_printf:offset <- $w0
	.loc	6 692 10 is_stmt 1              // kernel/platform_source/basicplatform/block/mas_blk_dump.c:692:10
	ldr	x9, [x20, #24]
.Ltmp336:
	.loc	6 463 9                         // kernel/platform_source/basicplatform/block/mas_blk_dump.c:463:9
	add	w8, w23, w26
.Ltmp337:
	.loc	6 691 8                         // kernel/platform_source/basicplatform/block/mas_blk_dump.c:691:8
	adrp	x2, .L.str.27
.Ltmp338:
	.loc	6 746 9                         // kernel/platform_source/basicplatform/block/mas_blk_dump.c:746:9
	add	w23, w8, w0
.Ltmp339:
	//DEBUG_VALUE: mas_blk_dump_lld_status:offset <- $w23
	.loc	6 692 4                         // kernel/platform_source/basicplatform/block/mas_blk_dump.c:692:4
	tst	x9, #0x4
	csel	x3, x25, x24, eq
	.loc	6 691 8                         // kernel/platform_source/basicplatform/block/mas_blk_dump.c:691:8
	add	x2, x2, :lo12:.L.str.27
	add	x0, sp, #8                      // =8
	mov	w1, #512
.Ltmp340:
	.loc	6 749 12                        // kernel/platform_source/basicplatform/block/mas_blk_dump.c:749:12
	add	x22, x19, w23, sxtw
	.loc	6 749 26 is_stmt 0              // kernel/platform_source/basicplatform/block/mas_blk_dump.c:749:26
	sub	w26, w21, w23
.Ltmp341:
	//DEBUG_VALUE: mas_blk_lld_dump_opt_feature:offset <- 0
	//DEBUG_VALUE: mas_blk_lld_dump_opt_feature:buf <- $x22
	//DEBUG_VALUE: mas_blk_lld_dump_opt_feature:lld <- $x20
	//DEBUG_VALUE: mas_blk_lld_dump_opt_feature:len <- $w26
	.loc	6 691 8 is_stmt 1               // kernel/platform_source/basicplatform/block/mas_blk_dump.c:691:8
	bl	snprintf
.Ltmp342:
	//DEBUG_VALUE: __mas_blk_dump_printf:offset <- 0
	//DEBUG_VALUE: __mas_blk_dump_printf:len <- $w26
	//DEBUG_VALUE: __mas_blk_dump_printf:buf <- $x22
	.loc	6 333 10                        // kernel/platform_source/basicplatform/block/mas_blk_dump.c:333:10
	cmp	w26, #1                         // =1
.Ltmp343:
	//DEBUG_VALUE: __mas_blk_dump_printf:str <- [DW_OP_plus_uconst 8, DW_OP_stack_value] $sp
	b.lt	.LBB5_52
.Ltmp344:
// %bb.39:
	//DEBUG_VALUE: __mas_blk_dump_printf:buf <- $x22
	//DEBUG_VALUE: mas_blk_lld_dump_opt_feature:buf <- $x22
	//DEBUG_VALUE: mas_blk_lld_dump_opt_feature:lld <- $x20
	//DEBUG_VALUE: __mas_blk_dump_printf:len <- $w26
	//DEBUG_VALUE: mas_blk_lld_dump_opt_feature:len <- $w26
	//DEBUG_VALUE: mas_blk_dump_lld_status:offset <- $w23
	//DEBUG_VALUE: __mas_blk_dump_printf:str <- [DW_OP_plus_uconst 8, DW_OP_stack_value] $sp
	//DEBUG_VALUE: __mas_blk_dump_printf:offset <- 0
	//DEBUG_VALUE: mas_blk_lld_dump_opt_feature:offset <- 0
	cbz	x22, .LBB5_52
.Ltmp345:
// %bb.40:
	//DEBUG_VALUE: __mas_blk_dump_printf:buf <- $x22
	//DEBUG_VALUE: mas_blk_lld_dump_opt_feature:buf <- $x22
	//DEBUG_VALUE: mas_blk_lld_dump_opt_feature:lld <- $x20
	//DEBUG_VALUE: __mas_blk_dump_printf:len <- $w26
	//DEBUG_VALUE: mas_blk_lld_dump_opt_feature:len <- $w26
	//DEBUG_VALUE: mas_blk_dump_lld_status:offset <- $w23
	//DEBUG_VALUE: __mas_blk_dump_printf:str <- [DW_OP_plus_uconst 8, DW_OP_stack_value] $sp
	//DEBUG_VALUE: __mas_blk_dump_printf:offset <- 0
	//DEBUG_VALUE: mas_blk_lld_dump_opt_feature:offset <- 0
	.loc	6 334 13                        // kernel/platform_source/basicplatform/block/mas_blk_dump.c:334:13
	adrp	x2, .L.str.23
	.loc	6 334 27 is_stmt 0              // kernel/platform_source/basicplatform/block/mas_blk_dump.c:334:27
	mov	w1, w26
	.loc	6 334 13                        // kernel/platform_source/basicplatform/block/mas_blk_dump.c:334:13
	add	x2, x2, :lo12:.L.str.23
	add	x3, sp, #8                      // =8
	mov	x0, x22
	bl	snprintf
.Ltmp346:
	mov	w21, w0
.Ltmp347:
	//DEBUG_VALUE: __mas_blk_dump_printf:offset <- $w21
.LBB5_41:
	//DEBUG_VALUE: mas_blk_lld_dump_opt_feature:buf <- $x22
	//DEBUG_VALUE: mas_blk_lld_dump_opt_feature:lld <- $x20
	//DEBUG_VALUE: mas_blk_lld_dump_opt_feature:len <- $w26
	//DEBUG_VALUE: mas_blk_dump_lld_status:offset <- $w23
	//DEBUG_VALUE: mas_blk_lld_dump_opt_feature:offset <- 0
	//DEBUG_VALUE: mas_blk_lld_dump_opt_feature:offset <- $w21
	//DEBUG_VALUE: __mas_blk_dump_printf:offset <- $w21
	.loc	6 697 9 is_stmt 1               // kernel/platform_source/basicplatform/block/mas_blk_dump.c:697:9
	ldr	x8, [x20, #24]
	.loc	6 696 8                         // kernel/platform_source/basicplatform/block/mas_blk_dump.c:696:8
	adrp	x2, .L.str.42
	add	x2, x2, :lo12:.L.str.42
	add	x0, sp, #8                      // =8
	.loc	6 697 3                         // kernel/platform_source/basicplatform/block/mas_blk_dump.c:697:3
	tst	x8, #0x40
	csel	x3, x25, x24, eq
	.loc	6 696 8                         // kernel/platform_source/basicplatform/block/mas_blk_dump.c:696:8
	mov	w1, #512
	bl	snprintf
.Ltmp348:
	.loc	6 698 52                        // kernel/platform_source/basicplatform/block/mas_blk_dump.c:698:52
	sub	w8, w26, w21
.Ltmp349:
	//DEBUG_VALUE: __mas_blk_dump_printf:offset <- 0
	//DEBUG_VALUE: __mas_blk_dump_printf:buf <- undef
	//DEBUG_VALUE: __mas_blk_dump_printf:len <- $w8
	.loc	6 333 10                        // kernel/platform_source/basicplatform/block/mas_blk_dump.c:333:10
	cmp	w8, #1                          // =1
.Ltmp350:
	//DEBUG_VALUE: __mas_blk_dump_printf:str <- [DW_OP_plus_uconst 8, DW_OP_stack_value] $sp
	b.lt	.LBB5_53
.Ltmp351:
// %bb.42:
	//DEBUG_VALUE: mas_blk_lld_dump_opt_feature:buf <- $x22
	//DEBUG_VALUE: mas_blk_lld_dump_opt_feature:lld <- $x20
	//DEBUG_VALUE: mas_blk_lld_dump_opt_feature:len <- $w26
	//DEBUG_VALUE: mas_blk_dump_lld_status:offset <- $w23
	//DEBUG_VALUE: mas_blk_lld_dump_opt_feature:offset <- $w21
	//DEBUG_VALUE: __mas_blk_dump_printf:len <- $w8
	//DEBUG_VALUE: __mas_blk_dump_printf:str <- [DW_OP_plus_uconst 8, DW_OP_stack_value] $sp
	//DEBUG_VALUE: __mas_blk_dump_printf:offset <- 0
	.loc	6 0 0 is_stmt 0                 // kernel/platform_source/basicplatform/block/mas_blk_dump.c:0:0
	add	x0, x22, w21, sxtw
.Ltmp352:
	//DEBUG_VALUE: __mas_blk_dump_printf:buf <- $x0
	.loc	6 333 10                        // kernel/platform_source/basicplatform/block/mas_blk_dump.c:333:10
	cbz	x0, .LBB5_53
.Ltmp353:
// %bb.43:
	//DEBUG_VALUE: mas_blk_lld_dump_opt_feature:buf <- $x22
	//DEBUG_VALUE: mas_blk_lld_dump_opt_feature:lld <- $x20
	//DEBUG_VALUE: __mas_blk_dump_printf:buf <- $x0
	//DEBUG_VALUE: mas_blk_lld_dump_opt_feature:len <- $w26
	//DEBUG_VALUE: mas_blk_dump_lld_status:offset <- $w23
	//DEBUG_VALUE: mas_blk_lld_dump_opt_feature:offset <- $w21
	//DEBUG_VALUE: __mas_blk_dump_printf:len <- $w8
	//DEBUG_VALUE: __mas_blk_dump_printf:str <- [DW_OP_plus_uconst 8, DW_OP_stack_value] $sp
	//DEBUG_VALUE: __mas_blk_dump_printf:offset <- 0
	.loc	6 334 13 is_stmt 1              // kernel/platform_source/basicplatform/block/mas_blk_dump.c:334:13
	adrp	x2, .L.str.23
	.loc	6 334 27 is_stmt 0              // kernel/platform_source/basicplatform/block/mas_blk_dump.c:334:27
	mov	w1, w8
	.loc	6 334 13                        // kernel/platform_source/basicplatform/block/mas_blk_dump.c:334:13
	add	x2, x2, :lo12:.L.str.23
	add	x3, sp, #8                      // =8
	bl	snprintf
.Ltmp354:
	//DEBUG_VALUE: __mas_blk_dump_printf:offset <- $w0
.LBB5_44:
	//DEBUG_VALUE: mas_blk_lld_dump_opt_feature:buf <- $x22
	//DEBUG_VALUE: mas_blk_lld_dump_opt_feature:lld <- $x20
	//DEBUG_VALUE: mas_blk_lld_dump_opt_feature:len <- $w26
	//DEBUG_VALUE: mas_blk_dump_lld_status:offset <- $w23
	//DEBUG_VALUE: mas_blk_lld_dump_opt_feature:offset <- $w21
	//DEBUG_VALUE: __mas_blk_dump_printf:offset <- $w0
	.loc	6 701 9 is_stmt 1               // kernel/platform_source/basicplatform/block/mas_blk_dump.c:701:9
	ldr	x8, [x20, #24]
	.loc	6 700 8                         // kernel/platform_source/basicplatform/block/mas_blk_dump.c:700:8
	adrp	x2, .L.str.43
	.loc	6 698 9                         // kernel/platform_source/basicplatform/block/mas_blk_dump.c:698:9
	add	w20, w0, w21
.Ltmp355:
	//DEBUG_VALUE: mas_blk_lld_dump_opt_feature:offset <- $w20
	.loc	6 700 8                         // kernel/platform_source/basicplatform/block/mas_blk_dump.c:700:8
	add	x2, x2, :lo12:.L.str.43
	.loc	6 701 3                         // kernel/platform_source/basicplatform/block/mas_blk_dump.c:701:3
	tst	x8, #0x80
	csel	x3, x25, x24, eq
	.loc	6 700 8                         // kernel/platform_source/basicplatform/block/mas_blk_dump.c:700:8
	add	x0, sp, #8                      // =8
	mov	w1, #512
	bl	snprintf
.Ltmp356:
	.loc	6 702 52                        // kernel/platform_source/basicplatform/block/mas_blk_dump.c:702:52
	sub	w8, w26, w20
.Ltmp357:
	//DEBUG_VALUE: __mas_blk_dump_printf:offset <- 0
	//DEBUG_VALUE: __mas_blk_dump_printf:buf <- undef
	//DEBUG_VALUE: __mas_blk_dump_printf:len <- $w8
	.loc	6 333 10                        // kernel/platform_source/basicplatform/block/mas_blk_dump.c:333:10
	cmp	w8, #1                          // =1
.Ltmp358:
	//DEBUG_VALUE: __mas_blk_dump_printf:str <- [DW_OP_plus_uconst 8, DW_OP_stack_value] $sp
	b.lt	.LBB5_54
.Ltmp359:
// %bb.45:
	//DEBUG_VALUE: mas_blk_lld_dump_opt_feature:buf <- $x22
	//DEBUG_VALUE: mas_blk_lld_dump_opt_feature:len <- $w26
	//DEBUG_VALUE: mas_blk_dump_lld_status:offset <- $w23
	//DEBUG_VALUE: mas_blk_lld_dump_opt_feature:offset <- $w20
	//DEBUG_VALUE: __mas_blk_dump_printf:len <- $w8
	//DEBUG_VALUE: __mas_blk_dump_printf:str <- [DW_OP_plus_uconst 8, DW_OP_stack_value] $sp
	//DEBUG_VALUE: __mas_blk_dump_printf:offset <- 0
	.loc	6 0 0 is_stmt 0                 // kernel/platform_source/basicplatform/block/mas_blk_dump.c:0:0
	add	x0, x22, w20, sxtw
.Ltmp360:
	//DEBUG_VALUE: __mas_blk_dump_printf:buf <- $x0
	.loc	6 333 10                        // kernel/platform_source/basicplatform/block/mas_blk_dump.c:333:10
	cbz	x0, .LBB5_54
.Ltmp361:
// %bb.46:
	//DEBUG_VALUE: mas_blk_lld_dump_opt_feature:buf <- $x22
	//DEBUG_VALUE: __mas_blk_dump_printf:buf <- $x0
	//DEBUG_VALUE: mas_blk_lld_dump_opt_feature:len <- $w26
	//DEBUG_VALUE: mas_blk_dump_lld_status:offset <- $w23
	//DEBUG_VALUE: mas_blk_lld_dump_opt_feature:offset <- $w20
	//DEBUG_VALUE: __mas_blk_dump_printf:len <- $w8
	//DEBUG_VALUE: __mas_blk_dump_printf:str <- [DW_OP_plus_uconst 8, DW_OP_stack_value] $sp
	//DEBUG_VALUE: __mas_blk_dump_printf:offset <- 0
	.loc	6 334 13 is_stmt 1              // kernel/platform_source/basicplatform/block/mas_blk_dump.c:334:13
	adrp	x2, .L.str.23
	.loc	6 334 27 is_stmt 0              // kernel/platform_source/basicplatform/block/mas_blk_dump.c:334:27
	mov	w1, w8
	.loc	6 334 13                        // kernel/platform_source/basicplatform/block/mas_blk_dump.c:334:13
	add	x2, x2, :lo12:.L.str.23
	add	x3, sp, #8                      // =8
	bl	snprintf
.Ltmp362:
	//DEBUG_VALUE: __mas_blk_dump_printf:offset <- $w0
.LBB5_47:
	//DEBUG_VALUE: mas_blk_lld_dump_opt_feature:buf <- $x22
	//DEBUG_VALUE: mas_blk_lld_dump_opt_feature:len <- $w26
	//DEBUG_VALUE: mas_blk_dump_lld_status:offset <- $w23
	//DEBUG_VALUE: mas_blk_lld_dump_opt_feature:offset <- $w20
	//DEBUG_VALUE: mas_blk_lld_dump_opt_feature:offset <- undef
	//DEBUG_VALUE: __mas_blk_dump_printf:offset <- $w0
	.loc	6 702 9 is_stmt 1               // kernel/platform_source/basicplatform/block/mas_blk_dump.c:702:9
	add	w8, w20, w23
.Ltmp363:
	.loc	6 748 9                         // kernel/platform_source/basicplatform/block/mas_blk_dump.c:748:9
	add	w0, w8, w0
.Ltmp364:
	//DEBUG_VALUE: mas_blk_dump_lld_status:offset <- $w0
	.loc	6 750 6                         // kernel/platform_source/basicplatform/block/mas_blk_dump.c:750:6
	cbz	x19, .LBB5_49
.Ltmp365:
// %bb.48:
	//DEBUG_VALUE: mas_blk_dump_lld_status:offset <- $w0
	.loc	6 751 15                        // kernel/platform_source/basicplatform/block/mas_blk_dump.c:751:15
	strb	wzr, [x19, w0, sxtw]
.Ltmp366:
.LBB5_49:
	//DEBUG_VALUE: mas_blk_dump_lld_status:offset <- $w0
	.loc	6 0 15 is_stmt 0                // kernel/platform_source/basicplatform/block/mas_blk_dump.c:0:15
	adrp	x9, __stack_chk_guard
	ldur	x8, [x29, #-8]
	ldr	x9, [x9, :lo12:__stack_chk_guard]
	cmp	x9, x8
	b.ne	.LBB5_57
.Ltmp367:
// %bb.50:
	//DEBUG_VALUE: mas_blk_dump_lld_status:offset <- $w0
	.loc	6 753 2 is_stmt 1               // kernel/platform_source/basicplatform/block/mas_blk_dump.c:753:2
	add	sp, sp, #528                    // =528
	ldp	x20, x19, [sp, #80]             // 16-byte Folded Reload
	ldp	x22, x21, [sp, #64]             // 16-byte Folded Reload
	ldp	x24, x23, [sp, #48]             // 16-byte Folded Reload
	ldp	x26, x25, [sp, #32]             // 16-byte Folded Reload
	ldp	x28, x27, [sp, #16]             // 16-byte Folded Reload
	ldp	x29, x30, [sp], #96             // 16-byte Folded Reload
	hint	#29
	ret
.Ltmp368:
.LBB5_51:
	//DEBUG_VALUE: mas_blk_lld_dump_ioscheduler:lld <- $x20
	//DEBUG_VALUE: mas_blk_lld_dump_ioscheduler:len <- $w27
	//DEBUG_VALUE: mas_blk_dump_lld_status:offset <- $w26
	//DEBUG_VALUE: mas_blk_lld_dump_ioscheduler:offset <- $w23
	//DEBUG_VALUE: __mas_blk_dump_printf:len <- $w8
	//DEBUG_VALUE: __mas_blk_dump_printf:str <- [DW_OP_plus_uconst 8, DW_OP_stack_value] $sp
	//DEBUG_VALUE: __mas_blk_dump_printf:offset <- 0
	.loc	6 336 3                         // kernel/platform_source/basicplatform/block/mas_blk_dump.c:336:3
	adrp	x0, .L.str.24
	add	x0, x0, :lo12:.L.str.24
	add	x1, sp, #8                      // =8
	bl	printk
.Ltmp369:
	.loc	6 0 0 is_stmt 0                 // kernel/platform_source/basicplatform/block/mas_blk_dump.c:0:0
	mov	w0, wzr
	b	.LBB5_38
.Ltmp370:
.LBB5_52:
	//DEBUG_VALUE: __mas_blk_dump_printf:buf <- $x22
	//DEBUG_VALUE: mas_blk_lld_dump_opt_feature:buf <- $x22
	//DEBUG_VALUE: mas_blk_lld_dump_opt_feature:lld <- $x20
	//DEBUG_VALUE: __mas_blk_dump_printf:len <- $w26
	//DEBUG_VALUE: mas_blk_lld_dump_opt_feature:len <- $w26
	//DEBUG_VALUE: mas_blk_dump_lld_status:offset <- $w23
	//DEBUG_VALUE: __mas_blk_dump_printf:str <- [DW_OP_plus_uconst 8, DW_OP_stack_value] $sp
	//DEBUG_VALUE: __mas_blk_dump_printf:offset <- 0
	//DEBUG_VALUE: mas_blk_lld_dump_opt_feature:offset <- 0
	.loc	6 336 3                         // kernel/platform_source/basicplatform/block/mas_blk_dump.c:336:3
	adrp	x0, .L.str.24
	add	x0, x0, :lo12:.L.str.24
	add	x1, sp, #8                      // =8
	bl	printk
.Ltmp371:
	.loc	6 0 0                           // kernel/platform_source/basicplatform/block/mas_blk_dump.c:0:0
	mov	w21, wzr
	b	.LBB5_41
.Ltmp372:
.LBB5_53:
	//DEBUG_VALUE: mas_blk_lld_dump_opt_feature:buf <- $x22
	//DEBUG_VALUE: mas_blk_lld_dump_opt_feature:lld <- $x20
	//DEBUG_VALUE: mas_blk_lld_dump_opt_feature:len <- $w26
	//DEBUG_VALUE: mas_blk_dump_lld_status:offset <- $w23
	//DEBUG_VALUE: mas_blk_lld_dump_opt_feature:offset <- $w21
	//DEBUG_VALUE: __mas_blk_dump_printf:len <- $w8
	//DEBUG_VALUE: __mas_blk_dump_printf:str <- [DW_OP_plus_uconst 8, DW_OP_stack_value] $sp
	//DEBUG_VALUE: __mas_blk_dump_printf:offset <- 0
	.loc	6 336 3                         // kernel/platform_source/basicplatform/block/mas_blk_dump.c:336:3
	adrp	x0, .L.str.24
	add	x0, x0, :lo12:.L.str.24
	add	x1, sp, #8                      // =8
	bl	printk
.Ltmp373:
	.loc	6 0 0                           // kernel/platform_source/basicplatform/block/mas_blk_dump.c:0:0
	mov	w0, wzr
	b	.LBB5_44
.Ltmp374:
.LBB5_54:
	//DEBUG_VALUE: mas_blk_lld_dump_opt_feature:buf <- $x22
	//DEBUG_VALUE: mas_blk_lld_dump_opt_feature:len <- $w26
	//DEBUG_VALUE: mas_blk_dump_lld_status:offset <- $w23
	//DEBUG_VALUE: mas_blk_lld_dump_opt_feature:offset <- $w20
	//DEBUG_VALUE: __mas_blk_dump_printf:len <- $w8
	//DEBUG_VALUE: __mas_blk_dump_printf:str <- [DW_OP_plus_uconst 8, DW_OP_stack_value] $sp
	//DEBUG_VALUE: __mas_blk_dump_printf:offset <- 0
	.loc	6 336 3                         // kernel/platform_source/basicplatform/block/mas_blk_dump.c:336:3
	adrp	x0, .L.str.24
	add	x0, x0, :lo12:.L.str.24
	add	x1, sp, #8                      // =8
	bl	printk
.Ltmp375:
	.loc	6 0 0                           // kernel/platform_source/basicplatform/block/mas_blk_dump.c:0:0
	mov	w0, wzr
	b	.LBB5_47
.Ltmp376:
.LBB5_55:
	//DEBUG_VALUE: mas_blk_lld_dump_busyidle:buf <- $x22
	//DEBUG_VALUE: mas_blk_lld_dump_busyidle:lld <- $x20
	//DEBUG_VALUE: mas_blk_lld_dump_busyidle:len <- $w27
	//DEBUG_VALUE: mas_blk_dump_lld_status:offset <- $w26
	//DEBUG_VALUE: mas_blk_lld_dump_busyidle:offset <- $w23
	//DEBUG_VALUE: __mas_blk_dump_printf:len <- $w8
	//DEBUG_VALUE: __mas_blk_dump_printf:str <- [DW_OP_plus_uconst 8, DW_OP_stack_value] $sp
	//DEBUG_VALUE: __mas_blk_dump_printf:offset <- 0
	.loc	6 336 3                         // kernel/platform_source/basicplatform/block/mas_blk_dump.c:336:3
	adrp	x0, .L.str.24
	add	x0, x0, :lo12:.L.str.24
	add	x1, sp, #8                      // =8
	bl	printk
.Ltmp377:
	.loc	6 0 0                           // kernel/platform_source/basicplatform/block/mas_blk_dump.c:0:0
	mov	w0, wzr
	b	.LBB5_21
.Ltmp378:
.LBB5_56:
	//DEBUG_VALUE: mas_blk_lld_dump_busyidle:buf <- $x22
	//DEBUG_VALUE: mas_blk_lld_dump_busyidle:lld <- $x20
	//DEBUG_VALUE: mas_blk_lld_dump_busyidle:len <- $w27
	//DEBUG_VALUE: mas_blk_dump_lld_status:offset <- $w26
	//DEBUG_VALUE: mas_blk_lld_dump_busyidle:offset <- $w23
	//DEBUG_VALUE: __mas_blk_dump_printf:len <- $w8
	//DEBUG_VALUE: __mas_blk_dump_printf:str <- [DW_OP_plus_uconst 8, DW_OP_stack_value] $sp
	//DEBUG_VALUE: __mas_blk_dump_printf:offset <- 0
	.loc	6 336 3                         // kernel/platform_source/basicplatform/block/mas_blk_dump.c:336:3
	adrp	x0, .L.str.24
	add	x0, x0, :lo12:.L.str.24
	add	x1, sp, #8                      // =8
	bl	printk
.Ltmp379:
	.loc	6 0 0                           // kernel/platform_source/basicplatform/block/mas_blk_dump.c:0:0
	mov	w0, wzr
	b	.LBB5_24
.Ltmp380:
.LBB5_57:
	//DEBUG_VALUE: mas_blk_dump_lld_status:offset <- $w0
	bl	__stack_chk_fail
.Ltmp381:
.Lfunc_end5:
	.size	mas_blk_dump_lld_status, .Lfunc_end5-mas_blk_dump_lld_status
	.cfi_endproc
                                        // -- End function
	.globl	hw_stat_get_blk_info            // -- Begin function hw_stat_get_blk_info
	.p2align	2
	.type	hw_stat_get_blk_info,@function
hw_stat_get_blk_info:                   // @hw_stat_get_blk_info
.Lfunc_begin6:
	.loc	6 873 0 is_stmt 1               // kernel/platform_source/basicplatform/block/mas_blk_dump.c:873:0
	.cfi_startproc
// %bb.0:
	//DEBUG_VALUE: hw_stat_get_blk_info:blk_info <- $x0
	hint	#25
	.cfi_negate_ra_state
	sub	sp, sp, #160                    // =160
	stp	x29, x30, [sp, #80]             // 16-byte Folded Spill
	stp	x26, x25, [sp, #96]             // 16-byte Folded Spill
	stp	x24, x23, [sp, #112]            // 16-byte Folded Spill
	stp	x22, x21, [sp, #128]            // 16-byte Folded Spill
	stp	x20, x19, [sp, #144]            // 16-byte Folded Spill
	add	x29, sp, #80                    // =80
	.cfi_def_cfa w29, 80
	.cfi_offset w19, -8
	.cfi_offset w20, -16
	.cfi_offset w21, -24
	.cfi_offset w22, -32
	.cfi_offset w23, -40
	.cfi_offset w24, -48
	.cfi_offset w25, -56
	.cfi_offset w26, -64
	.cfi_offset w30, -72
	.cfi_offset w29, -80
	mov	x19, x0
.Ltmp382:
	//DEBUG_VALUE: hw_stat_get_blk_info:blk_info <- $x19
	//DEBUG_VALUE: hw_stat_get_blk_info:mas_queue <- 0
	//DEBUG_VALUE: hw_stat_get_blk_info:q <- 0
	//DEBUG_VALUE: hw_stat_get_blk_info:blk_info <- $x19
	.file	156 "/mnt/disk/jenkins/ci/workspace/chipset_pipeline_release/opensource/component_code/vendor/huawei/extra/build/build_script/kirin_kernel_release" "kernel/include/linux/spinlock.h"
	.loc	156 354 2 prologue_end          // kernel/include/linux/spinlock.h:354:2
	adrp	x0, dump_list_lock
	add	x0, x0, :lo12:dump_list_lock
.Ltmp383:
	//DEBUG_VALUE: spin_lock:lock <- $x0
	bl	_raw_spin_lock
.Ltmp384:
	//DEBUG_VALUE: hw_stat_get_blk_info:mas_queue <- [DW_OP_constu 160, DW_OP_minus, DW_OP_stack_value] undef
	.loc	6 0 0 is_stmt 0                 // kernel/platform_source/basicplatform/block/mas_blk_dump.c:0:0
	adrp	x21, dump_list
	add	x21, x21, :lo12:dump_list
	ldr	x22, [x21]
.Ltmp385:
	//DEBUG_VALUE: hw_stat_get_blk_info:mas_queue <- [DW_OP_constu 160, DW_OP_minus, DW_OP_stack_value] $x22
	.loc	6 878 2 is_stmt 1               // kernel/platform_source/basicplatform/block/mas_blk_dump.c:878:2
	cmp	x22, x21
	b.eq	.LBB6_8
.Ltmp386:
// %bb.1:
	//DEBUG_VALUE: hw_stat_get_blk_info:mas_queue <- [DW_OP_constu 160, DW_OP_minus, DW_OP_stack_value] $x22
	//DEBUG_VALUE: hw_stat_get_blk_info:blk_info <- $x19
	//DEBUG_VALUE: hw_stat_get_blk_info:q <- 0
	.loc	6 0 2 is_stmt 0                 // kernel/platform_source/basicplatform/block/mas_blk_dump.c:0:2
	add	x8, sp, #8                      // =8
	mov	w23, #4096
	adrp	x24, cpu_number
	adrp	x26, __per_cpu_offset
	movk	w23, #32, lsl #16
	add	x24, x24, :lo12:cpu_number
	add	x25, x8, #8                     // =8
	add	x26, x26, :lo12:__per_cpu_offset
	b	.LBB6_4
.Ltmp387:
.LBB6_2:                                //   in Loop: Header=BB6_4 Depth=1
	//DEBUG_VALUE: hw_stat_get_blk_info:mas_queue <- [DW_OP_constu 160, DW_OP_minus, DW_OP_stack_value] $x22
	//DEBUG_VALUE: hw_stat_get_blk_info:q <- $x20
	//DEBUG_VALUE: __hw_stat_get_blk_info:q <- $x20
	//DEBUG_VALUE: __hw_stat_get_blk_info:blk_info <- $x19
	//DEBUG_VALUE: hw_stat_get_blk_info:blk_info <- $x19
	//DEBUG_VALUE: __hw_stat_get_blk_info:lld <- $x0
	.loc	6 869 2 is_stmt 1               // kernel/platform_source/basicplatform/block/mas_blk_dump.c:869:2
	mov	x0, x20
.Ltmp388:
	mov	x1, x19
	bl	hw_stat_get_ufs_mq_info
.Ltmp389:
.LBB6_3:                                //   in Loop: Header=BB6_4 Depth=1
	//DEBUG_VALUE: hw_stat_get_blk_info:mas_queue <- [DW_OP_constu 160, DW_OP_minus, DW_OP_stack_value] $x22
	//DEBUG_VALUE: hw_stat_get_blk_info:blk_info <- $x19
	//DEBUG_VALUE: hw_stat_get_blk_info:mas_queue <- [DW_OP_constu 160, DW_OP_minus, DW_OP_stack_value] undef
	//DEBUG_VALUE: __mptr <- undef
	.loc	6 0 0 is_stmt 0                 // kernel/platform_source/basicplatform/block/mas_blk_dump.c:0:0
	ldr	x22, [x22]
.Ltmp390:
	//DEBUG_VALUE: hw_stat_get_blk_info:mas_queue <- [DW_OP_constu 160, DW_OP_minus, DW_OP_stack_value] $x22
	.loc	6 878 2 is_stmt 1               // kernel/platform_source/basicplatform/block/mas_blk_dump.c:878:2
	cmp	x22, x21
	b.eq	.LBB6_8
.Ltmp391:
.LBB6_4:                                // =>This Inner Loop Header: Depth=1
	//DEBUG_VALUE: hw_stat_get_blk_info:mas_queue <- [DW_OP_constu 160, DW_OP_minus, DW_OP_stack_value] $x22
	//DEBUG_VALUE: hw_stat_get_blk_info:blk_info <- $x19
	//DEBUG_VALUE: hw_stat_get_blk_info:q <- [DW_OP_constu 1336, DW_OP_minus, DW_OP_stack_value] $x22
	//DEBUG_VALUE: hw_stat_get_blk_info:mas_queue <- [DW_OP_constu 160, DW_OP_minus, DW_OP_stack_value] $x22
	//DEBUG_VALUE: __mptr <- [DW_OP_constu 160, DW_OP_minus, DW_OP_stack_value] $x22
	.loc	6 881 10                        // kernel/platform_source/basicplatform/block/mas_blk_dump.c:881:10
	ldr	x8, [x22, #104]
.Ltmp392:
	.loc	6 881 7 is_stmt 0               // kernel/platform_source/basicplatform/block/mas_blk_dump.c:881:7
	cbz	x8, .LBB6_3
.Ltmp393:
// %bb.5:                               //   in Loop: Header=BB6_4 Depth=1
	//DEBUG_VALUE: __mptr <- [DW_OP_constu 160, DW_OP_minus, DW_OP_stack_value] $x22
	//DEBUG_VALUE: hw_stat_get_blk_info:q <- [DW_OP_constu 1336, DW_OP_minus, DW_OP_stack_value] $x22
	//DEBUG_VALUE: hw_stat_get_blk_info:mas_queue <- [DW_OP_constu 160, DW_OP_minus, DW_OP_stack_value] $x22
	//DEBUG_VALUE: hw_stat_get_blk_info:blk_info <- $x19
	.loc	6 879 31 is_stmt 1              // kernel/platform_source/basicplatform/block/mas_blk_dump.c:879:31
	sub	x20, x22, #1336                 // =1336
.Ltmp394:
	//DEBUG_VALUE: __hw_stat_get_blk_info:lld <- 0
	//DEBUG_VALUE: __hw_stat_get_blk_info:blk_info <- $x19
	//DEBUG_VALUE: __hw_stat_get_blk_info:q <- $x20
	//DEBUG_VALUE: hw_stat_get_blk_info:q <- $x20
	.loc	6 835 27                        // kernel/platform_source/basicplatform/block/mas_blk_dump.c:835:27
	stp	xzr, xzr, [x25, #40]
	stp	xzr, xzr, [x25, #24]
	stp	xzr, xzr, [x25, #8]
	str	xzr, [x25]
	.loc	6 835 34 is_stmt 0              // kernel/platform_source/basicplatform/block/mas_blk_dump.c:835:34
	str	x20, [sp, #8]
	str	w23, [sp, #48]
.Ltmp395:
	.loc	6 840 20 is_stmt 1              // kernel/platform_source/basicplatform/block/mas_blk_dump.c:840:20
	ldur	x8, [x22, #-160]
.Ltmp396:
	.loc	6 840 6 is_stmt 0               // kernel/platform_source/basicplatform/block/mas_blk_dump.c:840:6
	cbz	x8, .LBB6_3
.Ltmp397:
// %bb.6:                               //   in Loop: Header=BB6_4 Depth=1
	//DEBUG_VALUE: hw_stat_get_blk_info:mas_queue <- [DW_OP_constu 160, DW_OP_minus, DW_OP_stack_value] $x22
	//DEBUG_VALUE: hw_stat_get_blk_info:q <- $x20
	//DEBUG_VALUE: __hw_stat_get_blk_info:q <- $x20
	//DEBUG_VALUE: __hw_stat_get_blk_info:blk_info <- $x19
	//DEBUG_VALUE: hw_stat_get_blk_info:blk_info <- $x19
	//DEBUG_VALUE: __hw_stat_get_blk_info:lld <- 0
	.loc	6 844 29 is_stmt 1              // kernel/platform_source/basicplatform/block/mas_blk_dump.c:844:29
	add	x1, x8, #56                     // =56
	.loc	6 843 2                         // kernel/platform_source/basicplatform/block/mas_blk_dump.c:843:2
	sub	x2, x29, #8                     // =8
	mov	x0, x20
	bl	blk_mq_in_flight_rw
.Ltmp398:
	.loc	6 845 25                        // kernel/platform_source/basicplatform/block/mas_blk_dump.c:845:25
	ldur	w9, [x29, #-8]
	.loc	6 846 25                        // kernel/platform_source/basicplatform/block/mas_blk_dump.c:846:25
	ldur	w8, [x29, #-4]
	.loc	6 857 27                        // kernel/platform_source/basicplatform/block/mas_blk_dump.c:857:27
	add	x0, sp, #8                      // =8
	.loc	6 845 23                        // kernel/platform_source/basicplatform/block/mas_blk_dump.c:845:23
	stp	w9, w8, [x19, #20]
	.loc	6 848 30                        // kernel/platform_source/basicplatform/block/mas_blk_dump.c:848:30
	ldr	x8, [x22, #1216]
	.loc	6 848 39 is_stmt 0              // kernel/platform_source/basicplatform/block/mas_blk_dump.c:848:39
	ldr	w8, [x8, #636]
	.loc	6 848 25                        // kernel/platform_source/basicplatform/block/mas_blk_dump.c:848:25
	str	w8, [x19]
	.loc	6 849 29 is_stmt 1              // kernel/platform_source/basicplatform/block/mas_blk_dump.c:849:29
	ldr	x8, [x22, #1216]
	.loc	6 849 38 is_stmt 0              // kernel/platform_source/basicplatform/block/mas_blk_dump.c:849:38
	ldr	w8, [x8, #640]
	.loc	6 849 24                        // kernel/platform_source/basicplatform/block/mas_blk_dump.c:849:24
	str	w8, [x19, #4]
	.loc	6 850 34 is_stmt 1              // kernel/platform_source/basicplatform/block/mas_blk_dump.c:850:34
	ldr	x8, [x22, #1216]
	.loc	6 850 43 is_stmt 0              // kernel/platform_source/basicplatform/block/mas_blk_dump.c:850:43
	ldr	w8, [x8, #644]
	.loc	6 850 29                        // kernel/platform_source/basicplatform/block/mas_blk_dump.c:850:29
	str	w8, [x19, #8]
	.loc	6 851 35 is_stmt 1              // kernel/platform_source/basicplatform/block/mas_blk_dump.c:851:35
	ldr	x8, [x22, #1216]
	.loc	6 851 44 is_stmt 0              // kernel/platform_source/basicplatform/block/mas_blk_dump.c:851:44
	ldr	w8, [x8, #632]
	.loc	6 851 30                        // kernel/platform_source/basicplatform/block/mas_blk_dump.c:851:30
	str	w8, [x19, #16]
	.loc	6 852 37 is_stmt 1              // kernel/platform_source/basicplatform/block/mas_blk_dump.c:852:37
	ldr	x8, [x22, #1216]
	.loc	6 852 46 is_stmt 0              // kernel/platform_source/basicplatform/block/mas_blk_dump.c:852:46
	ldr	w9, [x8, #640]
	.loc	6 853 15 is_stmt 1              // kernel/platform_source/basicplatform/block/mas_blk_dump.c:853:15
	ldr	w10, [x8, #644]
	.loc	6 853 43 is_stmt 0              // kernel/platform_source/basicplatform/block/mas_blk_dump.c:853:43
	ldr	w8, [x8, #632]
	.loc	6 852 58 is_stmt 1              // kernel/platform_source/basicplatform/block/mas_blk_dump.c:852:58
	sub	w9, w9, w10
	.loc	6 853 29                        // kernel/platform_source/basicplatform/block/mas_blk_dump.c:853:29
	sub	w8, w9, w8
	.loc	6 852 32                        // kernel/platform_source/basicplatform/block/mas_blk_dump.c:852:32
	str	w8, [x19, #12]
.Ltmp399:
	//DEBUG_VALUE: blk_mq_get_ctx:q <- $x20
	.file	157 "/mnt/disk/jenkins/ci/workspace/chipset_pipeline_release/opensource/component_code/vendor/huawei/extra/build/build_script/kirin_kernel_release" "kernel/arch/arm64/include/asm/percpu.h"
	.loc	157 39 2                        // kernel/arch/arm64/include/asm/percpu.h:39:2
	//APP
.Ltmp400:
	mrs	x8, TPIDR_EL1
.Ltmp401:
	.section	.altinstructions,"a",@progbits
.Ltmp402:
	.word	.Ltmp400-.Ltmp402
.Ltmp404:
	.word	.Ltmp403-.Ltmp404
	.hword	11
	.byte	.Ltmp401-.Ltmp400
	.byte	.Ltmp405-.Ltmp403
	.text

	.text	1
.Ltmp403:
	mrs	x8, TPIDR_EL2
.Ltmp405:
.Ltmp406:
.org (.Ltmp406-(.Ltmp405-.Ltmp403))+(.Ltmp401-.Ltmp400), 0
.Ltmp407:
.org (.Ltmp407-(.Ltmp401-.Ltmp400))+(.Ltmp405-.Ltmp403), 0
	.text


	//NO_APP
.Ltmp408:
	//DEBUG_VALUE: __ptr <- $x24
	//DEBUG_VALUE: __kern_my_cpu_offset:off <- $x8
	.loc	29 162 29                       // kernel/block/blk-mq.h:162:29
	ldr	w8, [x8, x24]
.Ltmp409:
	//DEBUG_VALUE: __blk_mq_get_ctx:cpu <- undef
	//DEBUG_VALUE: __blk_mq_get_ctx:q <- $x20
	.loc	29 151 9                        // kernel/block/blk-mq.h:151:9
	sub	x9, x22, #1280                  // =1280
	ldr	x9, [x9]
.Ltmp410:
	//DEBUG_VALUE: __ptr <- $x9
	ldr	x8, [x26, x8, lsl #3]
	add	x8, x8, x9
.Ltmp411:
	.loc	6 855 11                        // kernel/platform_source/basicplatform/block/mas_blk_dump.c:855:11
	str	x8, [sp, #56]
.Ltmp412:
	//DEBUG_VALUE: blk_mq_map_queue:type <- undef
	//DEBUG_VALUE: blk_mq_map_queue:ctx <- $x8
	//DEBUG_VALUE: blk_mq_map_queue:flags <- 2101248
	//DEBUG_VALUE: blk_mq_map_queue:q <- undef
	.loc	29 133 9                        // kernel/block/blk-mq.h:133:9
	ldr	x8, [x8, #152]
.Ltmp413:
	.loc	6 856 12                        // kernel/platform_source/basicplatform/block/mas_blk_dump.c:856:12
	str	x8, [sp, #64]
	.loc	6 857 27                        // kernel/platform_source/basicplatform/block/mas_blk_dump.c:857:27
	bl	ufs_mq_vip_tag_wait_cnt
.Ltmp414:
	.loc	6 857 25 is_stmt 0              // kernel/platform_source/basicplatform/block/mas_blk_dump.c:857:25
	str	w0, [x19, #48]
	.loc	6 859 8 is_stmt 1               // kernel/platform_source/basicplatform/block/mas_blk_dump.c:859:8
	mov	x0, x20
	bl	mas_blk_get_lld
.Ltmp415:
	//DEBUG_VALUE: __hw_stat_get_blk_info:lld <- $x0
	.loc	6 860 6                         // kernel/platform_source/basicplatform/block/mas_blk_dump.c:860:6
	cbz	x0, .LBB6_2
.Ltmp416:
// %bb.7:                               //   in Loop: Header=BB6_4 Depth=1
	//DEBUG_VALUE: hw_stat_get_blk_info:mas_queue <- [DW_OP_constu 160, DW_OP_minus, DW_OP_stack_value] $x22
	//DEBUG_VALUE: hw_stat_get_blk_info:q <- $x20
	//DEBUG_VALUE: __hw_stat_get_blk_info:q <- $x20
	//DEBUG_VALUE: __hw_stat_get_blk_info:blk_info <- $x19
	//DEBUG_VALUE: hw_stat_get_blk_info:blk_info <- $x19
	//DEBUG_VALUE: __hw_stat_get_blk_info:lld <- $x0
	.loc	6 866 39                        // kernel/platform_source/basicplatform/block/mas_blk_dump.c:866:39
	ldr	x8, [x0, #368]
	.loc	6 866 23 is_stmt 0              // kernel/platform_source/basicplatform/block/mas_blk_dump.c:866:23
	str	x8, [x19, #32]
	.loc	6 867 39 is_stmt 1              // kernel/platform_source/basicplatform/block/mas_blk_dump.c:867:39
	ldr	x8, [x0, #376]
	.loc	6 867 23 is_stmt 0              // kernel/platform_source/basicplatform/block/mas_blk_dump.c:867:23
	str	x8, [x19, #40]
	b	.LBB6_2
.Ltmp417:
.LBB6_8:
	//DEBUG_VALUE: hw_stat_get_blk_info:mas_queue <- [DW_OP_constu 160, DW_OP_minus, DW_OP_stack_value] $x22
	//DEBUG_VALUE: hw_stat_get_blk_info:blk_info <- $x19
	.loc	156 394 2 is_stmt 1             // kernel/include/linux/spinlock.h:394:2
	adrp	x0, dump_list_lock
	add	x0, x0, :lo12:dump_list_lock
.Ltmp418:
	//DEBUG_VALUE: spin_unlock:lock <- $x0
	bl	_raw_spin_unlock
.Ltmp419:
	.loc	6 885 1                         // kernel/platform_source/basicplatform/block/mas_blk_dump.c:885:1
	ldp	x20, x19, [sp, #144]            // 16-byte Folded Reload
.Ltmp420:
	ldp	x22, x21, [sp, #128]            // 16-byte Folded Reload
.Ltmp421:
	ldp	x24, x23, [sp, #112]            // 16-byte Folded Reload
	ldp	x26, x25, [sp, #96]             // 16-byte Folded Reload
	ldp	x29, x30, [sp, #80]             // 16-byte Folded Reload
	add	sp, sp, #160                    // =160
	hint	#29
	ret
.Ltmp422:
.Lfunc_end6:
	.size	hw_stat_get_blk_info, .Lfunc_end6-hw_stat_get_blk_info
	.cfi_endproc
	.file	158 "/mnt/disk/jenkins/ci/workspace/chipset_pipeline_release/opensource/component_code/vendor/huawei/extra/build/build_script/kirin_kernel_release" "kernel/include/linux/hw_stat.h"
	.file	159 "/mnt/disk/jenkins/ci/workspace/chipset_pipeline_release/opensource/component_code/vendor/huawei/extra/build/build_script/kirin_kernel_release" "kernel/include/linux/spinlock_api_smp.h"
	.file	160 "/mnt/disk/jenkins/ci/workspace/chipset_pipeline_release/opensource/component_code/vendor/huawei/extra/build/build_script/kirin_kernel_release" "kernel/include/platform_include/basicplatform/linux/mas/mas_blk_mq_tag.h"
                                        // -- End function
	.globl	mas_blk_panic_notify            // -- Begin function mas_blk_panic_notify
	.p2align	2
	.type	mas_blk_panic_notify,@function
mas_blk_panic_notify:                   // @mas_blk_panic_notify
.Lfunc_begin7:
	.loc	6 890 0                         // kernel/platform_source/basicplatform/block/mas_blk_dump.c:890:0
	.cfi_startproc
// %bb.0:
	//DEBUG_VALUE: mas_blk_panic_notify:nb <- $x0
	//DEBUG_VALUE: mas_blk_panic_notify:event <- $x1
	//DEBUG_VALUE: mas_blk_panic_notify:buf <- $x2
	hint	#25
	.cfi_negate_ra_state
	sub	sp, sp, #112                    // =112
	stp	x29, x30, [sp, #16]             // 16-byte Folded Spill
	stp	x28, x27, [sp, #32]             // 16-byte Folded Spill
	stp	x26, x25, [sp, #48]             // 16-byte Folded Spill
	stp	x24, x23, [sp, #64]             // 16-byte Folded Spill
	stp	x22, x21, [sp, #80]             // 16-byte Folded Spill
	stp	x20, x19, [sp, #96]             // 16-byte Folded Spill
	add	x29, sp, #16                    // =16
	.cfi_def_cfa w29, 96
	.cfi_offset w19, -8
	.cfi_offset w20, -16
	.cfi_offset w21, -24
	.cfi_offset w22, -32
	.cfi_offset w23, -40
	.cfi_offset w24, -48
	.cfi_offset w25, -56
	.cfi_offset w26, -64
	.cfi_offset w27, -72
	.cfi_offset w28, -80
	.cfi_offset w30, -88
	.cfi_offset w29, -96
.Ltmp423:
	.loc	6 891 2 prologue_end            // kernel/platform_source/basicplatform/block/mas_blk_dump.c:891:2
	bl	ktime_get
.Ltmp424:
	//DEBUG_VALUE: mas_blk_panic_notify:buf <- [DW_OP_LLVM_entry_value 1] $x2
	//DEBUG_VALUE: mas_blk_panic_notify:event <- [DW_OP_LLVM_entry_value 1] $x1
	//DEBUG_VALUE: mas_blk_panic_notify:nb <- [DW_OP_LLVM_entry_value 1] $x0
	mov	x2, x0
	adrp	x0, .L.str.14
	adrp	x1, .L__func__.mas_blk_panic_notify
	add	x0, x0, :lo12:.L.str.14
	add	x1, x1, :lo12:.L__func__.mas_blk_panic_notify
	bl	printk
.Ltmp425:
	//DEBUG_VALUE: mas_blk_panic_dump:mas_queue <- [DW_OP_constu 160, DW_OP_minus, DW_OP_stack_value] undef
	//DEBUG_VALUE: mas_blk_panic_dump:q <- 0
	.loc	6 0 0 is_stmt 0                 // kernel/platform_source/basicplatform/block/mas_blk_dump.c:0:0
	adrp	x26, dump_list
	add	x26, x26, :lo12:dump_list
	ldr	x27, [x26]
.Ltmp426:
	//DEBUG_VALUE: mas_blk_panic_dump:mas_queue <- [DW_OP_constu 160, DW_OP_minus, DW_OP_stack_value] $x27
	.loc	6 818 2 is_stmt 1               // kernel/platform_source/basicplatform/block/mas_blk_dump.c:818:2
	cmp	x27, x26
	b.ne	.LBB7_2
.Ltmp427:
.LBB7_1:
	//DEBUG_VALUE: mas_blk_panic_notify:buf <- [DW_OP_LLVM_entry_value 1] $x2
	//DEBUG_VALUE: mas_blk_panic_notify:event <- [DW_OP_LLVM_entry_value 1] $x1
	//DEBUG_VALUE: mas_blk_panic_notify:nb <- [DW_OP_LLVM_entry_value 1] $x0
	.loc	6 893 2                         // kernel/platform_source/basicplatform/block/mas_blk_dump.c:893:2
	adrp	x0, .L.str.15
	adrp	x1, .L__func__.mas_blk_panic_notify
	add	x0, x0, :lo12:.L.str.15
	add	x1, x1, :lo12:.L__func__.mas_blk_panic_notify
	bl	printk
.Ltmp428:
	.loc	6 894 2                         // kernel/platform_source/basicplatform/block/mas_blk_dump.c:894:2
	ldp	x20, x19, [sp, #96]             // 16-byte Folded Reload
	ldp	x22, x21, [sp, #80]             // 16-byte Folded Reload
	ldp	x24, x23, [sp, #64]             // 16-byte Folded Reload
	ldp	x26, x25, [sp, #48]             // 16-byte Folded Reload
	ldp	x28, x27, [sp, #32]             // 16-byte Folded Reload
	ldp	x29, x30, [sp, #16]             // 16-byte Folded Reload
	mov	w0, wzr
	add	sp, sp, #112                    // =112
	hint	#29
	ret
.Ltmp429:
.LBB7_2:
	//DEBUG_VALUE: mas_blk_panic_dump:mas_queue <- [DW_OP_constu 160, DW_OP_minus, DW_OP_stack_value] $x27
	//DEBUG_VALUE: mas_blk_panic_dump:q <- 0
	//DEBUG_VALUE: mas_blk_panic_notify:buf <- [DW_OP_LLVM_entry_value 1] $x2
	//DEBUG_VALUE: mas_blk_panic_notify:event <- [DW_OP_LLVM_entry_value 1] $x1
	//DEBUG_VALUE: mas_blk_panic_notify:nb <- [DW_OP_LLVM_entry_value 1] $x0
	.loc	6 0 2 is_stmt 0                 // kernel/platform_source/basicplatform/block/mas_blk_dump.c:0:2
	adrp	x19, .L.str.13
	adrp	x21, .L.str.11
	adrp	x22, .L.str.16
	adrp	x23, .L.str.44
	add	x19, x19, :lo12:.L.str.13
	add	x21, x21, :lo12:.L.str.11
	add	x22, x22, :lo12:.L.str.16
	add	x23, x23, :lo12:.L.str.44
	b	.LBB7_4
.Ltmp430:
.LBB7_3:                                //   in Loop: Header=BB7_4 Depth=1
	//DEBUG_VALUE: mas_blk_panic_dump:mas_queue <- [DW_OP_constu 160, DW_OP_minus, DW_OP_stack_value] $x27
	//DEBUG_VALUE: mas_blk_panic_notify:buf <- [DW_OP_LLVM_entry_value 1] $x2
	//DEBUG_VALUE: mas_blk_panic_notify:event <- [DW_OP_LLVM_entry_value 1] $x1
	//DEBUG_VALUE: mas_blk_panic_notify:nb <- [DW_OP_LLVM_entry_value 1] $x0
	//DEBUG_VALUE: mas_blk_panic_dump:mas_queue <- [DW_OP_constu 160, DW_OP_minus, DW_OP_stack_value] undef
	//DEBUG_VALUE: __mptr <- undef
	ldr	x27, [x27]
.Ltmp431:
	//DEBUG_VALUE: mas_blk_panic_dump:mas_queue <- [DW_OP_constu 160, DW_OP_minus, DW_OP_stack_value] $x27
	.loc	6 818 2 is_stmt 1               // kernel/platform_source/basicplatform/block/mas_blk_dump.c:818:2
	cmp	x27, x26
	b.eq	.LBB7_1
.Ltmp432:
.LBB7_4:                                // =>This Loop Header: Depth=1
                                        //     Child Loop BB7_18 Depth 2
                                        //     Child Loop BB7_23 Depth 2
	//DEBUG_VALUE: mas_blk_panic_dump:mas_queue <- [DW_OP_constu 160, DW_OP_minus, DW_OP_stack_value] $x27
	//DEBUG_VALUE: mas_blk_panic_notify:buf <- [DW_OP_LLVM_entry_value 1] $x2
	//DEBUG_VALUE: mas_blk_panic_notify:event <- [DW_OP_LLVM_entry_value 1] $x1
	//DEBUG_VALUE: mas_blk_panic_notify:nb <- [DW_OP_LLVM_entry_value 1] $x0
	//DEBUG_VALUE: mas_blk_panic_dump:q <- [DW_OP_constu 1336, DW_OP_minus, DW_OP_stack_value] $x27
	//DEBUG_VALUE: mas_blk_panic_dump:mas_queue <- [DW_OP_constu 160, DW_OP_minus, DW_OP_stack_value] $x27
	//DEBUG_VALUE: __mptr <- [DW_OP_constu 160, DW_OP_minus, DW_OP_stack_value] $x27
	.loc	6 821 10                        // kernel/platform_source/basicplatform/block/mas_blk_dump.c:821:10
	sub	x8, x27, #1240                  // =1240
	ldr	x8, [x8]
.Ltmp433:
	.loc	6 821 7 is_stmt 0               // kernel/platform_source/basicplatform/block/mas_blk_dump.c:821:7
	cbz	x8, .LBB7_3
.Ltmp434:
// %bb.5:                               //   in Loop: Header=BB7_4 Depth=1
	//DEBUG_VALUE: __mptr <- [DW_OP_constu 160, DW_OP_minus, DW_OP_stack_value] $x27
	//DEBUG_VALUE: mas_blk_panic_dump:q <- [DW_OP_constu 1336, DW_OP_minus, DW_OP_stack_value] $x27
	//DEBUG_VALUE: mas_blk_panic_dump:mas_queue <- [DW_OP_constu 160, DW_OP_minus, DW_OP_stack_value] $x27
	//DEBUG_VALUE: mas_blk_panic_notify:buf <- [DW_OP_LLVM_entry_value 1] $x2
	//DEBUG_VALUE: mas_blk_panic_notify:event <- [DW_OP_LLVM_entry_value 1] $x1
	//DEBUG_VALUE: mas_blk_panic_notify:nb <- [DW_OP_LLVM_entry_value 1] $x0
	.loc	6 819 31 is_stmt 1              // kernel/platform_source/basicplatform/block/mas_blk_dump.c:819:31
	sub	x24, x27, #1336                 // =1336
.Ltmp435:
	//DEBUG_VALUE: mas_blk_dump_queue:s <- 1
	//DEBUG_VALUE: mas_blk_dump_queue:q <- $x24
	//DEBUG_VALUE: mas_blk_panic_dump:q <- $x24
	.loc	6 783 28                        // kernel/platform_source/basicplatform/block/mas_blk_dump.c:783:28
	mov	x0, x24
	bl	mas_blk_get_lld
.Ltmp436:
	.loc	6 785 11                        // kernel/platform_source/basicplatform/block/mas_blk_dump.c:785:11
	ldr	x8, [x0, #40]
.Ltmp437:
	.loc	6 783 28                        // kernel/platform_source/basicplatform/block/mas_blk_dump.c:783:28
	mov	x25, x0
.Ltmp438:
	//DEBUG_VALUE: mas_blk_dump_queue:lld <- $x25
	.loc	6 785 6                         // kernel/platform_source/basicplatform/block/mas_blk_dump.c:785:6
	cbnz	x8, .LBB7_12
.Ltmp439:
// %bb.6:                               //   in Loop: Header=BB7_4 Depth=1
	//DEBUG_VALUE: mas_blk_panic_dump:mas_queue <- [DW_OP_constu 160, DW_OP_minus, DW_OP_stack_value] $x27
	//DEBUG_VALUE: mas_blk_dump_queue:lld <- $x25
	//DEBUG_VALUE: mas_blk_panic_dump:q <- $x24
	//DEBUG_VALUE: mas_blk_dump_queue:q <- $x24
	//DEBUG_VALUE: mas_blk_dump_queue:s <- 1
	//DEBUG_VALUE: mas_blk_panic_notify:buf <- [DW_OP_LLVM_entry_value 1] $x2
	//DEBUG_VALUE: mas_blk_panic_notify:event <- [DW_OP_LLVM_entry_value 1] $x1
	//DEBUG_VALUE: mas_blk_panic_notify:nb <- [DW_OP_LLVM_entry_value 1] $x0
	//DEBUG_VALUE: mas_blk_dump_queue_status:s <- 1
	//DEBUG_VALUE: mas_blk_dump_queue_status:prefix <- undef
	.loc	6 402 20                        // kernel/platform_source/basicplatform/block/mas_blk_dump.c:402:20
	ldur	x8, [x27, #-160]
.Ltmp440:
	//DEBUG_VALUE: mas_blk_dump_queue_status:q <- $x24
	.loc	6 402 6 is_stmt 0               // kernel/platform_source/basicplatform/block/mas_blk_dump.c:402:6
	cbnz	x8, .LBB7_13
.Ltmp441:
.LBB7_7:                                //   in Loop: Header=BB7_4 Depth=1
	//DEBUG_VALUE: mas_blk_panic_dump:mas_queue <- [DW_OP_constu 160, DW_OP_minus, DW_OP_stack_value] $x27
	//DEBUG_VALUE: mas_blk_dump_queue:lld <- $x25
	//DEBUG_VALUE: mas_blk_panic_dump:q <- $x24
	//DEBUG_VALUE: mas_blk_dump_queue:q <- $x24
	//DEBUG_VALUE: mas_blk_dump_queue:s <- 1
	//DEBUG_VALUE: mas_blk_panic_notify:buf <- [DW_OP_LLVM_entry_value 1] $x2
	//DEBUG_VALUE: mas_blk_panic_notify:event <- [DW_OP_LLVM_entry_value 1] $x1
	//DEBUG_VALUE: mas_blk_panic_notify:nb <- [DW_OP_LLVM_entry_value 1] $x0
	//DEBUG_VALUE: mas_blk_dump_counted_io:lld <- $x25
	//DEBUG_VALUE: mas_blk_dump_counted_io:s <- 1
	.file	161 "/mnt/disk/jenkins/ci/workspace/chipset_pipeline_release/opensource/component_code/vendor/huawei/extra/build/build_script/kirin_kernel_release" "kernel/include/linux/list.h"
	.loc	161 282 9 is_stmt 1             // kernel/include/linux/list.h:282:9
	ldr	x8, [x25, #384]
.Ltmp442:
	.loc	6 760 33                        // kernel/platform_source/basicplatform/block/mas_blk_dump.c:760:33
	add	x28, x25, #384                  // =384
.Ltmp443:
	//DEBUG_VALUE: list_empty:head <- $x28
	.loc	6 760 6 is_stmt 0               // kernel/platform_source/basicplatform/block/mas_blk_dump.c:760:6
	cmp	x8, x28
.Ltmp444:
	//DEBUG_VALUE: mas_blk_dump_counted_io:q <- $x24
	b.ne	.LBB7_16
.Ltmp445:
.LBB7_8:                                //   in Loop: Header=BB7_4 Depth=1
	//DEBUG_VALUE: mas_blk_panic_dump:mas_queue <- [DW_OP_constu 160, DW_OP_minus, DW_OP_stack_value] $x27
	//DEBUG_VALUE: mas_blk_dump_counted_io:lld <- $x25
	//DEBUG_VALUE: mas_blk_dump_queue:lld <- $x25
	//DEBUG_VALUE: mas_blk_dump_counted_io:q <- $x24
	//DEBUG_VALUE: mas_blk_panic_dump:q <- $x24
	//DEBUG_VALUE: mas_blk_dump_queue:q <- $x24
	//DEBUG_VALUE: mas_blk_dump_counted_io:s <- 1
	//DEBUG_VALUE: mas_blk_dump_queue:s <- 1
	//DEBUG_VALUE: mas_blk_panic_notify:buf <- [DW_OP_LLVM_entry_value 1] $x2
	//DEBUG_VALUE: mas_blk_panic_notify:event <- [DW_OP_LLVM_entry_value 1] $x1
	//DEBUG_VALUE: mas_blk_panic_notify:nb <- [DW_OP_LLVM_entry_value 1] $x0
	.loc	161 282 9 is_stmt 1             // kernel/include/linux/list.h:282:9
	ldr	x8, [x25, #400]
.Ltmp446:
	.loc	6 769 33                        // kernel/platform_source/basicplatform/block/mas_blk_dump.c:769:33
	add	x25, x25, #400                  // =400
.Ltmp447:
	//DEBUG_VALUE: list_empty:head <- $x25
	.loc	6 769 6 is_stmt 0               // kernel/platform_source/basicplatform/block/mas_blk_dump.c:769:6
	cmp	x8, x25
	b.ne	.LBB7_21
.Ltmp448:
.LBB7_9:                                //   in Loop: Header=BB7_4 Depth=1
	//DEBUG_VALUE: mas_blk_panic_dump:mas_queue <- [DW_OP_constu 160, DW_OP_minus, DW_OP_stack_value] $x27
	//DEBUG_VALUE: mas_blk_panic_dump:q <- $x24
	//DEBUG_VALUE: mas_blk_dump_queue:q <- $x24
	//DEBUG_VALUE: mas_blk_dump_queue:s <- 1
	//DEBUG_VALUE: mas_blk_panic_notify:buf <- [DW_OP_LLVM_entry_value 1] $x2
	//DEBUG_VALUE: mas_blk_panic_notify:event <- [DW_OP_LLVM_entry_value 1] $x1
	//DEBUG_VALUE: mas_blk_panic_notify:nb <- [DW_OP_LLVM_entry_value 1] $x0
	.loc	6 800 9 is_stmt 1               // kernel/platform_source/basicplatform/block/mas_blk_dump.c:800:9
	ldr	x8, [x27, #104]
	.loc	6 800 23 is_stmt 0              // kernel/platform_source/basicplatform/block/mas_blk_dump.c:800:23
	cbz	x8, .LBB7_3
.Ltmp449:
// %bb.10:                              //   in Loop: Header=BB7_4 Depth=1
	//DEBUG_VALUE: mas_blk_panic_dump:mas_queue <- [DW_OP_constu 160, DW_OP_minus, DW_OP_stack_value] $x27
	//DEBUG_VALUE: mas_blk_panic_dump:q <- $x24
	//DEBUG_VALUE: mas_blk_dump_queue:q <- $x24
	//DEBUG_VALUE: mas_blk_dump_queue:s <- 1
	//DEBUG_VALUE: mas_blk_panic_notify:buf <- [DW_OP_LLVM_entry_value 1] $x2
	//DEBUG_VALUE: mas_blk_panic_notify:event <- [DW_OP_LLVM_entry_value 1] $x1
	//DEBUG_VALUE: mas_blk_panic_notify:nb <- [DW_OP_LLVM_entry_value 1] $x0
	.loc	6 800 44                        // kernel/platform_source/basicplatform/block/mas_blk_dump.c:800:44
	ldr	x8, [x8, #176]
.Ltmp450:
	.loc	6 800 6                         // kernel/platform_source/basicplatform/block/mas_blk_dump.c:800:6
	cbz	x8, .LBB7_3
.Ltmp451:
// %bb.11:                              //   in Loop: Header=BB7_4 Depth=1
	//DEBUG_VALUE: mas_blk_panic_dump:mas_queue <- [DW_OP_constu 160, DW_OP_minus, DW_OP_stack_value] $x27
	//DEBUG_VALUE: mas_blk_panic_dump:q <- $x24
	//DEBUG_VALUE: mas_blk_dump_queue:q <- $x24
	//DEBUG_VALUE: mas_blk_dump_queue:s <- 1
	//DEBUG_VALUE: mas_blk_panic_notify:buf <- [DW_OP_LLVM_entry_value 1] $x2
	//DEBUG_VALUE: mas_blk_panic_notify:event <- [DW_OP_LLVM_entry_value 1] $x1
	//DEBUG_VALUE: mas_blk_panic_notify:nb <- [DW_OP_LLVM_entry_value 1] $x0
	.loc	6 801 3 is_stmt 1               // kernel/platform_source/basicplatform/block/mas_blk_dump.c:801:3
	mov	w1, #1
	mov	x0, x24
	blr	x8
.Ltmp452:
	.loc	6 0 3 is_stmt 0                 // kernel/platform_source/basicplatform/block/mas_blk_dump.c:0:3
	b	.LBB7_3
.Ltmp453:
.LBB7_12:                               //   in Loop: Header=BB7_4 Depth=1
	//DEBUG_VALUE: mas_blk_panic_dump:mas_queue <- [DW_OP_constu 160, DW_OP_minus, DW_OP_stack_value] $x27
	//DEBUG_VALUE: mas_blk_dump_queue:lld <- $x25
	//DEBUG_VALUE: mas_blk_panic_dump:q <- $x24
	//DEBUG_VALUE: mas_blk_dump_queue:q <- $x24
	//DEBUG_VALUE: mas_blk_dump_queue:s <- 1
	//DEBUG_VALUE: mas_blk_panic_notify:buf <- [DW_OP_LLVM_entry_value 1] $x2
	//DEBUG_VALUE: mas_blk_panic_notify:event <- [DW_OP_LLVM_entry_value 1] $x1
	//DEBUG_VALUE: mas_blk_panic_notify:nb <- [DW_OP_LLVM_entry_value 1] $x0
	.loc	6 786 3 is_stmt 1               // kernel/platform_source/basicplatform/block/mas_blk_dump.c:786:3
	mov	x0, x25
	mov	x1, xzr
	mov	w2, wzr
	bl	mas_blk_dump_lld_status
.Ltmp454:
	.loc	6 787 3                         // kernel/platform_source/basicplatform/block/mas_blk_dump.c:787:3
	ldp	x1, x2, [x25, #368]
	mov	x0, x23
	bl	printk
.Ltmp455:
	.loc	6 789 8                         // kernel/platform_source/basicplatform/block/mas_blk_dump.c:789:8
	ldr	x8, [x25, #40]
	.loc	6 789 3 is_stmt 0               // kernel/platform_source/basicplatform/block/mas_blk_dump.c:789:3
	mov	w1, #1
	mov	x0, x24
	blr	x8
.Ltmp456:
	.loc	6 790 16 is_stmt 1              // kernel/platform_source/basicplatform/block/mas_blk_dump.c:790:16
	str	xzr, [x25, #40]
.Ltmp457:
	//DEBUG_VALUE: mas_blk_dump_queue_status:s <- 1
	//DEBUG_VALUE: mas_blk_dump_queue_status:prefix <- undef
	.loc	6 402 20                        // kernel/platform_source/basicplatform/block/mas_blk_dump.c:402:20
	ldur	x8, [x27, #-160]
.Ltmp458:
	//DEBUG_VALUE: mas_blk_dump_queue_status:q <- $x24
	.loc	6 402 6 is_stmt 0               // kernel/platform_source/basicplatform/block/mas_blk_dump.c:402:6
	cbz	x8, .LBB7_7
.Ltmp459:
.LBB7_13:                               //   in Loop: Header=BB7_4 Depth=1
	//DEBUG_VALUE: mas_blk_panic_dump:mas_queue <- [DW_OP_constu 160, DW_OP_minus, DW_OP_stack_value] $x27
	//DEBUG_VALUE: mas_blk_dump_queue:lld <- $x25
	//DEBUG_VALUE: mas_blk_dump_queue_status:q <- $x24
	//DEBUG_VALUE: mas_blk_panic_dump:q <- $x24
	//DEBUG_VALUE: mas_blk_dump_queue:q <- $x24
	//DEBUG_VALUE: mas_blk_dump_queue_status:s <- 1
	//DEBUG_VALUE: mas_blk_dump_queue:s <- 1
	//DEBUG_VALUE: mas_blk_panic_notify:buf <- [DW_OP_LLVM_entry_value 1] $x2
	//DEBUG_VALUE: mas_blk_panic_notify:event <- [DW_OP_LLVM_entry_value 1] $x1
	//DEBUG_VALUE: mas_blk_panic_notify:nb <- [DW_OP_LLVM_entry_value 1] $x0
	.loc	6 405 75 is_stmt 1              // kernel/platform_source/basicplatform/block/mas_blk_dump.c:405:75
	add	x1, x8, #56                     // =56
	.loc	6 405 2 is_stmt 0               // kernel/platform_source/basicplatform/block/mas_blk_dump.c:405:2
	add	x2, sp, #8                      // =8
	mov	x0, x24
	bl	blk_mq_in_flight_rw
.Ltmp460:
	.loc	6 407 2 is_stmt 1               // kernel/platform_source/basicplatform/block/mas_blk_dump.c:407:2
	ldur	x8, [x27, #-160]
	ldurb	w9, [x27, #-152]
	ldp	w4, w5, [sp, #8]
	mov	x0, x21
	add	x2, x8, #12                     // =12
	adrp	x8, .L.str.12
	cmp	w9, #0                          // =0
	add	x8, x8, :lo12:.L.str.12
	csel	x3, x19, x8, eq
.Ltmp461:
	//DEBUG_VALUE: mas_blk_dump_queue_status:prefix <- $x22
	mov	x1, x22
	bl	printk
.Ltmp462:
	.loc	6 428 3                         // kernel/platform_source/basicplatform/block/mas_blk_dump.c:428:3
	mov	x0, x24
	mov	x1, xzr
	mov	w2, wzr
	bl	mas_blk_dump_queue_status2
.Ltmp463:
	.loc	6 430 9                         // kernel/platform_source/basicplatform/block/mas_blk_dump.c:430:9
	ldr	x8, [x27, #104]
	.loc	6 430 23 is_stmt 0              // kernel/platform_source/basicplatform/block/mas_blk_dump.c:430:23
	cbz	x8, .LBB7_7
.Ltmp464:
// %bb.14:                              //   in Loop: Header=BB7_4 Depth=1
	//DEBUG_VALUE: mas_blk_panic_dump:mas_queue <- [DW_OP_constu 160, DW_OP_minus, DW_OP_stack_value] $x27
	//DEBUG_VALUE: mas_blk_dump_queue:lld <- $x25
	//DEBUG_VALUE: mas_blk_dump_queue_status:q <- $x24
	//DEBUG_VALUE: mas_blk_panic_dump:q <- $x24
	//DEBUG_VALUE: mas_blk_dump_queue:q <- $x24
	//DEBUG_VALUE: mas_blk_dump_queue_status:prefix <- $x22
	//DEBUG_VALUE: mas_blk_dump_queue_status:s <- 1
	//DEBUG_VALUE: mas_blk_dump_queue:s <- 1
	//DEBUG_VALUE: mas_blk_panic_notify:buf <- [DW_OP_LLVM_entry_value 1] $x2
	//DEBUG_VALUE: mas_blk_panic_notify:event <- [DW_OP_LLVM_entry_value 1] $x1
	//DEBUG_VALUE: mas_blk_panic_notify:nb <- [DW_OP_LLVM_entry_value 1] $x0
	.loc	6 430 44                        // kernel/platform_source/basicplatform/block/mas_blk_dump.c:430:44
	ldr	x8, [x8, #168]
.Ltmp465:
	.loc	6 430 6                         // kernel/platform_source/basicplatform/block/mas_blk_dump.c:430:6
	cbz	x8, .LBB7_7
.Ltmp466:
// %bb.15:                              //   in Loop: Header=BB7_4 Depth=1
	//DEBUG_VALUE: mas_blk_panic_dump:mas_queue <- [DW_OP_constu 160, DW_OP_minus, DW_OP_stack_value] $x27
	//DEBUG_VALUE: mas_blk_dump_queue:lld <- $x25
	//DEBUG_VALUE: mas_blk_dump_queue_status:q <- $x24
	//DEBUG_VALUE: mas_blk_panic_dump:q <- $x24
	//DEBUG_VALUE: mas_blk_dump_queue:q <- $x24
	//DEBUG_VALUE: mas_blk_dump_queue_status:prefix <- $x22
	//DEBUG_VALUE: mas_blk_dump_queue_status:s <- 1
	//DEBUG_VALUE: mas_blk_dump_queue:s <- 1
	//DEBUG_VALUE: mas_blk_panic_notify:buf <- [DW_OP_LLVM_entry_value 1] $x2
	//DEBUG_VALUE: mas_blk_panic_notify:event <- [DW_OP_LLVM_entry_value 1] $x1
	//DEBUG_VALUE: mas_blk_panic_notify:nb <- [DW_OP_LLVM_entry_value 1] $x0
	.loc	6 431 3 is_stmt 1               // kernel/platform_source/basicplatform/block/mas_blk_dump.c:431:3
	mov	w1, #1
	mov	x0, x24
	blr	x8
.Ltmp467:
	.loc	6 0 3 is_stmt 0                 // kernel/platform_source/basicplatform/block/mas_blk_dump.c:0:3
	b	.LBB7_7
.Ltmp468:
.LBB7_16:                               //   in Loop: Header=BB7_4 Depth=1
	//DEBUG_VALUE: mas_blk_panic_dump:mas_queue <- [DW_OP_constu 160, DW_OP_minus, DW_OP_stack_value] $x27
	//DEBUG_VALUE: mas_blk_dump_counted_io:lld <- $x25
	//DEBUG_VALUE: mas_blk_dump_queue:lld <- $x25
	//DEBUG_VALUE: mas_blk_dump_counted_io:q <- $x24
	//DEBUG_VALUE: mas_blk_panic_dump:q <- $x24
	//DEBUG_VALUE: mas_blk_dump_queue:q <- $x24
	//DEBUG_VALUE: mas_blk_dump_counted_io:s <- 1
	//DEBUG_VALUE: mas_blk_dump_queue:s <- 1
	//DEBUG_VALUE: mas_blk_panic_notify:buf <- [DW_OP_LLVM_entry_value 1] $x2
	//DEBUG_VALUE: mas_blk_panic_notify:event <- [DW_OP_LLVM_entry_value 1] $x1
	//DEBUG_VALUE: mas_blk_panic_notify:nb <- [DW_OP_LLVM_entry_value 1] $x0
	//DEBUG_VALUE: pos <- 0
	.loc	6 763 3 is_stmt 1               // kernel/platform_source/basicplatform/block/mas_blk_dump.c:763:3
	adrp	x0, .L.str.45
	add	x0, x0, :lo12:.L.str.45
	bl	printk
.Ltmp469:
	//DEBUG_VALUE: __mptr <- undef
	//DEBUG_VALUE: pos <- [DW_OP_constu 272, DW_OP_minus, DW_OP_stack_value] undef
	.loc	6 0 0 is_stmt 0                 // kernel/platform_source/basicplatform/block/mas_blk_dump.c:0:0
	ldr	x20, [x28]
.Ltmp470:
	//DEBUG_VALUE: pos <- [DW_OP_constu 272, DW_OP_minus, DW_OP_stack_value] $x20
	b	.LBB7_18
.Ltmp471:
.LBB7_17:                               //   in Loop: Header=BB7_18 Depth=2
	//DEBUG_VALUE: mas_blk_panic_dump:mas_queue <- [DW_OP_constu 160, DW_OP_minus, DW_OP_stack_value] $x27
	//DEBUG_VALUE: mas_blk_dump_counted_io:lld <- $x25
	//DEBUG_VALUE: mas_blk_dump_queue:lld <- $x25
	//DEBUG_VALUE: mas_blk_dump_counted_io:q <- $x24
	//DEBUG_VALUE: mas_blk_panic_dump:q <- $x24
	//DEBUG_VALUE: mas_blk_dump_queue:q <- $x24
	//DEBUG_VALUE: pos <- [DW_OP_constu 272, DW_OP_minus, DW_OP_stack_value] $x20
	//DEBUG_VALUE: mas_blk_dump_counted_io:s <- 1
	//DEBUG_VALUE: mas_blk_dump_queue:s <- 1
	//DEBUG_VALUE: mas_blk_panic_notify:buf <- [DW_OP_LLVM_entry_value 1] $x2
	//DEBUG_VALUE: mas_blk_panic_notify:event <- [DW_OP_LLVM_entry_value 1] $x1
	//DEBUG_VALUE: mas_blk_panic_notify:nb <- [DW_OP_LLVM_entry_value 1] $x0
	//DEBUG_VALUE: pos <- [DW_OP_constu 272, DW_OP_minus, DW_OP_stack_value] undef
	//DEBUG_VALUE: __mptr <- undef
	ldr	x20, [x20]
.Ltmp472:
	//DEBUG_VALUE: pos <- [DW_OP_constu 272, DW_OP_minus, DW_OP_stack_value] $x20
.LBB7_18:                               //   Parent Loop BB7_4 Depth=1
                                        // =>  This Inner Loop Header: Depth=2
	//DEBUG_VALUE: mas_blk_panic_dump:mas_queue <- [DW_OP_constu 160, DW_OP_minus, DW_OP_stack_value] $x27
	//DEBUG_VALUE: mas_blk_dump_counted_io:lld <- $x25
	//DEBUG_VALUE: mas_blk_dump_queue:lld <- $x25
	//DEBUG_VALUE: mas_blk_dump_counted_io:q <- $x24
	//DEBUG_VALUE: mas_blk_panic_dump:q <- $x24
	//DEBUG_VALUE: mas_blk_dump_queue:q <- $x24
	//DEBUG_VALUE: pos <- [DW_OP_constu 272, DW_OP_minus, DW_OP_stack_value] $x20
	//DEBUG_VALUE: mas_blk_dump_counted_io:s <- 1
	//DEBUG_VALUE: mas_blk_dump_queue:s <- 1
	//DEBUG_VALUE: mas_blk_panic_notify:buf <- [DW_OP_LLVM_entry_value 1] $x2
	//DEBUG_VALUE: mas_blk_panic_notify:event <- [DW_OP_LLVM_entry_value 1] $x1
	//DEBUG_VALUE: mas_blk_panic_notify:nb <- [DW_OP_LLVM_entry_value 1] $x0
	.loc	6 764 3 is_stmt 1               // kernel/platform_source/basicplatform/block/mas_blk_dump.c:764:3
	cmp	x28, x20
	b.eq	.LBB7_8
.Ltmp473:
// %bb.19:                              //   in Loop: Header=BB7_18 Depth=2
	//DEBUG_VALUE: mas_blk_panic_dump:mas_queue <- [DW_OP_constu 160, DW_OP_minus, DW_OP_stack_value] $x27
	//DEBUG_VALUE: mas_blk_dump_counted_io:lld <- $x25
	//DEBUG_VALUE: mas_blk_dump_queue:lld <- $x25
	//DEBUG_VALUE: mas_blk_dump_counted_io:q <- $x24
	//DEBUG_VALUE: mas_blk_panic_dump:q <- $x24
	//DEBUG_VALUE: mas_blk_dump_queue:q <- $x24
	//DEBUG_VALUE: pos <- [DW_OP_constu 272, DW_OP_minus, DW_OP_stack_value] $x20
	//DEBUG_VALUE: mas_blk_dump_counted_io:s <- 1
	//DEBUG_VALUE: mas_blk_dump_queue:s <- 1
	//DEBUG_VALUE: mas_blk_panic_notify:buf <- [DW_OP_LLVM_entry_value 1] $x2
	//DEBUG_VALUE: mas_blk_panic_notify:event <- [DW_OP_LLVM_entry_value 1] $x1
	//DEBUG_VALUE: mas_blk_panic_notify:nb <- [DW_OP_LLVM_entry_value 1] $x0
	.loc	6 765 21                        // kernel/platform_source/basicplatform/block/mas_blk_dump.c:765:21
	ldur	x8, [x20, #-192]
.Ltmp474:
	.loc	6 765 8 is_stmt 0               // kernel/platform_source/basicplatform/block/mas_blk_dump.c:765:8
	cmp	x8, x24
	b.ne	.LBB7_17
.Ltmp475:
// %bb.20:                              //   in Loop: Header=BB7_18 Depth=2
	//DEBUG_VALUE: mas_blk_panic_dump:mas_queue <- [DW_OP_constu 160, DW_OP_minus, DW_OP_stack_value] $x27
	//DEBUG_VALUE: mas_blk_dump_counted_io:lld <- $x25
	//DEBUG_VALUE: mas_blk_dump_queue:lld <- $x25
	//DEBUG_VALUE: mas_blk_dump_counted_io:q <- $x24
	//DEBUG_VALUE: mas_blk_panic_dump:q <- $x24
	//DEBUG_VALUE: mas_blk_dump_queue:q <- $x24
	//DEBUG_VALUE: pos <- [DW_OP_constu 272, DW_OP_minus, DW_OP_stack_value] $x20
	//DEBUG_VALUE: mas_blk_dump_counted_io:s <- 1
	//DEBUG_VALUE: mas_blk_dump_queue:s <- 1
	//DEBUG_VALUE: mas_blk_panic_notify:buf <- [DW_OP_LLVM_entry_value 1] $x2
	//DEBUG_VALUE: mas_blk_panic_notify:event <- [DW_OP_LLVM_entry_value 1] $x1
	//DEBUG_VALUE: mas_blk_panic_notify:nb <- [DW_OP_LLVM_entry_value 1] $x0
	.loc	6 0 0                           // kernel/platform_source/basicplatform/block/mas_blk_dump.c:0:0
	sub	x0, x20, #272                   // =272
.Ltmp476:
	.loc	6 766 5 is_stmt 1               // kernel/platform_source/basicplatform/block/mas_blk_dump.c:766:5
	mov	w1, #1
	bl	mas_blk_dump_bio
.Ltmp477:
	.loc	6 0 5 is_stmt 0                 // kernel/platform_source/basicplatform/block/mas_blk_dump.c:0:5
	b	.LBB7_17
.Ltmp478:
.LBB7_21:                               //   in Loop: Header=BB7_4 Depth=1
	//DEBUG_VALUE: mas_blk_panic_dump:mas_queue <- [DW_OP_constu 160, DW_OP_minus, DW_OP_stack_value] $x27
	//DEBUG_VALUE: mas_blk_dump_counted_io:q <- $x24
	//DEBUG_VALUE: mas_blk_panic_dump:q <- $x24
	//DEBUG_VALUE: mas_blk_dump_queue:q <- $x24
	//DEBUG_VALUE: mas_blk_dump_counted_io:s <- 1
	//DEBUG_VALUE: mas_blk_dump_queue:s <- 1
	//DEBUG_VALUE: mas_blk_panic_notify:buf <- [DW_OP_LLVM_entry_value 1] $x2
	//DEBUG_VALUE: mas_blk_panic_notify:event <- [DW_OP_LLVM_entry_value 1] $x1
	//DEBUG_VALUE: mas_blk_panic_notify:nb <- [DW_OP_LLVM_entry_value 1] $x0
	//DEBUG_VALUE: pos <- 0
	.loc	6 772 3 is_stmt 1               // kernel/platform_source/basicplatform/block/mas_blk_dump.c:772:3
	adrp	x0, .L.str.46
	add	x0, x0, :lo12:.L.str.46
	bl	printk
.Ltmp479:
	//DEBUG_VALUE: __mptr <- undef
	//DEBUG_VALUE: pos <- [DW_OP_constu 624, DW_OP_minus, DW_OP_stack_value] undef
	.loc	6 0 0 is_stmt 0                 // kernel/platform_source/basicplatform/block/mas_blk_dump.c:0:0
	ldr	x28, [x25]
.Ltmp480:
	//DEBUG_VALUE: pos <- [DW_OP_constu 624, DW_OP_minus, DW_OP_stack_value] $x28
	b	.LBB7_23
.Ltmp481:
.LBB7_22:                               //   in Loop: Header=BB7_23 Depth=2
	//DEBUG_VALUE: pos <- [DW_OP_constu 624, DW_OP_minus, DW_OP_stack_value] $x28
	//DEBUG_VALUE: mas_blk_panic_dump:mas_queue <- [DW_OP_constu 160, DW_OP_minus, DW_OP_stack_value] $x27
	//DEBUG_VALUE: mas_blk_dump_counted_io:q <- $x24
	//DEBUG_VALUE: mas_blk_panic_dump:q <- $x24
	//DEBUG_VALUE: mas_blk_dump_queue:q <- $x24
	//DEBUG_VALUE: mas_blk_dump_counted_io:s <- 1
	//DEBUG_VALUE: mas_blk_dump_queue:s <- 1
	//DEBUG_VALUE: mas_blk_panic_notify:buf <- [DW_OP_LLVM_entry_value 1] $x2
	//DEBUG_VALUE: mas_blk_panic_notify:event <- [DW_OP_LLVM_entry_value 1] $x1
	//DEBUG_VALUE: mas_blk_panic_notify:nb <- [DW_OP_LLVM_entry_value 1] $x0
	//DEBUG_VALUE: pos <- [DW_OP_constu 624, DW_OP_minus, DW_OP_stack_value] undef
	//DEBUG_VALUE: __mptr <- undef
	ldr	x28, [x28]
.Ltmp482:
	//DEBUG_VALUE: pos <- [DW_OP_constu 624, DW_OP_minus, DW_OP_stack_value] $x28
.LBB7_23:                               //   Parent Loop BB7_4 Depth=1
                                        // =>  This Inner Loop Header: Depth=2
	//DEBUG_VALUE: pos <- [DW_OP_constu 624, DW_OP_minus, DW_OP_stack_value] $x28
	//DEBUG_VALUE: mas_blk_panic_dump:mas_queue <- [DW_OP_constu 160, DW_OP_minus, DW_OP_stack_value] $x27
	//DEBUG_VALUE: mas_blk_dump_counted_io:q <- $x24
	//DEBUG_VALUE: mas_blk_panic_dump:q <- $x24
	//DEBUG_VALUE: mas_blk_dump_queue:q <- $x24
	//DEBUG_VALUE: mas_blk_dump_counted_io:s <- 1
	//DEBUG_VALUE: mas_blk_dump_queue:s <- 1
	//DEBUG_VALUE: mas_blk_panic_notify:buf <- [DW_OP_LLVM_entry_value 1] $x2
	//DEBUG_VALUE: mas_blk_panic_notify:event <- [DW_OP_LLVM_entry_value 1] $x1
	//DEBUG_VALUE: mas_blk_panic_notify:nb <- [DW_OP_LLVM_entry_value 1] $x0
	.loc	6 773 3 is_stmt 1               // kernel/platform_source/basicplatform/block/mas_blk_dump.c:773:3
	cmp	x25, x28
	b.eq	.LBB7_9
.Ltmp483:
// %bb.24:                              //   in Loop: Header=BB7_23 Depth=2
	//DEBUG_VALUE: pos <- [DW_OP_constu 624, DW_OP_minus, DW_OP_stack_value] $x28
	//DEBUG_VALUE: mas_blk_panic_dump:mas_queue <- [DW_OP_constu 160, DW_OP_minus, DW_OP_stack_value] $x27
	//DEBUG_VALUE: mas_blk_dump_counted_io:q <- $x24
	//DEBUG_VALUE: mas_blk_panic_dump:q <- $x24
	//DEBUG_VALUE: mas_blk_dump_queue:q <- $x24
	//DEBUG_VALUE: mas_blk_dump_counted_io:s <- 1
	//DEBUG_VALUE: mas_blk_dump_queue:s <- 1
	//DEBUG_VALUE: mas_blk_panic_notify:buf <- [DW_OP_LLVM_entry_value 1] $x2
	//DEBUG_VALUE: mas_blk_panic_notify:event <- [DW_OP_LLVM_entry_value 1] $x1
	//DEBUG_VALUE: mas_blk_panic_notify:nb <- [DW_OP_LLVM_entry_value 1] $x0
	.loc	6 0 0 is_stmt 0                 // kernel/platform_source/basicplatform/block/mas_blk_dump.c:0:0
	sub	x0, x28, #624                   // =624
.Ltmp484:
	.loc	6 774 13 is_stmt 1              // kernel/platform_source/basicplatform/block/mas_blk_dump.c:774:13
	ldr	x8, [x0]
.Ltmp485:
	.loc	6 774 8 is_stmt 0               // kernel/platform_source/basicplatform/block/mas_blk_dump.c:774:8
	cmp	x8, x24
	b.ne	.LBB7_22
.Ltmp486:
// %bb.25:                              //   in Loop: Header=BB7_23 Depth=2
	//DEBUG_VALUE: pos <- [DW_OP_constu 624, DW_OP_minus, DW_OP_stack_value] $x28
	//DEBUG_VALUE: mas_blk_panic_dump:mas_queue <- [DW_OP_constu 160, DW_OP_minus, DW_OP_stack_value] $x27
	//DEBUG_VALUE: mas_blk_dump_counted_io:q <- $x24
	//DEBUG_VALUE: mas_blk_panic_dump:q <- $x24
	//DEBUG_VALUE: mas_blk_dump_queue:q <- $x24
	//DEBUG_VALUE: mas_blk_dump_counted_io:s <- 1
	//DEBUG_VALUE: mas_blk_dump_queue:s <- 1
	//DEBUG_VALUE: mas_blk_panic_notify:buf <- [DW_OP_LLVM_entry_value 1] $x2
	//DEBUG_VALUE: mas_blk_panic_notify:event <- [DW_OP_LLVM_entry_value 1] $x1
	//DEBUG_VALUE: mas_blk_panic_notify:nb <- [DW_OP_LLVM_entry_value 1] $x0
	.loc	6 775 5 is_stmt 1               // kernel/platform_source/basicplatform/block/mas_blk_dump.c:775:5
	mov	w1, #1
	bl	mas_blk_dump_request
.Ltmp487:
	.loc	6 0 5 is_stmt 0                 // kernel/platform_source/basicplatform/block/mas_blk_dump.c:0:5
	b	.LBB7_22
.Ltmp488:
.Lfunc_end7:
	.size	mas_blk_panic_notify, .Lfunc_end7-mas_blk_panic_notify
	.cfi_endproc
                                        // -- End function
	.globl	mas_blk_dump_register_queue     // -- Begin function mas_blk_dump_register_queue
	.p2align	2
	.type	mas_blk_dump_register_queue,@function
mas_blk_dump_register_queue:            // @mas_blk_dump_register_queue
.Lfunc_begin8:
	.loc	6 916 0 is_stmt 1               // kernel/platform_source/basicplatform/block/mas_blk_dump.c:916:0
	.cfi_startproc
// %bb.0:
	//DEBUG_VALUE: mas_blk_dump_register_queue:q <- $x0
	hint	#25
	.cfi_negate_ra_state
	stp	x29, x30, [sp, #-48]!           // 16-byte Folded Spill
	stp	x22, x21, [sp, #16]             // 16-byte Folded Spill
	stp	x20, x19, [sp, #32]             // 16-byte Folded Spill
	mov	x29, sp
	.cfi_def_cfa w29, 48
	.cfi_offset w19, -8
	.cfi_offset w20, -16
	.cfi_offset w21, -24
	.cfi_offset w22, -32
	.cfi_offset w30, -40
	.cfi_offset w29, -48
	mov	x19, x0
.Ltmp489:
	//DEBUG_VALUE: mas_blk_dump_register_queue:q <- $x19
	.loc	6 917 32 prologue_end           // kernel/platform_source/basicplatform/block/mas_blk_dump.c:917:32
	bl	mas_blk_get_lld
.Ltmp490:
	//DEBUG_VALUE: mas_blk_dump_register_queue:blk_lld <- $x0
	.loc	6 919 6                         // kernel/platform_source/basicplatform/block/mas_blk_dump.c:919:6
	ldrb	w8, [x0, #24]
	tbz	w8, #0, .LBB8_5
.Ltmp491:
// %bb.1:
	//DEBUG_VALUE: mas_blk_dump_register_queue:q <- $x19
	//DEBUG_VALUE: mas_blk_dump_register_queue:blk_lld <- $x0
	.loc	161 282 9                       // kernel/include/linux/list.h:282:9
	ldr	x8, [x19, #1336]
.Ltmp492:
	.loc	6 920 33                        // kernel/platform_source/basicplatform/block/mas_blk_dump.c:920:33
	add	x20, x19, #1336                 // =1336
.Ltmp493:
	//DEBUG_VALUE: list_empty:head <- $x20
	.loc	6 920 7 is_stmt 0               // kernel/platform_source/basicplatform/block/mas_blk_dump.c:920:7
	cmp	x8, x20
	b.ne	.LBB8_5
.Ltmp494:
// %bb.2:
	//DEBUG_VALUE: mas_blk_dump_register_queue:q <- $x19
	//DEBUG_VALUE: mas_blk_dump_register_queue:blk_lld <- $x0
	.loc	156 354 2 is_stmt 1             // kernel/include/linux/spinlock.h:354:2
	adrp	x0, dump_list_lock
.Ltmp495:
	add	x0, x0, :lo12:dump_list_lock
.Ltmp496:
	//DEBUG_VALUE: spin_lock:lock <- $x0
	bl	_raw_spin_lock
.Ltmp497:
	//DEBUG_VALUE: list_add_tail:new <- $x20
	.loc	161 100 24                      // kernel/include/linux/list.h:100:24
	adrp	x22, dump_list
	add	x22, x22, :lo12:dump_list
.Ltmp498:
	//DEBUG_VALUE: list_add_tail:head <- $x22
	ldr	x21, [x22, #8]
.Ltmp499:
	//DEBUG_VALUE: __list_add:new <- $x20
	//DEBUG_VALUE: __list_add:prev <- $x21
	//DEBUG_VALUE: __list_add:next <- $x22
	.loc	161 67 7                        // kernel/include/linux/list.h:67:7
	mov	x0, x20
	mov	x2, x22
	mov	x1, x21
	bl	__list_add_valid
.Ltmp500:
	.loc	161 67 6 is_stmt 0              // kernel/include/linux/list.h:67:6
	tbz	w0, #0, .LBB8_4
.Ltmp501:
// %bb.3:
	//DEBUG_VALUE: __list_add:next <- $x22
	//DEBUG_VALUE: list_add_tail:head <- $x22
	//DEBUG_VALUE: __list_add:prev <- $x21
	//DEBUG_VALUE: __list_add:new <- $x20
	//DEBUG_VALUE: list_add_tail:new <- $x20
	//DEBUG_VALUE: mas_blk_dump_register_queue:q <- $x19
	.loc	161 70 13 is_stmt 1             // kernel/include/linux/list.h:70:13
	str	x20, [x22, #8]
	.loc	161 71 12                       // kernel/include/linux/list.h:71:12
	str	x22, [x19, #1336]
	.loc	161 72 12                       // kernel/include/linux/list.h:72:12
	str	x21, [x19, #1344]
.Ltmp502:
	.loc	161 73 2                        // kernel/include/linux/list.h:73:2
	str	x20, [x21]
.Ltmp503:
.LBB8_4:
	//DEBUG_VALUE: mas_blk_dump_register_queue:q <- $x19
	.loc	156 394 2                       // kernel/include/linux/spinlock.h:394:2
	adrp	x0, dump_list_lock
	add	x0, x0, :lo12:dump_list_lock
.Ltmp504:
	//DEBUG_VALUE: spin_unlock:lock <- $x0
	bl	_raw_spin_unlock
.Ltmp505:
.LBB8_5:
	//DEBUG_VALUE: mas_blk_dump_register_queue:q <- $x19
	.loc	6 926 1                         // kernel/platform_source/basicplatform/block/mas_blk_dump.c:926:1
	ldp	x20, x19, [sp, #32]             // 16-byte Folded Reload
.Ltmp506:
	//DEBUG_VALUE: mas_blk_dump_register_queue:q <- [DW_OP_LLVM_entry_value 1] $x0
	ldp	x22, x21, [sp, #16]             // 16-byte Folded Reload
	ldp	x29, x30, [sp], #48             // 16-byte Folded Reload
	hint	#29
	ret
.Ltmp507:
.Lfunc_end8:
	.size	mas_blk_dump_register_queue, .Lfunc_end8-mas_blk_dump_register_queue
	.cfi_endproc
                                        // -- End function
	.globl	mas_blk_dump_unregister_queue   // -- Begin function mas_blk_dump_unregister_queue
	.p2align	2
	.type	mas_blk_dump_unregister_queue,@function
mas_blk_dump_unregister_queue:          // @mas_blk_dump_unregister_queue
.Lfunc_begin9:
	.loc	6 932 0                         // kernel/platform_source/basicplatform/block/mas_blk_dump.c:932:0
	.cfi_startproc
// %bb.0:
	//DEBUG_VALUE: mas_blk_dump_unregister_queue:q <- $x0
	hint	#25
	.cfi_negate_ra_state
	stp	x29, x30, [sp, #-32]!           // 16-byte Folded Spill
	stp	x20, x19, [sp, #16]             // 16-byte Folded Spill
	mov	x29, sp
	.cfi_def_cfa w29, 32
	.cfi_offset w19, -8
	.cfi_offset w20, -16
	.cfi_offset w30, -24
	.cfi_offset w29, -32
	mov	x20, x0
.Ltmp508:
	//DEBUG_VALUE: mas_blk_dump_unregister_queue:q <- $x20
	//DEBUG_VALUE: mas_blk_dump_unregister_queue:mas_queue_backup <- 0
	//DEBUG_VALUE: mas_blk_dump_unregister_queue:mas_queue <- 0
	//DEBUG_VALUE: mas_blk_dump_unregister_queue:q_node <- 0
	//DEBUG_VALUE: mas_blk_dump_unregister_queue:q <- $x20
	.loc	156 354 2 prologue_end          // kernel/include/linux/spinlock.h:354:2
	adrp	x0, dump_list_lock
	add	x0, x0, :lo12:dump_list_lock
.Ltmp509:
	//DEBUG_VALUE: spin_lock:lock <- $x0
	bl	_raw_spin_lock
.Ltmp510:
	.loc	156 0 2 is_stmt 0               // kernel/include/linux/spinlock.h:0:2
	adrp	x8, dump_list
	add	x8, x8, :lo12:dump_list
.Ltmp511:
	//DEBUG_VALUE: mas_blk_dump_unregister_queue:mas_queue_backup <- [DW_OP_constu 160, DW_OP_minus, DW_OP_stack_value] undef
	//DEBUG_VALUE: mas_blk_dump_unregister_queue:mas_queue <- [DW_OP_constu 160, DW_OP_minus, DW_OP_stack_value] undef
	mov	x19, x8
.Ltmp512:
.LBB9_1:                                // =>This Inner Loop Header: Depth=1
	//DEBUG_VALUE: mas_blk_dump_unregister_queue:q <- $x20
	ldr	x19, [x19]
.Ltmp513:
	//DEBUG_VALUE: mas_blk_dump_unregister_queue:mas_queue_backup <- [DW_OP_constu 160, DW_OP_minus, DW_OP_stack_value] undef
	//DEBUG_VALUE: mas_blk_dump_unregister_queue:mas_queue <- [DW_OP_constu 160, DW_OP_minus, DW_OP_stack_value] $x19
	.loc	6 938 2 is_stmt 1               // kernel/platform_source/basicplatform/block/mas_blk_dump.c:938:2
	cmp	x19, x8
	b.eq	.LBB9_6
.Ltmp514:
// %bb.2:                               //   in Loop: Header=BB9_1 Depth=1
	//DEBUG_VALUE: mas_blk_dump_unregister_queue:q <- $x20
	//DEBUG_VALUE: mas_blk_dump_unregister_queue:mas_queue <- [DW_OP_constu 160, DW_OP_minus, DW_OP_stack_value] $x19
	//DEBUG_VALUE: mas_blk_dump_unregister_queue:mas_queue <- [DW_OP_constu 160, DW_OP_minus, DW_OP_stack_value] $x19
	//DEBUG_VALUE: mas_blk_dump_unregister_queue:mas_queue_backup <- [DW_OP_constu 160, DW_OP_minus, DW_OP_stack_value] undef
	//DEBUG_VALUE: __mptr <- [DW_OP_constu 160, DW_OP_minus, DW_OP_stack_value] $x19
	.loc	6 940 36                        // kernel/platform_source/basicplatform/block/mas_blk_dump.c:940:36
	sub	x9, x19, #1336                  // =1336
.Ltmp515:
	//DEBUG_VALUE: mas_blk_dump_unregister_queue:q_node <- $x9
	.loc	6 942 7                         // kernel/platform_source/basicplatform/block/mas_blk_dump.c:942:7
	cmp	x9, x20
	b.ne	.LBB9_1
.Ltmp516:
// %bb.3:
	//DEBUG_VALUE: mas_blk_dump_unregister_queue:q <- $x20
	//DEBUG_VALUE: mas_blk_dump_unregister_queue:mas_queue <- [DW_OP_constu 160, DW_OP_minus, DW_OP_stack_value] $x19
	//DEBUG_VALUE: mas_blk_dump_unregister_queue:q_node <- $x9
	//DEBUG_VALUE: list_del:entry <- $x19
	//DEBUG_VALUE: __list_del_entry:entry <- $x19
	.loc	161 132 7                       // kernel/include/linux/list.h:132:7
	mov	x0, x19
	bl	__list_del_entry_valid
.Ltmp517:
	.loc	161 132 6 is_stmt 0             // kernel/include/linux/list.h:132:6
	tbz	w0, #0, .LBB9_5
.Ltmp518:
// %bb.4:
	//DEBUG_VALUE: mas_blk_dump_unregister_queue:q <- $x20
	//DEBUG_VALUE: __list_del_entry:entry <- $x19
	//DEBUG_VALUE: list_del:entry <- $x19
	//DEBUG_VALUE: mas_blk_dump_unregister_queue:mas_queue <- [DW_OP_constu 160, DW_OP_minus, DW_OP_stack_value] $x19
	.loc	161 135 20 is_stmt 1            // kernel/include/linux/list.h:135:20
	ldp	x9, x8, [x19]
.Ltmp519:
	//DEBUG_VALUE: __list_del:prev <- $x8
	//DEBUG_VALUE: __list_del:next <- $x9
	.loc	161 112 13                      // kernel/include/linux/list.h:112:13
	str	x8, [x9, #8]
.Ltmp520:
	.loc	161 113 2                       // kernel/include/linux/list.h:113:2
	str	x9, [x8]
.Ltmp521:
.LBB9_5:
	//DEBUG_VALUE: mas_blk_dump_unregister_queue:q <- $x20
	//DEBUG_VALUE: list_del:entry <- $x19
	//DEBUG_VALUE: mas_blk_dump_unregister_queue:mas_queue <- [DW_OP_constu 160, DW_OP_minus, DW_OP_stack_value] $x19
	.loc	161 0 2 is_stmt 0               // kernel/include/linux/list.h:0:2
	mov	x8, #256
	movk	x8, #57005, lsl #48
	mov	w9, #34
	.loc	161 148 14 is_stmt 1            // kernel/include/linux/list.h:148:14
	orr	x9, x8, x9
	.loc	161 147 14                      // kernel/include/linux/list.h:147:14
	stp	x8, x9, [x19]
.Ltmp522:
.LBB9_6:
	//DEBUG_VALUE: mas_blk_dump_unregister_queue:q <- $x20
	//DEBUG_VALUE: mas_blk_dump_unregister_queue:mas_queue <- [DW_OP_constu 160, DW_OP_minus, DW_OP_stack_value] $x19
	.loc	156 394 2                       // kernel/include/linux/spinlock.h:394:2
	adrp	x0, dump_list_lock
	add	x0, x0, :lo12:dump_list_lock
.Ltmp523:
	//DEBUG_VALUE: spin_unlock:lock <- $x0
	bl	_raw_spin_unlock
.Ltmp524:
	.loc	6 948 1                         // kernel/platform_source/basicplatform/block/mas_blk_dump.c:948:1
	ldp	x20, x19, [sp, #16]             // 16-byte Folded Reload
.Ltmp525:
	ldp	x29, x30, [sp], #32             // 16-byte Folded Reload
	hint	#29
	ret
.Ltmp526:
.Lfunc_end9:
	.size	mas_blk_dump_unregister_queue, .Lfunc_end9-mas_blk_dump_unregister_queue
	.cfi_endproc
                                        // -- End function
	.section	.init.text,"ax",@progbits
	.globl	mas_blk_dump_init               // -- Begin function mas_blk_dump_init
	.p2align	2
	.type	mas_blk_dump_init,@function
mas_blk_dump_init:                      // @mas_blk_dump_init
.Lfunc_begin10:
	.loc	6 956 0                         // kernel/platform_source/basicplatform/block/mas_blk_dump.c:956:0
	.cfi_startproc
// %bb.0:
	hint	#25
	.cfi_negate_ra_state
	stp	x29, x30, [sp, #-16]!           // 16-byte Folded Spill
	mov	x29, sp
	.cfi_def_cfa w29, 16
	.cfi_offset w30, -8
	.cfi_offset w29, -16
.Ltmp527:
	.loc	6 957 2 prologue_end            // kernel/platform_source/basicplatform/block/mas_blk_dump.c:957:2
	adrp	x0, panic_notifier_list
	adrp	x1, mas_blk_panic_nb
	add	x0, x0, :lo12:panic_notifier_list
	add	x1, x1, :lo12:mas_blk_panic_nb
	bl	atomic_notifier_chain_register
.Ltmp528:
	.loc	6 959 1                         // kernel/platform_source/basicplatform/block/mas_blk_dump.c:959:1
	ldp	x29, x30, [sp], #16             // 16-byte Folded Reload
	hint	#29
	ret
.Ltmp529:
.Lfunc_end10:
	.size	mas_blk_dump_init, .Lfunc_end10-mas_blk_dump_init
	.cfi_endproc
                                        // -- End function
	.text
	.globl	blk_mq_tagset_dump_register     // -- Begin function blk_mq_tagset_dump_register
	.p2align	2
	.type	blk_mq_tagset_dump_register,@function
blk_mq_tagset_dump_register:            // @blk_mq_tagset_dump_register
.Lfunc_begin11:
	.loc	6 966 0                         // kernel/platform_source/basicplatform/block/mas_blk_dump.c:966:0
	.cfi_startproc
// %bb.0:
	.loc	6 970 20 prologue_end           // kernel/platform_source/basicplatform/block/mas_blk_dump.c:970:20
	hint	#34
.Ltmp530:
	//DEBUG_VALUE: blk_mq_tagset_dump_register:tag_set <- $x0
	//DEBUG_VALUE: blk_mq_tagset_dump_register:tag_set <- $x0
	//DEBUG_VALUE: blk_mq_tagset_dump_register:func <- $x1
	//DEBUG_VALUE: blk_mq_tagset_dump_register:func <- $x1
	//DEBUG_VALUE: blk_mq_tagset_dump_register:blk_lld <- [DW_OP_plus_uconst 64, DW_OP_stack_value] $x0
	//DEBUG_VALUE: blk_mq_tagset_dump_register:blk_lld <- [DW_OP_plus_uconst 64, DW_OP_stack_value] $x0
	ldr	x8, [x0, #88]
	.loc	6 969 19                        // kernel/platform_source/basicplatform/block/mas_blk_dump.c:969:19
	str	x1, [x0, #104]
	.loc	6 970 20                        // kernel/platform_source/basicplatform/block/mas_blk_dump.c:970:20
	orr	x8, x8, #0x1
	str	x8, [x0, #88]
	.loc	6 971 1                         // kernel/platform_source/basicplatform/block/mas_blk_dump.c:971:1
	ret
.Ltmp531:
.Lfunc_end11:
	.size	blk_mq_tagset_dump_register, .Lfunc_end11-blk_mq_tagset_dump_register
	.cfi_endproc
                                        // -- End function
	.globl	blk_queue_dump_register         // -- Begin function blk_queue_dump_register
	.p2align	2
	.type	blk_queue_dump_register,@function
blk_queue_dump_register:                // @blk_queue_dump_register
.Lfunc_begin12:
	.loc	6 977 0                         // kernel/platform_source/basicplatform/block/mas_blk_dump.c:977:0
	.cfi_startproc
// %bb.0:
	//DEBUG_VALUE: blk_queue_dump_register:q <- $x0
	//DEBUG_VALUE: blk_queue_dump_register:func <- $x1
	hint	#25
	.cfi_negate_ra_state
	stp	x29, x30, [sp, #-48]!           // 16-byte Folded Spill
	stp	x22, x21, [sp, #16]             // 16-byte Folded Spill
	stp	x20, x19, [sp, #32]             // 16-byte Folded Spill
	mov	x29, sp
	.cfi_def_cfa w29, 48
	.cfi_offset w19, -8
	.cfi_offset w20, -16
	.cfi_offset w21, -24
	.cfi_offset w22, -32
	.cfi_offset w30, -40
	.cfi_offset w29, -48
	mov	x20, x1
.Ltmp532:
	//DEBUG_VALUE: blk_queue_dump_register:func <- $x20
	mov	x19, x0
	//DEBUG_VALUE: blk_queue_dump_register:func <- $x20
.Ltmp533:
	//DEBUG_VALUE: blk_queue_dump_register:q <- $x19
	.loc	6 978 32 prologue_end           // kernel/platform_source/basicplatform/block/mas_blk_dump.c:978:32
	bl	mas_blk_get_lld
.Ltmp534:
	//DEBUG_VALUE: blk_queue_dump_register:blk_lld <- $x0
	.loc	6 981 20                        // kernel/platform_source/basicplatform/block/mas_blk_dump.c:981:20
	ldr	x8, [x0, #24]
	.loc	6 980 19                        // kernel/platform_source/basicplatform/block/mas_blk_dump.c:980:19
	str	x20, [x0, #40]
	.loc	6 981 20                        // kernel/platform_source/basicplatform/block/mas_blk_dump.c:981:20
	orr	x8, x8, #0x1
	str	x8, [x0, #24]
.Ltmp535:
	//DEBUG_VALUE: mas_blk_dump_register_queue:q <- $x19
	.loc	6 917 32                        // kernel/platform_source/basicplatform/block/mas_blk_dump.c:917:32
	mov	x0, x19
.Ltmp536:
	bl	mas_blk_get_lld
.Ltmp537:
	//DEBUG_VALUE: mas_blk_dump_register_queue:blk_lld <- $x0
	.loc	6 919 6                         // kernel/platform_source/basicplatform/block/mas_blk_dump.c:919:6
	ldrb	w8, [x0, #24]
	tbz	w8, #0, .LBB12_5
.Ltmp538:
// %bb.1:
	//DEBUG_VALUE: blk_queue_dump_register:func <- $x20
	//DEBUG_VALUE: mas_blk_dump_register_queue:q <- $x19
	//DEBUG_VALUE: blk_queue_dump_register:q <- $x19
	//DEBUG_VALUE: mas_blk_dump_register_queue:blk_lld <- $x0
	.loc	161 282 9                       // kernel/include/linux/list.h:282:9
	ldr	x8, [x19, #1336]
.Ltmp539:
	.loc	6 920 33                        // kernel/platform_source/basicplatform/block/mas_blk_dump.c:920:33
	add	x20, x19, #1336                 // =1336
.Ltmp540:
	//DEBUG_VALUE: list_empty:head <- $x20
	.loc	6 920 7 is_stmt 0               // kernel/platform_source/basicplatform/block/mas_blk_dump.c:920:7
	cmp	x8, x20
	b.ne	.LBB12_5
.Ltmp541:
// %bb.2:
	//DEBUG_VALUE: mas_blk_dump_register_queue:q <- $x19
	//DEBUG_VALUE: blk_queue_dump_register:q <- $x19
	//DEBUG_VALUE: mas_blk_dump_register_queue:blk_lld <- $x0
	.loc	156 354 2 is_stmt 1             // kernel/include/linux/spinlock.h:354:2
	adrp	x0, dump_list_lock
.Ltmp542:
	add	x0, x0, :lo12:dump_list_lock
.Ltmp543:
	//DEBUG_VALUE: spin_lock:lock <- $x0
	bl	_raw_spin_lock
.Ltmp544:
	//DEBUG_VALUE: list_add_tail:new <- $x20
	.loc	161 100 24                      // kernel/include/linux/list.h:100:24
	adrp	x22, dump_list
	add	x22, x22, :lo12:dump_list
.Ltmp545:
	//DEBUG_VALUE: list_add_tail:head <- $x22
	ldr	x21, [x22, #8]
.Ltmp546:
	//DEBUG_VALUE: __list_add:new <- $x20
	//DEBUG_VALUE: __list_add:prev <- $x21
	//DEBUG_VALUE: __list_add:next <- $x22
	.loc	161 67 7                        // kernel/include/linux/list.h:67:7
	mov	x0, x20
	mov	x2, x22
	mov	x1, x21
	bl	__list_add_valid
.Ltmp547:
	.loc	161 67 6 is_stmt 0              // kernel/include/linux/list.h:67:6
	tbz	w0, #0, .LBB12_4
.Ltmp548:
// %bb.3:
	//DEBUG_VALUE: __list_add:next <- $x22
	//DEBUG_VALUE: list_add_tail:head <- $x22
	//DEBUG_VALUE: __list_add:prev <- $x21
	//DEBUG_VALUE: __list_add:new <- $x20
	//DEBUG_VALUE: list_add_tail:new <- $x20
	//DEBUG_VALUE: mas_blk_dump_register_queue:q <- $x19
	//DEBUG_VALUE: blk_queue_dump_register:q <- $x19
	.loc	161 70 13 is_stmt 1             // kernel/include/linux/list.h:70:13
	str	x20, [x22, #8]
	.loc	161 71 12                       // kernel/include/linux/list.h:71:12
	str	x22, [x19, #1336]
	.loc	161 72 12                       // kernel/include/linux/list.h:72:12
	str	x21, [x19, #1344]
.Ltmp549:
	.loc	161 73 2                        // kernel/include/linux/list.h:73:2
	str	x20, [x21]
.Ltmp550:
.LBB12_4:
	//DEBUG_VALUE: mas_blk_dump_register_queue:q <- $x19
	//DEBUG_VALUE: blk_queue_dump_register:q <- $x19
	.loc	156 394 2                       // kernel/include/linux/spinlock.h:394:2
	adrp	x0, dump_list_lock
	add	x0, x0, :lo12:dump_list_lock
.Ltmp551:
	//DEBUG_VALUE: spin_unlock:lock <- $x0
	bl	_raw_spin_unlock
.Ltmp552:
.LBB12_5:
	//DEBUG_VALUE: blk_queue_dump_register:q <- $x19
	.loc	6 983 1                         // kernel/platform_source/basicplatform/block/mas_blk_dump.c:983:1
	ldp	x20, x19, [sp, #32]             // 16-byte Folded Reload
.Ltmp553:
	ldp	x22, x21, [sp, #16]             // 16-byte Folded Reload
	ldp	x29, x30, [sp], #48             // 16-byte Folded Reload
	hint	#29
	ret
.Ltmp554:
.Lfunc_end12:
	.size	blk_queue_dump_register, .Lfunc_end12-blk_queue_dump_register
	.cfi_endproc
                                        // -- End function
	.type	.L.str,@object                  // @.str
	.section	.rodata.str1.1,"aMS",@progbits,1
.L.str:
	.asciz	"rq: 0x%llx, type:%s len:%u %s requeue_reason: %d tag: %d qid: %d "
	.size	.L.str, 66

	.type	.L.str.1,@object                // @.str.1
.L.str.1:
	.asciz	"rq_hoq_flag: %llx rq_cp_flag: %llx "
	.size	.L.str.1, 36

	.type	.L.str.2,@object                // @.str.2
.L.str.2:
	.asciz	"disp_pid: %d %s, task: 0x%llx\n"
	.size	.L.str.2, 31

	.type	.L.str.3,@object                // @.str.3
.L.str.3:
	.asciz	"\n"
	.size	.L.str.3, 2

	.type	.L.str.4,@object                // @.str.4
.L.str.4:
	.asciz	"%s: %lld "
	.size	.L.str.4, 10

	.type	.L.str.5,@object                // @.str.5
.L.str.5:
	.asciz	"\0013[BLK-IO]%s: %s\n"
	.size	.L.str.5, 18

	.type	.L.str.6,@object                // @.str.6
.L.str.6:
	.asciz	"bio: 0x%llx, type:%s len:%u "
	.size	.L.str.6, 29

	.type	.L.str.7,@object                // @.str.7
.L.str.7:
	.asciz	"disp_pid: %d %s"
	.size	.L.str.7, 16

	.type	.L.str.8,@object                // @.str.8
.L.str.8:
	.asciz	", task: 0x%llx"
	.size	.L.str.8, 15

	.type	.L.str.9,@object                // @.str.9
.L.str.9:
	.asciz	"<%s:%lld> "
	.size	.L.str.9, 11

	.type	.L.str.10,@object               // @.str.10
.L.str.10:
	.asciz	"\0013[BLK-IO]%s %s,current: %lld\n"
	.size	.L.str.10, 31

	.type	.L.str.11,@object               // @.str.11
.L.str.11:
	.asciz	"\0013[BLK-IO]%s: bdev %s, ptable %s, r_inflt: %d w_inflt: %d"
	.size	.L.str.11, 58

	.type	.L.str.12,@object               // @.str.12
.L.str.12:
	.asciz	"exist"
	.size	.L.str.12, 6

	.type	.L.str.13,@object               // @.str.13
.L.str.13:
	.asciz	"none"
	.size	.L.str.13, 5

	.type	dump_list_lock,@object          // @dump_list_lock
	.data
	.p2align	3
dump_list_lock:
	.zero	4
	.word	3735899821                      // 0xdead4ead
	.word	4294967295                      // 0xffffffff
	.zero	4
	.xword	-1
	.size	dump_list_lock, 24

	.type	dump_list,@object               // @dump_list
	.p2align	3
dump_list:
	.xword	dump_list
	.xword	dump_list
	.size	dump_list, 16

	.type	.L.str.14,@object               // @.str.14
	.section	.rodata.str1.1,"aMS",@progbits,1
.L.str.14:
	.asciz	"\0013[BLK-IO]%s: ++ current = %lld\n"
	.size	.L.str.14, 33

	.type	.L__func__.mas_blk_panic_notify,@object // @__func__.mas_blk_panic_notify
.L__func__.mas_blk_panic_notify:
	.asciz	"mas_blk_panic_notify"
	.size	.L__func__.mas_blk_panic_notify, 21

	.type	.L.str.15,@object               // @.str.15
.L.str.15:
	.asciz	"\0013[BLK-IO]%s: --\n"
	.size	.L.str.15, 18

	.type	mas_blk_panic_nb,@object        // @mas_blk_panic_nb
	.data
	.p2align	3
mas_blk_panic_nb:
	.xword	__cfi_mas_blk_panic_notify
	.xword	0
	.word	0                               // 0x0
	.zero	4
	.size	mas_blk_panic_nb, 24

	.type	.L.str.16,@object               // @.str.16
	.section	.rodata.str1.1,"aMS",@progbits,1
.L.str.16:
	.asciz	"dump"
	.size	.L.str.16, 5

	.type	.L.str.17,@object               // @.str.17
.L.str.17:
	.asciz	"io_latency"
	.size	.L.str.17, 11

	.type	.L.str.18,@object               // @.str.18
.L.str.18:
	.asciz	"TYPE_BLOCK_PC"
	.size	.L.str.18, 14

	.type	.L.str.19,@object               // @.str.19
.L.str.19:
	.asciz	"TYPE_DRV_PRIV"
	.size	.L.str.19, 14

	.type	.L.str.20,@object               // @.str.20
.L.str.20:
	.asciz	"TYPE_FS"
	.size	.L.str.20, 8

	.type	.L.str.21,@object               // @.str.21
.L.str.21:
	.asciz	"\0014[BLK-IO]%s: Unknown OP %ld!\n"
	.size	.L.str.21, 31

	.type	.L__func__.mas_blk_io_type_op,@object // @__func__.mas_blk_io_type_op
.L__func__.mas_blk_io_type_op:
	.asciz	"mas_blk_io_type_op"
	.size	.L__func__.mas_blk_io_type_op, 19

	.type	.L.str.22,@object               // @.str.22
.L.str.22:
	.asciz	"Queue Status:\n"
	.size	.L.str.22, 15

	.type	.L.str.23,@object               // @.str.23
.L.str.23:
	.asciz	"%s"
	.size	.L.str.23, 3

	.type	.L.str.24,@object               // @.str.24
.L.str.24:
	.asciz	"\0013[BLK-IO]%s"
	.size	.L.str.24, 13

	.type	.L.str.25,@object               // @.str.25
.L.str.25:
	.asciz	"\tIO Latency Warning: enable\tThreshold(ms): %u\n"
	.size	.L.str.25, 47

	.type	.L.str.26,@object               // @.str.26
.L.str.26:
	.asciz	"\tIO Latency Warning: disable\n"
	.size	.L.str.26, 30

	.type	.L.str.27,@object               // @.str.27
.L.str.27:
	.asciz	"\tFlush Reduce: %s\n"
	.size	.L.str.27, 19

	.type	.L.str.28,@object               // @.str.28
.L.str.28:
	.asciz	"enable"
	.size	.L.str.28, 7

	.type	.L.str.29,@object               // @.str.29
.L.str.29:
	.asciz	"disable"
	.size	.L.str.29, 8

	.type	.L.str.30,@object               // @.str.30
.L.str.30:
	.asciz	"\tInline Crypto: %s\n"
	.size	.L.str.30, 20

	.type	.L.str.31,@object               // @.str.31
.L.str.31:
	.asciz	"LLD Status:\n"
	.size	.L.str.31, 13

	.type	.L.str.32,@object               // @.str.32
.L.str.32:
	.asciz	"\tPanic Dump: %s\n"
	.size	.L.str.32, 17

	.type	.L.str.33,@object               // @.str.33
.L.str.33:
	.asciz	"\tLatency Warning:enable\tThreshold(ms):%u\n"
	.size	.L.str.33, 42

	.type	.L.str.34,@object               // @.str.34
.L.str.34:
	.asciz	"\tLatency Warning: disable\n"
	.size	.L.str.34, 27

	.type	.L.str.35,@object               // @.str.35
.L.str.35:
	.asciz	"\tBusy/Idle Notifier: %s\t"
	.size	.L.str.35, 25

	.type	.L.str.36,@object               // @.str.36
.L.str.36:
	.asciz	"\tState: BUSY\t"
	.size	.L.str.36, 14

	.type	.L.str.37,@object               // @.str.37
.L.str.37:
	.asciz	"\tState: IDLE\t"
	.size	.L.str.37, 14

	.type	.L.str.38,@object               // @.str.38
.L.str.38:
	.asciz	"\tIO Count: %d\n"
	.size	.L.str.38, 15

	.type	.L.str.39,@object               // @.str.39
.L.str.39:
	.asciz	"\tIO Scheduler: "
	.size	.L.str.39, 16

	.type	.L.str.41,@object               // @.str.41
.L.str.41:
	.asciz	"Default Scheduler\n"
	.size	.L.str.41, 19

	.type	.L.str.42,@object               // @.str.42
.L.str.42:
	.asciz	"\tUFS command priority: %s\n"
	.size	.L.str.42, 27

	.type	.L.str.43,@object               // @.str.43
.L.str.43:
	.asciz	"\tUFS order preserving: %s\n"
	.size	.L.str.43, 27

	.type	.L.str.44,@object               // @.str.44
.L.str.44:
	.asciz	"\0013[BLK-IO]bio_count = %llu req_count = %llu\n"
	.size	.L.str.44, 45

	.type	.L.str.45,@object               // @.str.45
.L.str.45:
	.asciz	"\0013[BLK-IO]bio_list:\n"
	.size	.L.str.45, 21

	.type	.L.str.46,@object               // @.str.46
.L.str.46:
	.asciz	"\0013[BLK-IO]req_list:\n"
	.size	.L.str.46, 21
