	.text
	.section	.note.gnu.property,"a",@note
	.p2align	3
	.word	4
	.word	16
	.word	5
	.asciz	"GNU"
	.word	3221225472
	.word	4
	.word	3
	.word	0
.Lsec_end0:
	.text
	.file	"mas_blk_gear_ctrl_flowctrl.c"
	.file	1 "/mnt/disk/jenkins/ci/workspace/chipset_pipeline_release/opensource/component_code/vendor/huawei/extra/build/build_script/kirin_kernel_release" "kernel/include/uapi/asm-generic/int-ll64.h"
	.file	2 "/mnt/disk/jenkins/ci/workspace/chipset_pipeline_release/opensource/component_code/vendor/huawei/extra/build/build_script/kirin_kernel_release" "kernel/include/asm-generic/int-ll64.h"
	.file	3 "/mnt/disk/jenkins/ci/workspace/chipset_pipeline_release/opensource/component_code/vendor/huawei/extra/build/build_script/kirin_kernel_release" "kernel/platform_source/basicplatform/block/mas_blk_gear_ctrl_flowctrl.c"
	.file	4 "/mnt/disk/jenkins/ci/workspace/chipset_pipeline_release/opensource/component_code/vendor/huawei/extra/build/build_script/kirin_kernel_release" "kernel/include/linux/lockdep_types.h"
	.file	5 "/mnt/disk/jenkins/ci/workspace/chipset_pipeline_release/opensource/component_code/vendor/huawei/extra/build/build_script/kirin_kernel_release" "kernel/include/linux/ktime.h"
	.file	6 "/mnt/disk/jenkins/ci/workspace/chipset_pipeline_release/opensource/component_code/vendor/huawei/extra/build/build_script/kirin_kernel_release" "kernel/include/linux/types.h"
	.file	7 "/mnt/disk/jenkins/ci/workspace/chipset_pipeline_release/opensource/component_code/vendor/huawei/extra/build/build_script/kirin_kernel_release" "kernel/include/asm-generic/qspinlock_types.h"
	.file	8 "/mnt/disk/jenkins/ci/workspace/chipset_pipeline_release/opensource/component_code/vendor/huawei/extra/build/build_script/kirin_kernel_release" "kernel/include/linux/spinlock_types.h"
	.file	9 "/mnt/disk/jenkins/ci/workspace/chipset_pipeline_release/opensource/component_code/vendor/huawei/extra/build/build_script/kirin_kernel_release" "kernel/include/linux/module.h"
	.file	10 "/mnt/disk/jenkins/ci/workspace/chipset_pipeline_release/opensource/component_code/vendor/huawei/extra/build/build_script/kirin_kernel_release" "kernel/include/linux/quota.h"
	.file	11 "/mnt/disk/jenkins/ci/workspace/chipset_pipeline_release/opensource/component_code/vendor/huawei/extra/build/build_script/kirin_kernel_release" "kernel/include/linux/hrtimer.h"
	.file	12 "/mnt/disk/jenkins/ci/workspace/chipset_pipeline_release/opensource/component_code/vendor/huawei/extra/build/build_script/kirin_kernel_release" "kernel/include/linux/mm.h"
	.file	13 "/mnt/disk/jenkins/ci/workspace/chipset_pipeline_release/opensource/component_code/vendor/huawei/extra/build/build_script/kirin_kernel_release" "kernel/include/linux/restart_block.h"
	.file	14 "/mnt/disk/jenkins/ci/workspace/chipset_pipeline_release/opensource/component_code/vendor/huawei/extra/build/build_script/kirin_kernel_release" "kernel/include/linux/device/driver.h"
	.file	15 "/mnt/disk/jenkins/ci/workspace/chipset_pipeline_release/opensource/component_code/vendor/huawei/extra/build/build_script/kirin_kernel_release" "kernel/include/linux/device.h"
	.file	16 "/mnt/disk/jenkins/ci/workspace/chipset_pipeline_release/opensource/component_code/vendor/huawei/extra/build/build_script/kirin_kernel_release" "kernel/include/linux/pm.h"
	.file	17 "/mnt/disk/jenkins/ci/workspace/chipset_pipeline_release/opensource/component_code/vendor/huawei/extra/build/build_script/kirin_kernel_release" "kernel/include/linux/kobject_ns.h"
	.file	18 "/mnt/disk/jenkins/ci/workspace/chipset_pipeline_release/opensource/component_code/vendor/huawei/extra/build/build_script/kirin_kernel_release" "kernel/include/linux/backing-dev-defs.h"
	.file	19 "/mnt/disk/jenkins/ci/workspace/chipset_pipeline_release/opensource/component_code/vendor/huawei/extra/build/build_script/kirin_kernel_release" "kernel/include/linux/migrate_mode.h"
	.file	20 "/mnt/disk/jenkins/ci/workspace/chipset_pipeline_release/opensource/component_code/vendor/huawei/extra/build/build_script/kirin_kernel_release" "kernel/include/linux/memremap.h"
	.file	21 "/mnt/disk/jenkins/ci/workspace/chipset_pipeline_release/opensource/component_code/vendor/huawei/extra/build/build_script/kirin_kernel_release" "kernel/include/linux/fs.h"
	.file	22 "/mnt/disk/jenkins/ci/workspace/chipset_pipeline_release/opensource/component_code/vendor/huawei/extra/build/build_script/kirin_kernel_release" "kernel/include/linux/pid.h"
	.file	23 "/mnt/disk/jenkins/ci/workspace/chipset_pipeline_release/opensource/component_code/vendor/huawei/extra/build/build_script/kirin_kernel_release" "kernel/include/linux/blkdev.h"
	.file	24 "/mnt/disk/jenkins/ci/workspace/chipset_pipeline_release/opensource/component_code/vendor/huawei/extra/build/build_script/kirin_kernel_release" "kernel/include/platform_include/basicplatform/linux/mas/mas_blk.h"
	.file	25 "/mnt/disk/jenkins/ci/workspace/chipset_pipeline_release/opensource/component_code/vendor/huawei/extra/build/build_script/kirin_kernel_release" "kernel/include/linux/elevator.h"
	.file	26 "/mnt/disk/jenkins/ci/workspace/chipset_pipeline_release/opensource/component_code/vendor/huawei/extra/build/build_script/kirin_kernel_release" "kernel/include/linux/stddef.h"
	.globl	mas_gear_ctrl_flow_config       // -- Begin function mas_gear_ctrl_flow_config
	.p2align	2
	.type	mas_gear_ctrl_flow_config,@function
mas_gear_ctrl_flow_config:              // @mas_gear_ctrl_flow_config
.Lfunc_begin0:
	.loc	3 45 0                          // kernel/platform_source/basicplatform/block/mas_blk_gear_ctrl_flowctrl.c:45:0
	.cfi_sections .debug_frame
	.cfi_startproc
// %bb.0:
	.loc	3 46 44 prologue_end            // kernel/platform_source/basicplatform/block/mas_blk_gear_ctrl_flowctrl.c:46:44
	hint	#34
.Ltmp0:
	//DEBUG_VALUE: mas_gear_ctrl_flow_config:size_per_100us <- $w0
	//DEBUG_VALUE: mas_gear_ctrl_flow_config:size_per_100us <- $w0
	//DEBUG_VALUE: mas_gear_ctrl_flow_config:cnt_per_ms <- $w1
	//DEBUG_VALUE: mas_gear_ctrl_flow_config:cnt_per_ms <- $w1
	adrp	x8, g_mas_gear_ctrl_flow_threshold_cnt_per_ms
	.loc	3 47 48                         // kernel/platform_source/basicplatform/block/mas_blk_gear_ctrl_flowctrl.c:47:48
	adrp	x9, g_mas_gear_ctrl_flow_threshold_size_per_100us
	.loc	3 46 44                         // kernel/platform_source/basicplatform/block/mas_blk_gear_ctrl_flowctrl.c:46:44
	str	w1, [x8, :lo12:g_mas_gear_ctrl_flow_threshold_cnt_per_ms]
	.loc	3 47 48                         // kernel/platform_source/basicplatform/block/mas_blk_gear_ctrl_flowctrl.c:47:48
	str	w0, [x9, :lo12:g_mas_gear_ctrl_flow_threshold_size_per_100us]
	.loc	3 48 1                          // kernel/platform_source/basicplatform/block/mas_blk_gear_ctrl_flowctrl.c:48:1
	ret
.Ltmp1:
.Lfunc_end0:
	.size	mas_gear_ctrl_flow_config, .Lfunc_end0-mas_gear_ctrl_flow_config
	.cfi_endproc
                                        // -- End function
	.globl	mas_gear_ctrl_flow_init         // -- Begin function mas_gear_ctrl_flow_init
	.p2align	2
	.type	mas_gear_ctrl_flow_init,@function
mas_gear_ctrl_flow_init:                // @mas_gear_ctrl_flow_init
.Lfunc_begin1:
	.loc	3 51 0                          // kernel/platform_source/basicplatform/block/mas_blk_gear_ctrl_flowctrl.c:51:0
	.cfi_startproc
// %bb.0:
	//DEBUG_VALUE: atomic_set:i <- 0
	hint	#25
	.cfi_negate_ra_state
	stp	x29, x30, [sp, #-16]!           // 16-byte Folded Spill
	mov	x29, sp
	.cfi_def_cfa w29, 16
	.cfi_offset w30, -8
	.cfi_offset w29, -16
.Ltmp2:
	.loc	3 59 2 prologue_end             // kernel/platform_source/basicplatform/block/mas_blk_gear_ctrl_flowctrl.c:59:2
	adrp	x0, flow_lock
	adrp	x1, .L.str
	adrp	x2, mas_gear_ctrl_flow_init.__key
.Ltmp3:
	.file	27 "/mnt/disk/jenkins/ci/workspace/chipset_pipeline_release/opensource/component_code/vendor/huawei/extra/build/build_script/kirin_kernel_release" "kernel/include/asm-generic/atomic-instrumented.h"
	.loc	27 46 2                         // kernel/include/asm-generic/atomic-instrumented.h:46:2
	adrp	x8, g_inflat_size
.Ltmp4:
	.loc	27 46 2 is_stmt 0               // kernel/include/asm-generic/atomic-instrumented.h:46:2
	adrp	x9, g_flow_cnt_last
.Ltmp5:
	.loc	27 46 2                         // kernel/include/asm-generic/atomic-instrumented.h:46:2
	adrp	x10, g_flow_size_last
.Ltmp6:
	.loc	27 46 2                         // kernel/include/asm-generic/atomic-instrumented.h:46:2
	adrp	x11, g_flow_last_spend_time
.Ltmp7:
	.loc	3 56 14 is_stmt 1               // kernel/platform_source/basicplatform/block/mas_blk_gear_ctrl_flowctrl.c:56:14
	adrp	x12, g_flow_size
	.loc	3 57 13                         // kernel/platform_source/basicplatform/block/mas_blk_gear_ctrl_flowctrl.c:57:13
	adrp	x13, g_flow_cnt
	.loc	3 58 15                         // kernel/platform_source/basicplatform/block/mas_blk_gear_ctrl_flowctrl.c:58:15
	adrp	x14, g_flow_start
.Ltmp8:
	.loc	3 59 2                          // kernel/platform_source/basicplatform/block/mas_blk_gear_ctrl_flowctrl.c:59:2
	add	x0, x0, :lo12:flow_lock
	add	x1, x1, :lo12:.L.str
	add	x2, x2, :lo12:mas_gear_ctrl_flow_init.__key
	mov	w3, #2
.Ltmp9:
	.loc	27 46 2                         // kernel/include/asm-generic/atomic-instrumented.h:46:2
	str	wzr, [x8, :lo12:g_inflat_size]
.Ltmp10:
	//DEBUG_VALUE: atomic_set:v <- undef
	//DEBUG_VALUE: atomic_set:i <- 0
	//DEBUG_VALUE: atomic_set:i <- 0
	.loc	27 46 2 is_stmt 0               // kernel/include/asm-generic/atomic-instrumented.h:46:2
	str	wzr, [x9, :lo12:g_flow_cnt_last]
.Ltmp11:
	//DEBUG_VALUE: atomic_set:v <- undef
	//DEBUG_VALUE: atomic_set:i <- 0
	.loc	27 46 2                         // kernel/include/asm-generic/atomic-instrumented.h:46:2
	str	wzr, [x10, :lo12:g_flow_size_last]
.Ltmp12:
	//DEBUG_VALUE: atomic_set:v <- undef
	//DEBUG_VALUE: atomic_set:i <- 0
	.loc	27 46 2                         // kernel/include/asm-generic/atomic-instrumented.h:46:2
	str	wzr, [x11, :lo12:g_flow_last_spend_time]
.Ltmp13:
	//DEBUG_VALUE: atomic_set:v <- undef
	.loc	3 56 14 is_stmt 1               // kernel/platform_source/basicplatform/block/mas_blk_gear_ctrl_flowctrl.c:56:14
	str	wzr, [x12, :lo12:g_flow_size]
	.loc	3 57 13                         // kernel/platform_source/basicplatform/block/mas_blk_gear_ctrl_flowctrl.c:57:13
	str	wzr, [x13, :lo12:g_flow_cnt]
	.loc	3 58 15                         // kernel/platform_source/basicplatform/block/mas_blk_gear_ctrl_flowctrl.c:58:15
	str	xzr, [x14, :lo12:g_flow_start]
.Ltmp14:
	.loc	3 59 2                          // kernel/platform_source/basicplatform/block/mas_blk_gear_ctrl_flowctrl.c:59:2
	bl	__raw_spin_lock_init
.Ltmp15:
	.loc	3 60 1                          // kernel/platform_source/basicplatform/block/mas_blk_gear_ctrl_flowctrl.c:60:1
	ldp	x29, x30, [sp], #16             // 16-byte Folded Reload
	hint	#29
	ret
.Ltmp16:
.Lfunc_end1:
	.size	mas_gear_ctrl_flow_init, .Lfunc_end1-mas_gear_ctrl_flow_init
	.cfi_endproc
                                        // -- End function
	.globl	mas_gear_ctrl_flow_drop         // -- Begin function mas_gear_ctrl_flow_drop
	.p2align	2
	.type	mas_gear_ctrl_flow_drop,@function
mas_gear_ctrl_flow_drop:                // @mas_gear_ctrl_flow_drop
.Lfunc_begin2:
	.loc	3 63 0                          // kernel/platform_source/basicplatform/block/mas_blk_gear_ctrl_flowctrl.c:63:0
	.cfi_startproc
// %bb.0:
	//DEBUG_VALUE: atomic_set:i <- 0
	hint	#25
	.cfi_negate_ra_state
	stp	x29, x30, [sp, #-32]!           // 16-byte Folded Spill
	str	x19, [sp, #16]                  // 8-byte Folded Spill
	mov	x29, sp
	.cfi_def_cfa w29, 32
	.cfi_offset w19, -16
	.cfi_offset w30, -24
	.cfi_offset w29, -32
.Ltmp17:
	.loc	3 70 2 prologue_end             // kernel/platform_source/basicplatform/block/mas_blk_gear_ctrl_flowctrl.c:70:2
	adrp	x19, flow_lock
	add	x19, x19, :lo12:flow_lock
.Ltmp18:
	.loc	27 46 2                         // kernel/include/asm-generic/atomic-instrumented.h:46:2
	adrp	x8, g_inflat_size
.Ltmp19:
	.loc	27 46 2 is_stmt 0               // kernel/include/asm-generic/atomic-instrumented.h:46:2
	adrp	x9, g_flow_cnt_last
.Ltmp20:
	.loc	27 46 2                         // kernel/include/asm-generic/atomic-instrumented.h:46:2
	adrp	x10, g_flow_size_last
.Ltmp21:
	.loc	27 46 2                         // kernel/include/asm-generic/atomic-instrumented.h:46:2
	adrp	x11, g_flow_last_spend_time
.Ltmp22:
	.loc	3 70 2 is_stmt 1                // kernel/platform_source/basicplatform/block/mas_blk_gear_ctrl_flowctrl.c:70:2
	mov	x0, x19
.Ltmp23:
	.loc	27 46 2                         // kernel/include/asm-generic/atomic-instrumented.h:46:2
	str	wzr, [x8, :lo12:g_inflat_size]
.Ltmp24:
	//DEBUG_VALUE: atomic_set:v <- undef
	//DEBUG_VALUE: atomic_set:i <- 0
	//DEBUG_VALUE: atomic_set:i <- 0
	.loc	27 46 2 is_stmt 0               // kernel/include/asm-generic/atomic-instrumented.h:46:2
	str	wzr, [x9, :lo12:g_flow_cnt_last]
.Ltmp25:
	//DEBUG_VALUE: atomic_set:v <- undef
	//DEBUG_VALUE: atomic_set:i <- 0
	.loc	27 46 2                         // kernel/include/asm-generic/atomic-instrumented.h:46:2
	str	wzr, [x10, :lo12:g_flow_size_last]
.Ltmp26:
	//DEBUG_VALUE: atomic_set:v <- undef
	//DEBUG_VALUE: atomic_set:i <- 0
	.loc	27 46 2                         // kernel/include/asm-generic/atomic-instrumented.h:46:2
	str	wzr, [x11, :lo12:g_flow_last_spend_time]
.Ltmp27:
	//DEBUG_VALUE: atomic_set:v <- undef
	.loc	3 70 2 is_stmt 1                // kernel/platform_source/basicplatform/block/mas_blk_gear_ctrl_flowctrl.c:70:2
	bl	_raw_spin_lock_irqsave
.Ltmp28:
	mov	x1, x0
.Ltmp29:
	//DEBUG_VALUE: mas_gear_ctrl_flow_drop:flags <- $x1
	.loc	3 71 14                         // kernel/platform_source/basicplatform/block/mas_blk_gear_ctrl_flowctrl.c:71:14
	adrp	x8, g_flow_size
	.loc	3 72 13                         // kernel/platform_source/basicplatform/block/mas_blk_gear_ctrl_flowctrl.c:72:13
	adrp	x9, g_flow_cnt
	.loc	3 73 15                         // kernel/platform_source/basicplatform/block/mas_blk_gear_ctrl_flowctrl.c:73:15
	adrp	x10, g_flow_start
.Ltmp30:
	.file	28 "/mnt/disk/jenkins/ci/workspace/chipset_pipeline_release/opensource/component_code/vendor/huawei/extra/build/build_script/kirin_kernel_release" "kernel/include/linux/spinlock.h"
	.loc	28 409 2                        // kernel/include/linux/spinlock.h:409:2
	mov	x0, x19
.Ltmp31:
	.loc	3 71 14                         // kernel/platform_source/basicplatform/block/mas_blk_gear_ctrl_flowctrl.c:71:14
	str	wzr, [x8, :lo12:g_flow_size]
	.loc	3 72 13                         // kernel/platform_source/basicplatform/block/mas_blk_gear_ctrl_flowctrl.c:72:13
	str	wzr, [x9, :lo12:g_flow_cnt]
	.loc	3 73 15                         // kernel/platform_source/basicplatform/block/mas_blk_gear_ctrl_flowctrl.c:73:15
	str	xzr, [x10, :lo12:g_flow_start]
.Ltmp32:
	//DEBUG_VALUE: spin_unlock_irqrestore:flags <- $x1
	//DEBUG_VALUE: spin_unlock_irqrestore:lock <- $x19
	.loc	28 409 2                        // kernel/include/linux/spinlock.h:409:2
	bl	_raw_spin_unlock_irqrestore
.Ltmp33:
	.loc	3 75 1                          // kernel/platform_source/basicplatform/block/mas_blk_gear_ctrl_flowctrl.c:75:1
	ldr	x19, [sp, #16]                  // 8-byte Folded Reload
.Ltmp34:
	ldp	x29, x30, [sp], #32             // 16-byte Folded Reload
	hint	#29
	ret
.Ltmp35:
.Lfunc_end2:
	.size	mas_gear_ctrl_flow_drop, .Lfunc_end2-mas_gear_ctrl_flow_drop
	.cfi_endproc
	.file	29 "/mnt/disk/jenkins/ci/workspace/chipset_pipeline_release/opensource/component_code/vendor/huawei/extra/build/build_script/kirin_kernel_release" "kernel/include/linux/spinlock_api_smp.h"
                                        // -- End function
	.globl	mas_gear_ctrl_flow_destory      // -- Begin function mas_gear_ctrl_flow_destory
	.p2align	2
	.type	mas_gear_ctrl_flow_destory,@function
mas_gear_ctrl_flow_destory:             // @mas_gear_ctrl_flow_destory
.Lfunc_begin3:
	.loc	3 78 0                          // kernel/platform_source/basicplatform/block/mas_blk_gear_ctrl_flowctrl.c:78:0
	.cfi_startproc
// %bb.0:
	//DEBUG_VALUE: atomic_set:i <- 0
	hint	#25
	.cfi_negate_ra_state
	stp	x29, x30, [sp, #-32]!           // 16-byte Folded Spill
	str	x19, [sp, #16]                  // 8-byte Folded Spill
	mov	x29, sp
	.cfi_def_cfa w29, 32
	.cfi_offset w19, -16
	.cfi_offset w30, -24
	.cfi_offset w29, -32
.Ltmp36:
	.loc	3 70 2 prologue_end             // kernel/platform_source/basicplatform/block/mas_blk_gear_ctrl_flowctrl.c:70:2
	adrp	x19, flow_lock
	add	x19, x19, :lo12:flow_lock
.Ltmp37:
	.loc	27 46 2                         // kernel/include/asm-generic/atomic-instrumented.h:46:2
	adrp	x8, g_inflat_size
.Ltmp38:
	.loc	27 46 2 is_stmt 0               // kernel/include/asm-generic/atomic-instrumented.h:46:2
	adrp	x9, g_flow_cnt_last
.Ltmp39:
	.loc	27 46 2                         // kernel/include/asm-generic/atomic-instrumented.h:46:2
	adrp	x10, g_flow_size_last
.Ltmp40:
	.loc	27 46 2                         // kernel/include/asm-generic/atomic-instrumented.h:46:2
	adrp	x11, g_flow_last_spend_time
.Ltmp41:
	.loc	3 70 2 is_stmt 1                // kernel/platform_source/basicplatform/block/mas_blk_gear_ctrl_flowctrl.c:70:2
	mov	x0, x19
.Ltmp42:
	.loc	27 46 2                         // kernel/include/asm-generic/atomic-instrumented.h:46:2
	str	wzr, [x8, :lo12:g_inflat_size]
.Ltmp43:
	//DEBUG_VALUE: atomic_set:v <- undef
	//DEBUG_VALUE: atomic_set:i <- 0
	//DEBUG_VALUE: atomic_set:i <- 0
	.loc	27 46 2 is_stmt 0               // kernel/include/asm-generic/atomic-instrumented.h:46:2
	str	wzr, [x9, :lo12:g_flow_cnt_last]
.Ltmp44:
	//DEBUG_VALUE: atomic_set:v <- undef
	//DEBUG_VALUE: atomic_set:i <- 0
	.loc	27 46 2                         // kernel/include/asm-generic/atomic-instrumented.h:46:2
	str	wzr, [x10, :lo12:g_flow_size_last]
.Ltmp45:
	//DEBUG_VALUE: atomic_set:v <- undef
	//DEBUG_VALUE: atomic_set:i <- 0
	.loc	27 46 2                         // kernel/include/asm-generic/atomic-instrumented.h:46:2
	str	wzr, [x11, :lo12:g_flow_last_spend_time]
.Ltmp46:
	//DEBUG_VALUE: atomic_set:v <- undef
	.loc	3 70 2 is_stmt 1                // kernel/platform_source/basicplatform/block/mas_blk_gear_ctrl_flowctrl.c:70:2
	bl	_raw_spin_lock_irqsave
.Ltmp47:
	mov	x1, x0
.Ltmp48:
	//DEBUG_VALUE: mas_gear_ctrl_flow_drop:flags <- $x1
	.loc	3 71 14                         // kernel/platform_source/basicplatform/block/mas_blk_gear_ctrl_flowctrl.c:71:14
	adrp	x8, g_flow_size
	.loc	3 72 13                         // kernel/platform_source/basicplatform/block/mas_blk_gear_ctrl_flowctrl.c:72:13
	adrp	x9, g_flow_cnt
	.loc	3 73 15                         // kernel/platform_source/basicplatform/block/mas_blk_gear_ctrl_flowctrl.c:73:15
	adrp	x10, g_flow_start
.Ltmp49:
	.loc	28 409 2                        // kernel/include/linux/spinlock.h:409:2
	mov	x0, x19
.Ltmp50:
	.loc	3 71 14                         // kernel/platform_source/basicplatform/block/mas_blk_gear_ctrl_flowctrl.c:71:14
	str	wzr, [x8, :lo12:g_flow_size]
	.loc	3 72 13                         // kernel/platform_source/basicplatform/block/mas_blk_gear_ctrl_flowctrl.c:72:13
	str	wzr, [x9, :lo12:g_flow_cnt]
	.loc	3 73 15                         // kernel/platform_source/basicplatform/block/mas_blk_gear_ctrl_flowctrl.c:73:15
	str	xzr, [x10, :lo12:g_flow_start]
.Ltmp51:
	//DEBUG_VALUE: spin_unlock_irqrestore:flags <- $x1
	//DEBUG_VALUE: spin_unlock_irqrestore:lock <- $x19
	.loc	28 409 2                        // kernel/include/linux/spinlock.h:409:2
	bl	_raw_spin_unlock_irqrestore
.Ltmp52:
	.loc	3 79 2                          // kernel/platform_source/basicplatform/block/mas_blk_gear_ctrl_flowctrl.c:79:2
	ldr	x19, [sp, #16]                  // 8-byte Folded Reload
.Ltmp53:
	ldp	x29, x30, [sp], #32             // 16-byte Folded Reload
	hint	#29
	ret
.Ltmp54:
.Lfunc_end3:
	.size	mas_gear_ctrl_flow_destory, .Lfunc_end3-mas_gear_ctrl_flow_destory
	.cfi_endproc
                                        // -- End function
	.globl	mas_gear_ctrl_flow_delete_wait  // -- Begin function mas_gear_ctrl_flow_delete_wait
	.p2align	2
	.type	mas_gear_ctrl_flow_delete_wait,@function
mas_gear_ctrl_flow_delete_wait:         // @mas_gear_ctrl_flow_delete_wait
.Lfunc_begin4:
	.loc	3 83 0                          // kernel/platform_source/basicplatform/block/mas_blk_gear_ctrl_flowctrl.c:83:0
	.cfi_startproc
// %bb.0:
	.loc	23 1820 13 prologue_end         // kernel/include/linux/blkdev.h:1820:13
	hint	#34
.Ltmp55:
	//DEBUG_VALUE: mas_gear_ctrl_flow_delete_wait:req <- $x0
	//DEBUG_VALUE: mas_gear_ctrl_flow_delete_wait:req <- $x0
	//DEBUG_VALUE: blk_rq_bytes:rq <- $x0
	//DEBUG_VALUE: blk_rq_bytes:rq <- $x0
	ldr	w8, [x0, #40]
	adrp	x9, g_inflat_size
	add	x9, x9, :lo12:g_inflat_size
.Ltmp56:
	.loc	3 84 44                         // kernel/platform_source/basicplatform/block/mas_blk_gear_ctrl_flowctrl.c:84:44
	lsr	w8, w8, #12
.Ltmp57:
	//DEBUG_VALUE: mas_gear_ctrl_flow_delete_wait:sub <- $w8
.LBB4_1:                                // =>This Inner Loop Header: Depth=1
	//DEBUG_VALUE: mas_gear_ctrl_flow_delete_wait:req <- $x0
	//DEBUG_VALUE: mas_gear_ctrl_flow_delete_wait:sub <- $w8
	//DEBUG_VALUE: atomic_read:v <- $x9
	.loc	27 28 9                         // kernel/include/asm-generic/atomic-instrumented.h:28:9
	ldr	w10, [x9]
.Ltmp58:
	//DEBUG_VALUE: mas_gear_ctrl_flow_delete_wait:c <- $w10
	//DEBUG_VALUE: arch_atomic_try_cmpxchg:old <- undef
	//DEBUG_VALUE: atomic_try_cmpxchg:old <- undef
	.loc	3 88 7                          // kernel/platform_source/basicplatform/block/mas_blk_gear_ctrl_flowctrl.c:88:7
	subs	w11, w10, w8
	csel	w11, wzr, w11, lt
.Ltmp59:
	//DEBUG_VALUE: __ll_sc__cmpxchg_case_mb_32:new <- $w11
	//DEBUG_VALUE: __cmpxchg_case_mb_32:new <- $w11
	//DEBUG_VALUE: __cmpxchg_mb:new <- [DW_OP_LLVM_convert 32 5, DW_OP_LLVM_convert 64 5, DW_OP_stack_value] $w11
	//DEBUG_VALUE: __cmpxchg_mb:size <- 4
	//DEBUG_VALUE: arch_atomic_try_cmpxchg:new <- $w11
	//DEBUG_VALUE: atomic_try_cmpxchg:new <- $w11
	//DEBUG_VALUE: mas_gear_ctrl_flow_delete_wait:dec <- $w11
	//DEBUG_VALUE: __cmpxchg_case_mb_32:old <- [DW_OP_LLVM_convert 32 5, DW_OP_LLVM_convert 64 5, DW_OP_stack_value] $w10
	//DEBUG_VALUE: __cmpxchg_mb:old <- [DW_OP_LLVM_convert 32 5, DW_OP_LLVM_convert 64 5, DW_OP_stack_value] $w10
	//DEBUG_VALUE: arch_atomic_try_cmpxchg:o <- $w10
	//DEBUG_VALUE: __ll_sc__cmpxchg_case_mb_32:old <- $x10
	//DEBUG_VALUE: arch_atomic_try_cmpxchg:v <- $x9
	//DEBUG_VALUE: atomic_try_cmpxchg:v <- $x9
	.file	30 "/mnt/disk/jenkins/ci/workspace/chipset_pipeline_release/opensource/component_code/vendor/huawei/extra/build/build_script/kirin_kernel_release" "kernel/arch/arm64/include/asm/atomic_ll_sc.h"
	.loc	30 313 1                        // kernel/arch/arm64/include/asm/atomic_ll_sc.h:313:1
	//APP
	prfm	pstl1strm, [x9]
.Ltmp60:
	ldxr	w13, [x9]
	eor	w12, w13, w10
	cbnz	w12, .Ltmp61
	stlxr	w12, w11, [x9]
	cbnz	w12, .Ltmp60
	dmb	ish
.Ltmp61:
	//NO_APP
.Ltmp62:
	//DEBUG_VALUE: __ll_sc__cmpxchg_case_mb_32:tmp <- undef
	//DEBUG_VALUE: arch_atomic_try_cmpxchg:r <- $w13
	//DEBUG_VALUE: __ret <- $w13
	//DEBUG_VALUE: __ll_sc__cmpxchg_case_mb_32:oldval <- $w13
	.loc	3 92 2                          // kernel/platform_source/basicplatform/block/mas_blk_gear_ctrl_flowctrl.c:92:2
	cmp	w10, w13
	b.ne	.LBB4_1
.Ltmp63:
// %bb.2:
	//DEBUG_VALUE: mas_gear_ctrl_flow_delete_wait:req <- $x0
	//DEBUG_VALUE: mas_gear_ctrl_flow_delete_wait:dec <- $w11
	//DEBUG_VALUE: mas_gear_ctrl_flow_delete_wait:c <- $w10
	//DEBUG_VALUE: mas_gear_ctrl_flow_delete_wait:sub <- $w8
	.loc	3 93 1                          // kernel/platform_source/basicplatform/block/mas_blk_gear_ctrl_flowctrl.c:93:1
	ret
.Ltmp64:
.Lfunc_end4:
	.size	mas_gear_ctrl_flow_delete_wait, .Lfunc_end4-mas_gear_ctrl_flow_delete_wait
	.cfi_endproc
	.file	31 "/mnt/disk/jenkins/ci/workspace/chipset_pipeline_release/opensource/component_code/vendor/huawei/extra/build/build_script/kirin_kernel_release" "kernel/include/linux/blk-mq.h"
	.file	32 "/mnt/disk/jenkins/ci/workspace/chipset_pipeline_release/opensource/component_code/vendor/huawei/extra/build/build_script/kirin_kernel_release" "kernel/include/asm-generic/atomic-long.h"
	.file	33 "/mnt/disk/jenkins/ci/workspace/chipset_pipeline_release/opensource/component_code/vendor/huawei/extra/build/build_script/kirin_kernel_release" "kernel/include/linux/workqueue.h"
	.file	34 "/mnt/disk/jenkins/ci/workspace/chipset_pipeline_release/opensource/component_code/vendor/huawei/extra/build/build_script/kirin_kernel_release" "kernel/include/linux/timer.h"
	.file	35 "/mnt/disk/jenkins/ci/workspace/chipset_pipeline_release/opensource/component_code/vendor/huawei/extra/build/build_script/kirin_kernel_release" "kernel/include/linux/cpumask.h"
	.file	36 "/mnt/disk/jenkins/ci/workspace/chipset_pipeline_release/opensource/component_code/vendor/huawei/extra/build/build_script/kirin_kernel_release" "kernel/block/blk.h"
	.file	37 "/mnt/disk/jenkins/ci/workspace/chipset_pipeline_release/opensource/component_code/vendor/huawei/extra/build/build_script/kirin_kernel_release" "kernel/include/linux/blk_types.h"
	.file	38 "/mnt/disk/jenkins/ci/workspace/chipset_pipeline_release/opensource/component_code/vendor/huawei/extra/build/build_script/kirin_kernel_release" "kernel/include/linux/sbitmap.h"
	.file	39 "/mnt/disk/jenkins/ci/workspace/chipset_pipeline_release/opensource/component_code/vendor/huawei/extra/build/build_script/kirin_kernel_release" "kernel/block/blk-mq.h"
	.file	40 "/mnt/disk/jenkins/ci/workspace/chipset_pipeline_release/opensource/component_code/vendor/huawei/extra/build/build_script/kirin_kernel_release" "kernel/include/linux/kobject.h"
	.file	41 "/mnt/disk/jenkins/ci/workspace/chipset_pipeline_release/opensource/component_code/vendor/huawei/extra/build/build_script/kirin_kernel_release" "kernel/include/uapi/asm-generic/posix_types.h"
	.file	42 "/mnt/disk/jenkins/ci/workspace/chipset_pipeline_release/opensource/component_code/vendor/huawei/extra/build/build_script/kirin_kernel_release" "kernel/include/linux/sysfs.h"
	.file	43 "/mnt/disk/jenkins/ci/workspace/chipset_pipeline_release/opensource/component_code/vendor/huawei/extra/build/build_script/kirin_kernel_release" "kernel/include/linux/llist.h"
	.file	44 "/mnt/disk/jenkins/ci/workspace/chipset_pipeline_release/opensource/component_code/vendor/huawei/extra/build/build_script/kirin_kernel_release" "kernel/include/linux/path.h"
	.file	45 "/mnt/disk/jenkins/ci/workspace/chipset_pipeline_release/opensource/component_code/vendor/huawei/extra/build/build_script/kirin_kernel_release" "kernel/include/linux/dcache.h"
	.file	46 "/mnt/disk/jenkins/ci/workspace/chipset_pipeline_release/opensource/component_code/vendor/huawei/extra/build/build_script/kirin_kernel_release" "kernel/include/linux/seqlock.h"
	.file	47 "/mnt/disk/jenkins/ci/workspace/chipset_pipeline_release/opensource/component_code/vendor/huawei/extra/build/build_script/kirin_kernel_release" "kernel/include/linux/list_bl.h"
	.file	48 "/mnt/disk/jenkins/ci/workspace/chipset_pipeline_release/opensource/component_code/vendor/huawei/extra/build/build_script/kirin_kernel_release" "kernel/include/linux/uidgid.h"
	.file	49 "/mnt/disk/jenkins/ci/workspace/chipset_pipeline_release/opensource/component_code/vendor/huawei/extra/build/build_script/kirin_kernel_release" "kernel/include/linux/delayed_call.h"
	.file	50 "/mnt/disk/jenkins/ci/workspace/chipset_pipeline_release/opensource/component_code/vendor/huawei/extra/build/build_script/kirin_kernel_release" "kernel/include/linux/time64.h"
	.file	51 "/mnt/disk/jenkins/ci/workspace/chipset_pipeline_release/opensource/component_code/vendor/huawei/extra/build/build_script/kirin_kernel_release" "kernel/include/linux/stat.h"
	.file	52 "/mnt/disk/jenkins/ci/workspace/chipset_pipeline_release/opensource/component_code/vendor/huawei/extra/build/build_script/kirin_kernel_release" "kernel/include/linux/completion.h"
	.file	53 "/mnt/disk/jenkins/ci/workspace/chipset_pipeline_release/opensource/component_code/vendor/huawei/extra/build/build_script/kirin_kernel_release" "kernel/include/linux/swait.h"
	.file	54 "/mnt/disk/jenkins/ci/workspace/chipset_pipeline_release/opensource/component_code/vendor/huawei/extra/build/build_script/kirin_kernel_release" "kernel/include/linux/export.h"
	.file	55 "/mnt/disk/jenkins/ci/workspace/chipset_pipeline_release/opensource/component_code/vendor/huawei/extra/build/build_script/kirin_kernel_release" "kernel/include/linux/mutex.h"
	.file	56 "/mnt/disk/jenkins/ci/workspace/chipset_pipeline_release/opensource/component_code/vendor/huawei/extra/build/build_script/kirin_kernel_release" "kernel/include/linux/osq_lock.h"
	.file	57 "/mnt/disk/jenkins/ci/workspace/chipset_pipeline_release/opensource/component_code/vendor/huawei/extra/build/build_script/kirin_kernel_release" "kernel/include/linux/moduleparam.h"
	.file	58 "/mnt/disk/jenkins/ci/workspace/chipset_pipeline_release/opensource/component_code/vendor/huawei/extra/build/build_script/kirin_kernel_release" "kernel/arch/arm64/include/asm/extable.h"
	.file	59 "/mnt/disk/jenkins/ci/workspace/chipset_pipeline_release/opensource/component_code/vendor/huawei/extra/build/build_script/kirin_kernel_release" "kernel/include/linux/rbtree.h"
	.file	60 "/mnt/disk/jenkins/ci/workspace/chipset_pipeline_release/opensource/component_code/vendor/huawei/extra/build/build_script/kirin_kernel_release" "kernel/include/linux/rbtree_latch.h"
	.file	61 "/mnt/disk/jenkins/ci/workspace/chipset_pipeline_release/opensource/component_code/vendor/huawei/extra/build/build_script/kirin_kernel_release" "kernel/arch/arm64/include/asm/module.h"
	.file	62 "/mnt/disk/jenkins/ci/workspace/chipset_pipeline_release/opensource/component_code/vendor/huawei/extra/build/build_script/kirin_kernel_release" "kernel/include/uapi/linux/types.h"
	.file	63 "/mnt/disk/jenkins/ci/workspace/chipset_pipeline_release/opensource/component_code/vendor/huawei/extra/build/build_script/kirin_kernel_release" "kernel/include/uapi/linux/elf.h"
	.file	64 "/mnt/disk/jenkins/ci/workspace/chipset_pipeline_release/opensource/component_code/vendor/huawei/extra/build/build_script/kirin_kernel_release" "kernel/include/asm-generic/bug.h"
	.file	65 "/mnt/disk/jenkins/ci/workspace/chipset_pipeline_release/opensource/component_code/vendor/huawei/extra/build/build_script/kirin_kernel_release" "kernel/include/linux/tracepoint-defs.h"
	.file	66 "/mnt/disk/jenkins/ci/workspace/chipset_pipeline_release/opensource/component_code/vendor/huawei/extra/build/build_script/kirin_kernel_release" "kernel/include/linux/srcutree.h"
	.file	67 "/mnt/disk/jenkins/ci/workspace/chipset_pipeline_release/opensource/component_code/vendor/huawei/extra/build/build_script/kirin_kernel_release" "kernel/include/linux/rcu_segcblist.h"
	.file	68 "/mnt/disk/jenkins/ci/workspace/chipset_pipeline_release/opensource/component_code/vendor/huawei/extra/build/build_script/kirin_kernel_release" "kernel/include/linux/tracepoint.h"
	.file	69 "/mnt/disk/jenkins/ci/workspace/chipset_pipeline_release/opensource/component_code/vendor/huawei/extra/build/build_script/kirin_kernel_release" "kernel/include/linux/projid.h"
	.file	70 "/mnt/disk/jenkins/ci/workspace/chipset_pipeline_release/opensource/component_code/vendor/huawei/extra/build/build_script/kirin_kernel_release" "kernel/include/linux/mm_types.h"
	.file	71 "/mnt/disk/jenkins/ci/workspace/chipset_pipeline_release/opensource/component_code/vendor/huawei/extra/build/build_script/kirin_kernel_release" "kernel/include/linux/xarray.h"
	.file	72 "/mnt/disk/jenkins/ci/workspace/chipset_pipeline_release/opensource/component_code/vendor/huawei/extra/build/build_script/kirin_kernel_release" "kernel/include/linux/rwsem.h"
	.file	73 "/mnt/disk/jenkins/ci/workspace/chipset_pipeline_release/opensource/component_code/vendor/huawei/extra/build/build_script/kirin_kernel_release" "kernel/arch/arm64/include/asm/thread_info.h"
	.file	74 "/mnt/disk/jenkins/ci/workspace/chipset_pipeline_release/opensource/component_code/vendor/huawei/extra/build/build_script/kirin_kernel_release" "kernel/include/linux/sched.h"
	.file	75 "/mnt/disk/jenkins/ci/workspace/chipset_pipeline_release/opensource/component_code/vendor/huawei/extra/build/build_script/kirin_kernel_release" "kernel/include/linux/refcount.h"
	.file	76 "/mnt/disk/jenkins/ci/workspace/chipset_pipeline_release/opensource/component_code/vendor/huawei/extra/build/build_script/kirin_kernel_release" "kernel/include/linux/smp_types.h"
	.file	77 "/mnt/disk/jenkins/ci/workspace/chipset_pipeline_release/opensource/component_code/vendor/huawei/extra/build/build_script/kirin_kernel_release" "kernel/include/linux/timerqueue.h"
	.file	78 "/mnt/disk/jenkins/ci/workspace/chipset_pipeline_release/opensource/component_code/vendor/huawei/extra/build/build_script/kirin_kernel_release" "kernel/include/linux/plist.h"
	.file	79 "/mnt/disk/jenkins/ci/workspace/chipset_pipeline_release/opensource/component_code/vendor/huawei/extra/build/build_script/kirin_kernel_release" "kernel/arch/arm64/include/asm/pgtable-types.h"
	.file	80 "/mnt/disk/jenkins/ci/workspace/chipset_pipeline_release/opensource/component_code/vendor/huawei/extra/build/build_script/kirin_kernel_release" "kernel/include/asm-generic/pgtable-nop4d.h"
	.file	81 "/mnt/disk/jenkins/ci/workspace/chipset_pipeline_release/opensource/component_code/vendor/huawei/extra/build/build_script/kirin_kernel_release" "kernel/include/asm-generic/pgtable-nopud.h"
	.file	82 "/mnt/disk/jenkins/ci/workspace/chipset_pipeline_release/opensource/component_code/vendor/huawei/extra/build/build_script/kirin_kernel_release" "kernel/arch/arm64/include/asm/page.h"
	.file	83 "/mnt/disk/jenkins/ci/workspace/chipset_pipeline_release/opensource/component_code/vendor/huawei/extra/build/build_script/kirin_kernel_release" "kernel/include/asm-generic/qrwlock_types.h"
	.file	84 "/mnt/disk/jenkins/ci/workspace/chipset_pipeline_release/opensource/component_code/vendor/huawei/extra/build/build_script/kirin_kernel_release" "kernel/include/linux/rwlock_types.h"
	.file	85 "/mnt/disk/jenkins/ci/workspace/chipset_pipeline_release/opensource/component_code/vendor/huawei/extra/build/build_script/kirin_kernel_release" "kernel/include/linux/mm_types_task.h"
	.file	86 "/mnt/disk/jenkins/ci/workspace/chipset_pipeline_release/opensource/component_code/vendor/huawei/extra/build/build_script/kirin_kernel_release" "kernel/arch/arm64/include/asm/mmu.h"
	.file	87 "/mnt/disk/jenkins/ci/workspace/chipset_pipeline_release/opensource/component_code/vendor/huawei/extra/build/build_script/kirin_kernel_release" "kernel/include/linux/uprobes.h"
	.file	88 "/mnt/disk/jenkins/ci/workspace/chipset_pipeline_release/opensource/component_code/vendor/huawei/extra/build/build_script/kirin_kernel_release" "kernel/include/linux/xreclaimer_types.h"
	.file	89 "/mnt/disk/jenkins/ci/workspace/chipset_pipeline_release/opensource/component_code/vendor/huawei/extra/build/build_script/kirin_kernel_release" "kernel/include/uapi/linux/time_types.h"
	.file	90 "/mnt/disk/jenkins/ci/workspace/chipset_pipeline_release/opensource/component_code/vendor/huawei/extra/build/build_script/kirin_kernel_release" "kernel/include/vdso/time32.h"
	.file	91 "/mnt/disk/jenkins/ci/workspace/chipset_pipeline_release/opensource/component_code/vendor/huawei/extra/build/build_script/kirin_kernel_release" "kernel/include/linux/wait.h"
	.file	92 "/mnt/disk/jenkins/ci/workspace/chipset_pipeline_release/opensource/component_code/vendor/huawei/extra/build/build_script/kirin_kernel_release" "kernel/include/linux/kref.h"
	.file	93 "/mnt/disk/jenkins/ci/workspace/chipset_pipeline_release/opensource/component_code/vendor/huawei/extra/build/build_script/kirin_kernel_release" "kernel/include/linux/pid_namespace.h"
	.file	94 "/mnt/disk/jenkins/ci/workspace/chipset_pipeline_release/opensource/component_code/vendor/huawei/extra/build/build_script/kirin_kernel_release" "kernel/include/linux/idr.h"
	.file	95 "/mnt/disk/jenkins/ci/workspace/chipset_pipeline_release/opensource/component_code/vendor/huawei/extra/build/build_script/kirin_kernel_release" "kernel/include/linux/ns_common.h"
	.file	96 "/mnt/disk/jenkins/ci/workspace/chipset_pipeline_release/opensource/component_code/vendor/huawei/extra/build/build_script/kirin_kernel_release" "kernel/include/linux/posix-timers.h"
	.file	97 "/mnt/disk/jenkins/ci/workspace/chipset_pipeline_release/opensource/component_code/vendor/huawei/extra/build/build_script/kirin_kernel_release" "kernel/include/linux/cred.h"
	.file	98 "/mnt/disk/jenkins/ci/workspace/chipset_pipeline_release/opensource/component_code/vendor/huawei/extra/build/build_script/kirin_kernel_release" "kernel/include/linux/capability.h"
	.file	99 "/mnt/disk/jenkins/ci/workspace/chipset_pipeline_release/opensource/component_code/vendor/huawei/extra/build/build_script/kirin_kernel_release" "kernel/include/linux/key.h"
	.file	100 "/mnt/disk/jenkins/ci/workspace/chipset_pipeline_release/opensource/component_code/vendor/huawei/extra/build/build_script/kirin_kernel_release" "kernel/include/linux/assoc_array.h"
	.file	101 "/mnt/disk/jenkins/ci/workspace/chipset_pipeline_release/opensource/component_code/vendor/huawei/extra/build/build_script/kirin_kernel_release" "kernel/include/linux/sched/user.h"
	.file	102 "/mnt/disk/jenkins/ci/workspace/chipset_pipeline_release/opensource/component_code/vendor/huawei/extra/build/build_script/kirin_kernel_release" "kernel/include/linux/ratelimit_types.h"
	.file	103 "/mnt/disk/jenkins/ci/workspace/chipset_pipeline_release/opensource/component_code/vendor/huawei/extra/build/build_script/kirin_kernel_release" "kernel/include/linux/nsproxy.h"
	.file	104 "/mnt/disk/jenkins/ci/workspace/chipset_pipeline_release/opensource/component_code/vendor/huawei/extra/build/build_script/kirin_kernel_release" "kernel/include/linux/sched/signal.h"
	.file	105 "/mnt/disk/jenkins/ci/workspace/chipset_pipeline_release/opensource/component_code/vendor/huawei/extra/build/build_script/kirin_kernel_release" "kernel/include/linux/signal_types.h"
	.file	106 "/mnt/disk/jenkins/ci/workspace/chipset_pipeline_release/opensource/component_code/vendor/huawei/extra/build/build_script/kirin_kernel_release" "kernel/include/uapi/asm-generic/signal.h"
	.file	107 "/mnt/disk/jenkins/ci/workspace/chipset_pipeline_release/opensource/component_code/vendor/huawei/extra/build/build_script/kirin_kernel_release" "kernel/include/linux/task_io_accounting.h"
	.file	108 "/mnt/disk/jenkins/ci/workspace/chipset_pipeline_release/opensource/component_code/vendor/huawei/extra/build/build_script/kirin_kernel_release" "kernel/include/uapi/linux/resource.h"
	.file	109 "/mnt/disk/jenkins/ci/workspace/chipset_pipeline_release/opensource/component_code/vendor/huawei/extra/build/build_script/kirin_kernel_release" "kernel/include/uapi/asm-generic/signal-defs.h"
	.file	110 "/mnt/disk/jenkins/ci/workspace/chipset_pipeline_release/opensource/component_code/vendor/huawei/extra/build/build_script/kirin_kernel_release" "kernel/include/linux/seccomp.h"
	.file	111 "/mnt/disk/jenkins/ci/workspace/chipset_pipeline_release/opensource/component_code/vendor/huawei/extra/build/build_script/kirin_kernel_release" "kernel/include/linux/genhd.h"
	.file	112 "/mnt/disk/jenkins/ci/workspace/chipset_pipeline_release/opensource/component_code/vendor/huawei/extra/build/build_script/kirin_kernel_release" "kernel/include/linux/part_stat.h"
	.file	113 "/mnt/disk/jenkins/ci/workspace/chipset_pipeline_release/opensource/component_code/vendor/huawei/extra/build/build_script/kirin_kernel_release" "kernel/include/asm-generic/local.h"
	.file	114 "/mnt/disk/jenkins/ci/workspace/chipset_pipeline_release/opensource/component_code/vendor/huawei/extra/build/build_script/kirin_kernel_release" "kernel/include/linux/percpu-refcount.h"
	.file	115 "/mnt/disk/jenkins/ci/workspace/chipset_pipeline_release/opensource/component_code/vendor/huawei/extra/build/build_script/kirin_kernel_release" "kernel/include/linux/device/bus.h"
	.file	116 "/mnt/disk/jenkins/ci/workspace/chipset_pipeline_release/opensource/component_code/vendor/huawei/extra/build/build_script/kirin_kernel_release" "kernel/include/linux/pm_wakeup.h"
	.file	117 "/mnt/disk/jenkins/ci/workspace/chipset_pipeline_release/opensource/component_code/vendor/huawei/extra/build/build_script/kirin_kernel_release" "kernel/include/linux/energy_model.h"
	.file	118 "/mnt/disk/jenkins/ci/workspace/chipset_pipeline_release/opensource/component_code/vendor/huawei/extra/build/build_script/kirin_kernel_release" "kernel/arch/arm64/include/asm/device.h"
	.file	119 "/mnt/disk/jenkins/ci/workspace/chipset_pipeline_release/opensource/component_code/vendor/huawei/extra/build/build_script/kirin_kernel_release" "kernel/include/linux/fwnode.h"
	.file	120 "/mnt/disk/jenkins/ci/workspace/chipset_pipeline_release/opensource/component_code/vendor/huawei/extra/build/build_script/kirin_kernel_release" "kernel/include/linux/device/class.h"
	.file	121 "/mnt/disk/jenkins/ci/workspace/chipset_pipeline_release/opensource/component_code/vendor/huawei/extra/build/build_script/kirin_kernel_release" "kernel/include/linux/percpu_counter.h"
	.file	122 "/mnt/disk/jenkins/ci/workspace/chipset_pipeline_release/opensource/component_code/vendor/huawei/extra/build/build_script/kirin_kernel_release" "kernel/include/linux/flex_proportions.h"
	.file	123 "/mnt/disk/jenkins/ci/workspace/chipset_pipeline_release/opensource/component_code/vendor/huawei/extra/build/build_script/kirin_kernel_release" "kernel/include/uapi/linux/blkzoned.h"
	.file	124 "/mnt/disk/jenkins/ci/workspace/chipset_pipeline_release/opensource/component_code/vendor/huawei/extra/build/build_script/kirin_kernel_release" "kernel/include/linux/bvec.h"
	.file	125 "/mnt/disk/jenkins/ci/workspace/chipset_pipeline_release/opensource/component_code/vendor/huawei/extra/build/build_script/kirin_kernel_release" "kernel/include/linux/bio.h"
	.file	126 "/mnt/disk/jenkins/ci/workspace/chipset_pipeline_release/opensource/component_code/vendor/huawei/extra/build/build_script/kirin_kernel_release" "kernel/include/linux/mempool.h"
	.file	127 "/mnt/disk/jenkins/ci/workspace/chipset_pipeline_release/opensource/component_code/vendor/huawei/extra/build/build_script/kirin_kernel_release" "kernel/include/linux/iocontext.h"
	.file	128 "/mnt/disk/jenkins/ci/workspace/chipset_pipeline_release/opensource/component_code/vendor/huawei/extra/build/build_script/kirin_kernel_release" "kernel/include/uapi/asm-generic/siginfo.h"
	.file	129 "/mnt/disk/jenkins/ci/workspace/chipset_pipeline_release/opensource/component_code/vendor/huawei/extra/build/build_script/kirin_kernel_release" "kernel/include/linux/nodemask.h"
	.file	130 "/mnt/disk/jenkins/ci/workspace/chipset_pipeline_release/opensource/component_code/vendor/huawei/extra/build/build_script/kirin_kernel_release" "kernel/include/asm-generic/compat.h"
	.file	131 "/mnt/disk/jenkins/ci/workspace/chipset_pipeline_release/opensource/component_code/vendor/huawei/extra/build/build_script/kirin_kernel_release" "kernel/include/linux/compat.h"
	.file	132 "/mnt/disk/jenkins/ci/workspace/chipset_pipeline_release/opensource/component_code/vendor/huawei/extra/build/build_script/kirin_kernel_release" "kernel/arch/arm64/include/asm/tlbbatch.h"
	.file	133 "/mnt/disk/jenkins/ci/workspace/chipset_pipeline_release/opensource/component_code/vendor/huawei/extra/build/build_script/kirin_kernel_release" "kernel/arch/arm64/include/asm/processor.h"
	.file	134 "/mnt/disk/jenkins/ci/workspace/chipset_pipeline_release/opensource/component_code/vendor/huawei/extra/build/build_script/kirin_kernel_release" "kernel/arch/arm64/include/uapi/asm/ptrace.h"
	.file	135 "/mnt/disk/jenkins/ci/workspace/chipset_pipeline_release/opensource/component_code/vendor/huawei/extra/build/build_script/kirin_kernel_release" "kernel/arch/arm64/include/asm/pointer_auth.h"
	.file	136 "/mnt/disk/jenkins/ci/workspace/chipset_pipeline_release/opensource/component_code/vendor/huawei/extra/build/build_script/kirin_kernel_release" "kernel/include/linux/pagemap.h"
	.file	137 "/mnt/disk/jenkins/ci/workspace/chipset_pipeline_release/opensource/component_code/vendor/huawei/extra/build/build_script/kirin_kernel_release" "kernel/include/linux/uio.h"
	.file	138 "/mnt/disk/jenkins/ci/workspace/chipset_pipeline_release/opensource/component_code/vendor/huawei/extra/build/build_script/kirin_kernel_release" "kernel/include/uapi/linux/uio.h"
	.file	139 "/mnt/disk/jenkins/ci/workspace/chipset_pipeline_release/opensource/component_code/vendor/huawei/extra/build/build_script/kirin_kernel_release" "kernel/include/linux/mmzone.h"
	.file	140 "/mnt/disk/jenkins/ci/workspace/chipset_pipeline_release/opensource/component_code/vendor/huawei/extra/build/build_script/kirin_kernel_release" "kernel/include/linux/errseq.h"
	.file	141 "/mnt/disk/jenkins/ci/workspace/chipset_pipeline_release/opensource/component_code/vendor/huawei/extra/build/build_script/kirin_kernel_release" "kernel/include/linux/range.h"
	.file	142 "/mnt/disk/jenkins/ci/workspace/chipset_pipeline_release/opensource/component_code/vendor/huawei/extra/build/build_script/kirin_kernel_release" "kernel/include/linux/shrinker.h"
	.file	143 "/mnt/disk/jenkins/ci/workspace/chipset_pipeline_release/opensource/component_code/vendor/huawei/extra/build/build_script/kirin_kernel_release" "kernel/include/linux/rcu_sync.h"
	.file	144 "/mnt/disk/jenkins/ci/workspace/chipset_pipeline_release/opensource/component_code/vendor/huawei/extra/build/build_script/kirin_kernel_release" "kernel/include/linux/percpu-rwsem.h"
	.file	145 "/mnt/disk/jenkins/ci/workspace/chipset_pipeline_release/opensource/component_code/vendor/huawei/extra/build/build_script/kirin_kernel_release" "kernel/include/linux/rcuwait.h"
	.file	146 "/mnt/disk/jenkins/ci/workspace/chipset_pipeline_release/opensource/component_code/vendor/huawei/extra/build/build_script/kirin_kernel_release" "kernel/include/linux/uuid.h"
	.file	147 "/mnt/disk/jenkins/ci/workspace/chipset_pipeline_release/opensource/component_code/vendor/huawei/extra/build/build_script/kirin_kernel_release" "kernel/include/linux/list_lru.h"
	.file	148 "/mnt/disk/jenkins/ci/workspace/chipset_pipeline_release/opensource/component_code/vendor/huawei/extra/build/build_script/kirin_kernel_release" "kernel/include/linux/nfs_fs_i.h"
	.file	149 "/mnt/disk/jenkins/ci/workspace/chipset_pipeline_release/opensource/component_code/vendor/huawei/extra/build/build_script/kirin_kernel_release" "kernel/include/linux/lockref.h"
	.file	150 "/mnt/disk/jenkins/ci/workspace/chipset_pipeline_release/opensource/component_code/vendor/huawei/extra/build/build_script/kirin_kernel_release" "kernel/include/linux/kernfs.h"
	.file	151 "/mnt/disk/jenkins/ci/workspace/chipset_pipeline_release/opensource/component_code/vendor/huawei/extra/build/build_script/kirin_kernel_release" "kernel/block/blk-mq-tag.h"
	.file	152 "/mnt/disk/jenkins/ci/workspace/chipset_pipeline_release/opensource/component_code/vendor/huawei/extra/build/build_script/kirin_kernel_release" "kernel/include/linux/notifier.h"
	.file	153 "/mnt/disk/jenkins/ci/workspace/chipset_pipeline_release/opensource/component_code/vendor/huawei/extra/build/build_script/kirin_kernel_release" "kernel/block/blk-stat.h"
	.file	154 "/mnt/disk/jenkins/ci/workspace/chipset_pipeline_release/opensource/component_code/vendor/huawei/extra/build/build_script/kirin_kernel_release" "kernel/include/linux/bsg.h"
	.file	155 "/mnt/disk/jenkins/ci/workspace/chipset_pipeline_release/opensource/component_code/vendor/huawei/extra/build/build_script/kirin_kernel_release" "kernel/include/uapi/linux/bsg.h"
	.file	156 "/mnt/disk/jenkins/ci/workspace/chipset_pipeline_release/opensource/component_code/vendor/huawei/extra/build/build_script/kirin_kernel_release" "kernel/include/linux/smp.h"
	.file	157 "/mnt/disk/jenkins/ci/workspace/chipset_pipeline_release/opensource/component_code/vendor/huawei/extra/build/build_script/kirin_kernel_release" "kernel/arch/arm64/include/asm/cmpxchg.h"
	.file	158 "/mnt/disk/jenkins/ci/workspace/chipset_pipeline_release/opensource/component_code/vendor/huawei/extra/build/build_script/kirin_kernel_release" "kernel/include/linux/atomic-arch-fallback.h"
                                        // -- End function
	.globl	mas_gear_ctrl_flow_add          // -- Begin function mas_gear_ctrl_flow_add
	.p2align	2
	.type	mas_gear_ctrl_flow_add,@function
mas_gear_ctrl_flow_add:                 // @mas_gear_ctrl_flow_add
.Lfunc_begin5:
	.loc	3 96 0                          // kernel/platform_source/basicplatform/block/mas_blk_gear_ctrl_flowctrl.c:96:0
	.cfi_startproc
// %bb.0:
	//DEBUG_VALUE: mas_gear_ctrl_flow_add:req <- $x0
	hint	#25
	.cfi_negate_ra_state
	stp	x29, x30, [sp, #-48]!           // 16-byte Folded Spill
	stp	x22, x21, [sp, #16]             // 16-byte Folded Spill
	stp	x20, x19, [sp, #32]             // 16-byte Folded Spill
	mov	x29, sp
	.cfi_def_cfa w29, 48
	.cfi_offset w19, -8
	.cfi_offset w20, -16
	.cfi_offset w21, -24
	.cfi_offset w22, -32
	.cfi_offset w30, -40
	.cfi_offset w29, -48
	mov	x19, x0
.Ltmp65:
	//DEBUG_VALUE: mas_gear_ctrl_flow_add:req <- $x19
	.loc	3 97 16 prologue_end            // kernel/platform_source/basicplatform/block/mas_blk_gear_ctrl_flowctrl.c:97:16
	cbz	x0, .LBB5_2
.Ltmp66:
// %bb.1:
	//DEBUG_VALUE: mas_gear_ctrl_flow_add:req <- $x19
	//DEBUG_VALUE: blk_rq_bytes:rq <- $x19
	.loc	23 1820 13                      // kernel/include/linux/blkdev.h:1820:13
	ldr	w8, [x19, #40]
.Ltmp67:
	.loc	3 97 46                         // kernel/platform_source/basicplatform/block/mas_blk_gear_ctrl_flowctrl.c:97:46
	lsr	w21, w8, #12
	b	.LBB5_3
.Ltmp68:
.LBB5_2:
	//DEBUG_VALUE: mas_gear_ctrl_flow_add:req <- $x19
	.loc	3 97 16 is_stmt 0               // kernel/platform_source/basicplatform/block/mas_blk_gear_ctrl_flowctrl.c:97:16
	mov	w21, wzr
.Ltmp69:
.LBB5_3:
	//DEBUG_VALUE: mas_gear_ctrl_flow_add:req <- $x19
	//DEBUG_VALUE: mas_gear_ctrl_flow_add:io_size <- $w21
	//DEBUG_VALUE: mas_gear_ctrl_flow_add:update <- 0
	.loc	3 102 16 is_stmt 1              // kernel/platform_source/basicplatform/block/mas_blk_gear_ctrl_flowctrl.c:102:16
	bl	ktime_get
.Ltmp70:
	.loc	30 111 1                        // kernel/arch/arm64/include/asm/atomic_ll_sc.h:111:1
	adrp	x8, g_inflat_size
	add	x8, x8, :lo12:g_inflat_size
.Ltmp71:
	//DEBUG_VALUE: __ll_sc_atomic_add:v <- $x8
	//DEBUG_VALUE: arch_atomic_add:v <- $x8
	//DEBUG_VALUE: atomic_add:v <- $x8
	//APP
	// atomic_add
	prfm	pstl1strm, [x8]
.Ltmp72:
	ldxr	w9, [x8]
	add	w9, w9, w21
	stxr	w10, w9, [x8]
	cbnz	w10, .Ltmp72

	//NO_APP
.Ltmp73:
	//DEBUG_VALUE: __ll_sc_atomic_add:tmp <- undef
	//DEBUG_VALUE: __ll_sc_atomic_add:result <- undef
	.loc	3 102 16                        // kernel/platform_source/basicplatform/block/mas_blk_gear_ctrl_flowctrl.c:102:16
	mov	x20, x0
	//DEBUG_VALUE: __ll_sc_atomic_add:i <- $w21
	//DEBUG_VALUE: arch_atomic_add:i <- $w21
	//DEBUG_VALUE: atomic_add:i <- $w21
.Ltmp74:
	//DEBUG_VALUE: mas_gear_ctrl_flow_add:now <- $x20
	.loc	3 106 2                         // kernel/platform_source/basicplatform/block/mas_blk_gear_ctrl_flowctrl.c:106:2
	adrp	x0, flow_lock
	add	x0, x0, :lo12:flow_lock
	bl	_raw_spin_lock_irqsave
.Ltmp75:
	.loc	3 107 14                        // kernel/platform_source/basicplatform/block/mas_blk_gear_ctrl_flowctrl.c:107:14
	adrp	x8, g_flow_size
	.loc	3 108 13                        // kernel/platform_source/basicplatform/block/mas_blk_gear_ctrl_flowctrl.c:108:13
	adrp	x9, g_flow_cnt
	.loc	3 107 14                        // kernel/platform_source/basicplatform/block/mas_blk_gear_ctrl_flowctrl.c:107:14
	ldr	w10, [x8, :lo12:g_flow_size]
	.loc	3 108 13                        // kernel/platform_source/basicplatform/block/mas_blk_gear_ctrl_flowctrl.c:108:13
	ldr	w11, [x9, :lo12:g_flow_cnt]
	.loc	3 108 22 is_stmt 0              // kernel/platform_source/basicplatform/block/mas_blk_gear_ctrl_flowctrl.c:108:22
	cmp	w21, #0                         // =0
.Ltmp76:
	.loc	3 106 2 is_stmt 1               // kernel/platform_source/basicplatform/block/mas_blk_gear_ctrl_flowctrl.c:106:2
	mov	x1, x0
.Ltmp77:
	//DEBUG_VALUE: mas_gear_ctrl_flow_add:flags <- $x1
	.loc	3 107 14                        // kernel/platform_source/basicplatform/block/mas_blk_gear_ctrl_flowctrl.c:107:14
	add	w21, w10, w21
.Ltmp78:
	.loc	3 108 13                        // kernel/platform_source/basicplatform/block/mas_blk_gear_ctrl_flowctrl.c:108:13
	cinc	w22, w11, ne
	.loc	3 107 14                        // kernel/platform_source/basicplatform/block/mas_blk_gear_ctrl_flowctrl.c:107:14
	str	w21, [x8, :lo12:g_flow_size]
	.loc	3 108 13                        // kernel/platform_source/basicplatform/block/mas_blk_gear_ctrl_flowctrl.c:108:13
	str	w22, [x9, :lo12:g_flow_cnt]
.Ltmp79:
	.loc	3 109 10                        // kernel/platform_source/basicplatform/block/mas_blk_gear_ctrl_flowctrl.c:109:10
	cbz	x19, .LBB5_6
.Ltmp80:
// %bb.4:
	//DEBUG_VALUE: mas_gear_ctrl_flow_add:now <- $x20
	//DEBUG_VALUE: mas_gear_ctrl_flow_add:req <- $x19
	//DEBUG_VALUE: mas_gear_ctrl_flow_add:flags <- $x1
	//DEBUG_VALUE: mas_gear_ctrl_flow_add:update <- 0
	cmp	w22, #1                         // =1
	b.ne	.LBB5_6
.Ltmp81:
// %bb.5:
	//DEBUG_VALUE: mas_gear_ctrl_flow_add:now <- $x20
	//DEBUG_VALUE: mas_gear_ctrl_flow_add:req <- $x19
	//DEBUG_VALUE: mas_gear_ctrl_flow_add:flags <- $x1
	//DEBUG_VALUE: mas_gear_ctrl_flow_add:update <- 0
	.loc	3 110 16                        // kernel/platform_source/basicplatform/block/mas_blk_gear_ctrl_flowctrl.c:110:16
	adrp	x8, g_flow_start
	str	x20, [x8, :lo12:g_flow_start]
	b	.LBB5_8
.Ltmp82:
.LBB5_6:
	//DEBUG_VALUE: mas_gear_ctrl_flow_add:now <- $x20
	//DEBUG_VALUE: mas_gear_ctrl_flow_add:req <- $x19
	//DEBUG_VALUE: mas_gear_ctrl_flow_add:flags <- $x1
	//DEBUG_VALUE: mas_gear_ctrl_flow_add:update <- 0
	.loc	3 112 39                        // kernel/platform_source/basicplatform/block/mas_blk_gear_ctrl_flowctrl.c:112:39
	adrp	x10, g_flow_start
	ldr	x10, [x10, :lo12:g_flow_start]
	mov	x11, #63439
	movk	x11, #58195, lsl #16
	movk	x11, #39845, lsl #32
	movk	x11, #8388, lsl #48
.Ltmp83:
	//DEBUG_VALUE: ktime_us_delta:later <- $x20
	//DEBUG_VALUE: ktime_us_delta:earlier <- $x10
	.loc	5 171 27                        // kernel/include/linux/ktime.h:171:27
	sub	x10, x20, x10
.Ltmp84:
	//DEBUG_VALUE: ktime_divns:kt <- $x10
	//DEBUG_VALUE: ktime_to_us:kt <- $x10
	//DEBUG_VALUE: ktime_divns:div <- 1000
	.loc	5 155 12                        // kernel/include/linux/ktime.h:155:12
	smulh	x10, x10, x11
.Ltmp85:
	lsr	x11, x10, #63
	lsr	x10, x10, #7
.Ltmp86:
	.loc	3 113 46                        // kernel/platform_source/basicplatform/block/mas_blk_gear_ctrl_flowctrl.c:113:46
	cmp	w22, #7                         // =7
.Ltmp87:
	.loc	5 155 12                        // kernel/include/linux/ktime.h:155:12
	add	w19, w10, w11
.Ltmp88:
	//DEBUG_VALUE: mas_gear_ctrl_flow_add:req <- [DW_OP_LLVM_entry_value 1] $x0
	//DEBUG_VALUE: mas_gear_ctrl_flow_add:spend_us <- $w19
	//DEBUG_VALUE: ktime_divns:div <- 1000
	.loc	3 113 46                        // kernel/platform_source/basicplatform/block/mas_blk_gear_ctrl_flowctrl.c:113:46
	b.gt	.LBB5_9
.Ltmp89:
// %bb.7:
	//DEBUG_VALUE: mas_gear_ctrl_flow_add:now <- $x20
	//DEBUG_VALUE: mas_gear_ctrl_flow_add:flags <- $x1
	//DEBUG_VALUE: mas_gear_ctrl_flow_add:spend_us <- $w19
	//DEBUG_VALUE: mas_gear_ctrl_flow_add:req <- [DW_OP_LLVM_entry_value 1] $x0
	//DEBUG_VALUE: mas_gear_ctrl_flow_add:update <- 0
	cmp	w19, #1000                      // =1000
	b.gt	.LBB5_9
.Ltmp90:
.LBB5_8:
	//DEBUG_VALUE: mas_gear_ctrl_flow_add:now <- $x20
	//DEBUG_VALUE: mas_gear_ctrl_flow_add:flags <- $x1
	//DEBUG_VALUE: mas_gear_ctrl_flow_add:update <- 0
	//DEBUG_VALUE: mas_gear_ctrl_flow_add:update <- undef
	//DEBUG_VALUE: mas_gear_ctrl_flow_add:flow_cnt <- undef
	//DEBUG_VALUE: mas_gear_ctrl_flow_add:flow_size <- undef
	//DEBUG_VALUE: spin_unlock_irqrestore:flags <- $x1
	.loc	28 409 2                        // kernel/include/linux/spinlock.h:409:2
	adrp	x0, flow_lock
	add	x0, x0, :lo12:flow_lock
.Ltmp91:
	//DEBUG_VALUE: spin_unlock_irqrestore:lock <- $x0
	bl	_raw_spin_unlock_irqrestore
.Ltmp92:
	.loc	28 0 2 is_stmt 0                // kernel/include/linux/spinlock.h:0:2
	b	.LBB5_10
.Ltmp93:
.LBB5_9:
	//DEBUG_VALUE: mas_gear_ctrl_flow_add:now <- $x20
	//DEBUG_VALUE: mas_gear_ctrl_flow_add:flags <- $x1
	//DEBUG_VALUE: mas_gear_ctrl_flow_add:spend_us <- $w19
	//DEBUG_VALUE: mas_gear_ctrl_flow_add:req <- [DW_OP_LLVM_entry_value 1] $x0
	//DEBUG_VALUE: mas_gear_ctrl_flow_add:update <- 0
	//DEBUG_VALUE: mas_gear_ctrl_flow_add:flow_cnt <- $w22
	//DEBUG_VALUE: mas_gear_ctrl_flow_add:flow_size <- $w21
	.loc	28 409 2                        // kernel/include/linux/spinlock.h:409:2
	adrp	x0, flow_lock
	add	x0, x0, :lo12:flow_lock
.Ltmp94:
	//DEBUG_VALUE: spin_unlock_irqrestore:lock <- $x0
	.loc	3 116 15 is_stmt 1              // kernel/platform_source/basicplatform/block/mas_blk_gear_ctrl_flowctrl.c:116:15
	str	wzr, [x9, :lo12:g_flow_cnt]
	.loc	3 117 16                        // kernel/platform_source/basicplatform/block/mas_blk_gear_ctrl_flowctrl.c:117:16
	str	wzr, [x8, :lo12:g_flow_size]
.Ltmp95:
	//DEBUG_VALUE: spin_unlock_irqrestore:flags <- $x1
	//DEBUG_VALUE: mas_gear_ctrl_flow_add:spend_us <- $w19
	//DEBUG_VALUE: mas_gear_ctrl_flow_add:update <- undef
	.loc	28 409 2                        // kernel/include/linux/spinlock.h:409:2
	bl	_raw_spin_unlock_irqrestore
.Ltmp96:
	//DEBUG_VALUE: atomic_set:i <- $w22
	.loc	27 46 2                         // kernel/include/asm-generic/atomic-instrumented.h:46:2
	adrp	x8, g_flow_cnt_last
.Ltmp97:
	.loc	27 46 2 is_stmt 0               // kernel/include/asm-generic/atomic-instrumented.h:46:2
	adrp	x9, g_flow_size_last
.Ltmp98:
	.loc	27 46 2                         // kernel/include/asm-generic/atomic-instrumented.h:46:2
	adrp	x10, g_flow_last_spend_time
.Ltmp99:
	.loc	27 46 2                         // kernel/include/asm-generic/atomic-instrumented.h:46:2
	str	w22, [x8, :lo12:g_flow_cnt_last]
.Ltmp100:
	//DEBUG_VALUE: atomic_set:v <- undef
	//DEBUG_VALUE: atomic_set:i <- $w21
	//DEBUG_VALUE: atomic_set:i <- $w22
	.loc	27 46 2                         // kernel/include/asm-generic/atomic-instrumented.h:46:2
	str	w21, [x9, :lo12:g_flow_size_last]
.Ltmp101:
	//DEBUG_VALUE: atomic_set:v <- undef
	//DEBUG_VALUE: atomic_set:i <- $w19
	.loc	27 46 2                         // kernel/include/asm-generic/atomic-instrumented.h:46:2
	str	w19, [x10, :lo12:g_flow_last_spend_time]
.Ltmp102:
	//DEBUG_VALUE: atomic_set:v <- undef
.LBB5_10:
	//DEBUG_VALUE: mas_gear_ctrl_flow_add:now <- $x20
	.loc	3 127 1 is_stmt 1               // kernel/platform_source/basicplatform/block/mas_blk_gear_ctrl_flowctrl.c:127:1
	ldp	x20, x19, [sp, #32]             // 16-byte Folded Reload
.Ltmp103:
	ldp	x22, x21, [sp, #16]             // 16-byte Folded Reload
	ldp	x29, x30, [sp], #48             // 16-byte Folded Reload
	hint	#29
	ret
.Ltmp104:
.Lfunc_end5:
	.size	mas_gear_ctrl_flow_add, .Lfunc_end5-mas_gear_ctrl_flow_add
	.cfi_endproc
	.file	159 "/mnt/disk/jenkins/ci/workspace/chipset_pipeline_release/opensource/component_code/vendor/huawei/extra/build/build_script/kirin_kernel_release" "kernel/arch/arm64/include/asm/atomic.h"
	.file	160 "/mnt/disk/jenkins/ci/workspace/chipset_pipeline_release/opensource/component_code/vendor/huawei/extra/build/build_script/kirin_kernel_release" "kernel/include/linux/timekeeping.h"
                                        // -- End function
	.globl	mas_gear_ctrl_flow_get          // -- Begin function mas_gear_ctrl_flow_get
	.p2align	2
	.type	mas_gear_ctrl_flow_get,@function
mas_gear_ctrl_flow_get:                 // @mas_gear_ctrl_flow_get
.Lfunc_begin6:
	.loc	3 130 0                         // kernel/platform_source/basicplatform/block/mas_blk_gear_ctrl_flowctrl.c:130:0
	.cfi_startproc
// %bb.0:
	.loc	27 28 9 prologue_end            // kernel/include/asm-generic/atomic-instrumented.h:28:9
	hint	#34
.Ltmp105:
	//DEBUG_VALUE: mas_gear_ctrl_flow_get:flow_cnt <- $x0
	//DEBUG_VALUE: mas_gear_ctrl_flow_get:flow_cnt <- $x0
	//DEBUG_VALUE: mas_gear_ctrl_flow_get:flow_size <- $x1
	//DEBUG_VALUE: mas_gear_ctrl_flow_get:flow_size <- $x1
	//DEBUG_VALUE: mas_gear_ctrl_flow_get:spend_us <- $x2
	//DEBUG_VALUE: mas_gear_ctrl_flow_get:inflat_size <- $x3
	//DEBUG_VALUE: mas_gear_ctrl_flow_get:inflat_size <- $x3
	adrp	x8, g_inflat_size
	ldr	w8, [x8, :lo12:g_inflat_size]
.Ltmp106:
	//DEBUG_VALUE: atomic_read:v <- undef
	.loc	27 28 9 is_stmt 0               // kernel/include/asm-generic/atomic-instrumented.h:28:9
	adrp	x9, g_flow_size_last
.Ltmp107:
	.loc	3 131 15 is_stmt 1              // kernel/platform_source/basicplatform/block/mas_blk_gear_ctrl_flowctrl.c:131:15
	str	w8, [x3]
.Ltmp108:
	.loc	27 28 9                         // kernel/include/asm-generic/atomic-instrumented.h:28:9
	adrp	x8, g_flow_cnt_last
	ldr	w8, [x8, :lo12:g_flow_cnt_last]
.Ltmp109:
	//DEBUG_VALUE: atomic_read:v <- undef
	.loc	3 132 12                        // kernel/platform_source/basicplatform/block/mas_blk_gear_ctrl_flowctrl.c:132:12
	str	w8, [x0]
.Ltmp110:
	.loc	27 28 9                         // kernel/include/asm-generic/atomic-instrumented.h:28:9
	ldr	w8, [x9, :lo12:g_flow_size_last]
.Ltmp111:
	//DEBUG_VALUE: atomic_read:v <- undef
	.loc	3 133 13                        // kernel/platform_source/basicplatform/block/mas_blk_gear_ctrl_flowctrl.c:133:13
	str	w8, [x1]
.Ltmp112:
	.loc	27 28 9                         // kernel/include/asm-generic/atomic-instrumented.h:28:9
	adrp	x8, g_flow_last_spend_time
	ldr	w8, [x8, :lo12:g_flow_last_spend_time]
.Ltmp113:
	//DEBUG_VALUE: atomic_read:v <- undef
	//DEBUG_VALUE: mas_gear_ctrl_flow_get:spend_us <- $x2
	.loc	3 134 12                        // kernel/platform_source/basicplatform/block/mas_blk_gear_ctrl_flowctrl.c:134:12
	str	w8, [x2]
	.loc	3 135 1                         // kernel/platform_source/basicplatform/block/mas_blk_gear_ctrl_flowctrl.c:135:1
	ret
.Ltmp114:
.Lfunc_end6:
	.size	mas_gear_ctrl_flow_get, .Lfunc_end6-mas_gear_ctrl_flow_get
	.cfi_endproc
                                        // -- End function
	.type	g_mas_gear_ctrl_flow_threshold_cnt_per_ms,@object // @g_mas_gear_ctrl_flow_threshold_cnt_per_ms
	.data
	.globl	g_mas_gear_ctrl_flow_threshold_cnt_per_ms
	.p2align	2
g_mas_gear_ctrl_flow_threshold_cnt_per_ms:
	.word	4                               // 0x4
	.size	g_mas_gear_ctrl_flow_threshold_cnt_per_ms, 4

	.type	g_mas_gear_ctrl_flow_threshold_size_per_100us,@object // @g_mas_gear_ctrl_flow_threshold_size_per_100us
	.globl	g_mas_gear_ctrl_flow_threshold_size_per_100us
	.p2align	2
g_mas_gear_ctrl_flow_threshold_size_per_100us:
	.word	8                               // 0x8
	.size	g_mas_gear_ctrl_flow_threshold_size_per_100us, 4

	.type	g_mas_gear_ctrl_inflat_threshold_size,@object // @g_mas_gear_ctrl_inflat_threshold_size
	.globl	g_mas_gear_ctrl_inflat_threshold_size
	.p2align	2
g_mas_gear_ctrl_inflat_threshold_size:
	.word	256                             // 0x100
	.size	g_mas_gear_ctrl_inflat_threshold_size, 4

	.type	g_inflat_size,@object           // @g_inflat_size
	.bss
	.globl	g_inflat_size
	.p2align	2
g_inflat_size:
	.zero	4
	.size	g_inflat_size, 4

	.type	g_flow_cnt_last,@object         // @g_flow_cnt_last
	.globl	g_flow_cnt_last
	.p2align	2
g_flow_cnt_last:
	.zero	4
	.size	g_flow_cnt_last, 4

	.type	g_flow_size_last,@object        // @g_flow_size_last
	.globl	g_flow_size_last
	.p2align	2
g_flow_size_last:
	.zero	4
	.size	g_flow_size_last, 4

	.type	g_flow_last_spend_time,@object  // @g_flow_last_spend_time
	.globl	g_flow_last_spend_time
	.p2align	2
g_flow_last_spend_time:
	.zero	4
	.size	g_flow_last_spend_time, 4

	.type	g_flow_size,@object             // @g_flow_size
	.globl	g_flow_size
	.p2align	2
g_flow_size:
	.word	0                               // 0x0
	.size	g_flow_size, 4

	.type	g_flow_cnt,@object              // @g_flow_cnt
	.globl	g_flow_cnt
	.p2align	2
g_flow_cnt:
	.word	0                               // 0x0
	.size	g_flow_cnt, 4

	.type	g_flow_start,@object            // @g_flow_start
	.globl	g_flow_start
	.p2align	3
g_flow_start:
	.xword	0                               // 0x0
	.size	g_flow_start, 8

	.type	mas_gear_ctrl_flow_init.__key,@object // @mas_gear_ctrl_flow_init.__key
	.local	mas_gear_ctrl_flow_init.__key
	.comm	mas_gear_ctrl_flow_init.__key,1,1
	.type	flow_lock,@object               // @flow_lock
	.globl	flow_lock
	.p2align	3
flow_lock:
	.zero	24
	.size	flow_lock, 24

	.type	.L.str,@object                  // @.str
	.section	.rodata.str1.1,"aMS",@progbits,1
.L.str:
	.asciz	"&flow_lock"
	.size	.L.str, 11
